###############################################################################
#                                                                             #
# IAR C/C++ Compiler V8.10.3.10338/W32 for 8051         18/Apr/2026  11:04:34 #
# Copyright 2004-2011 IAR Systems AB.                                         #
#                                                                             #
#    Core               =  plain                                              #
#    Code model         =  banked                                             #
#    Data model         =  large                                              #
#    Calling convention =  xdata reentrant                                    #
#    Constant location  =  data_rom                                           #
#    Dptr setup         =  1,16                                               #
#    Source file        =  D:\ZNJJ\ZStack-CC2530-2.5.1a\Projects\zstack\Sampl #
#                          es\GwCoord\Source\cmd_map.c                        #
#    Command line       =  -f D:\ZNJJ\ZStack-CC2530-2.5.1a\Projects\zstack\Sa #
#                          mples\GwCoord\CC2530DB\..\..\..\Tools\CC2530DB\f8w #
#                          Endev.cfg (-DCPU32MHZ -DROOT=__near_func           #
#                          -DMAC_CFG_TX_DATA_MAX=3 -DMAC_CFG_TX_MAX=6         #
#                          -DMAC_CFG_RX_MAX=3) -f D:\ZNJJ\ZStack-CC2530-2.5.1 #
#                          a\Projects\zstack\Samples\GwCoord\CC2530DB\..\..\. #
#                          .\Tools\CC2530DB\f8wConfig.cfg (-DZIGBEEPRO        #
#                          -DSECURE=0 -DZG_SECURE_DYNAMIC=0 -DREFLECTOR       #
#                          -DDEFAULT_CHANLIST=0x00000800                      #
#                          -DZDAPP_CONFIG_PAN_ID=0xFFFF                       #
#                          -DNWK_START_DELAY=100 -DEXTENDED_JOINING_RANDOM_MA #
#                          SK=0x007F -DBEACON_REQUEST_DELAY=100               #
#                          -DBEACON_REQ_DELAY_MASK=0x00FF                     #
#                          -DLINK_STATUS_JITTER_MASK=0x007F                   #
#                          -DROUTE_EXPIRY_TIME=30 -DAPSC_ACK_WAIT_DURATION_PO #
#                          LLED=3000 -DNWK_INDIRECT_MSG_TIMEOUT=7             #
#                          -DMAX_RREQ_ENTRIES=8 -DAPSC_MAX_FRAME_RETRIES=3    #
#                          -DNWK_MAX_DATA_RETRIES=2                           #
#                          -DMAX_POLL_FAILURE_RETRIES=2 -DMAX_BCAST=9         #
#                          -DAPS_MAX_GROUPS=16 -DMAX_RTG_ENTRIES=40           #
#                          -DNWK_MAX_BINDING_ENTRIES=4                        #
#                          -DMAX_BINDING_CLUSTER_IDS=4 "-DDEFAULT_KEY={0x01,  #
#                          0x03, 0x05, 0x07, 0x09, 0x0B, 0x0D, 0x0F, 0x00,    #
#                          0x02, 0x04, 0x06, 0x08, 0x0A, 0x0C, 0x0D}"         #
#                          -DMAC_MAX_FRAME_SIZE=116                           #
#                          -DZDNWKMGR_MIN_TRANSMISSIONS=20 "-DCONST=const     #
#                          __code" -DGENERIC=__generic                        #
#                          -DRFD_RCVC_ALWAYS_ON=FALSE -DPOLL_RATE=1000        #
#                          -DQUEUED_POLL_RATE=100 -DRESPONSE_POLL_RATE=100)   #
#                          -DREJOIN_POLL_RATE=440 D:\ZNJJ\ZStack-CC2530-2.5.1 #
#                          a\Projects\zstack\Samples\GwCoord\Source\cmd_map.c #
#                           -D NWK_AUTO_POLL -D ZTOOL_P1 -D MT_TASK -D        #
#                          MT_SYS_FUNC -D MT_ZDO_FUNC -D LCD_SUPPORTED=DEBUG  #
#                          -lC D:\ZNJJ\ZStack-CC2530-2.5.1a\Projects\zstack\S #
#                          amples\GwCoord\CC2530DB\EndDeviceEB\List\ -lA      #
#                          D:\ZNJJ\ZStack-CC2530-2.5.1a\Projects\zstack\Sampl #
#                          es\GwCoord\CC2530DB\EndDeviceEB\List\              #
#                          --diag_suppress Pe001,Pa010 -o                     #
#                          D:\ZNJJ\ZStack-CC2530-2.5.1a\Projects\zstack\Sampl #
#                          es\GwCoord\CC2530DB\EndDeviceEB\Obj\ -e            #
#                          --no_code_motion --debug --core=plain --dptr=16,1  #
#                          --data_model=large --code_model=banked             #
#                          --calling_convention=xdata_reentrant               #
#                          --place_constants=data_rom --nr_virtual_regs 16    #
#                          -I D:\ZNJJ\ZStack-CC2530-2.5.1a\Projects\zstack\Sa #
#                          mples\GwCoord\CC2530DB\ -I                         #
#                          D:\ZNJJ\ZStack-CC2530-2.5.1a\Projects\zstack\Sampl #
#                          es\GwCoord\CC2530DB\..\Source\ -I                  #
#                          D:\ZNJJ\ZStack-CC2530-2.5.1a\Projects\zstack\Sampl #
#                          es\GwCoord\CC2530DB\..\..\..\ZMain\TI2530DB\ -I    #
#                          D:\ZNJJ\ZStack-CC2530-2.5.1a\Projects\zstack\Sampl #
#                          es\GwCoord\CC2530DB\..\..\..\..\..\Components\hal\ #
#                          include\ -I D:\ZNJJ\ZStack-CC2530-2.5.1a\Projects\ #
#                          zstack\Samples\GwCoord\CC2530DB\..\..\..\..\..\Com #
#                          ponents\hal\target\CC2530EB\ -I                    #
#                          D:\ZNJJ\ZStack-CC2530-2.5.1a\Projects\zstack\Sampl #
#                          es\GwCoord\CC2530DB\..\..\..\..\..\Components\mac\ #
#                          include\ -I D:\ZNJJ\ZStack-CC2530-2.5.1a\Projects\ #
#                          zstack\Samples\GwCoord\CC2530DB\..\..\..\..\..\Com #
#                          ponents\mac\high_level\ -I                         #
#                          D:\ZNJJ\ZStack-CC2530-2.5.1a\Projects\zstack\Sampl #
#                          es\GwCoord\CC2530DB\..\..\..\..\..\Components\mac\ #
#                          low_level\srf04\ -I D:\ZNJJ\ZStack-CC2530-2.5.1a\P #
#                          rojects\zstack\Samples\GwCoord\CC2530DB\..\..\..\. #
#                          .\..\Components\mac\low_level\srf04\single_chip\   #
#                          -I D:\ZNJJ\ZStack-CC2530-2.5.1a\Projects\zstack\Sa #
#                          mples\GwCoord\CC2530DB\..\..\..\..\..\Components\m #
#                          t\ -I D:\ZNJJ\ZStack-CC2530-2.5.1a\Projects\zstack #
#                          \Samples\GwCoord\CC2530DB\..\..\..\..\..\Component #
#                          s\osal\include\ -I D:\ZNJJ\ZStack-CC2530-2.5.1a\Pr #
#                          ojects\zstack\Samples\GwCoord\CC2530DB\..\..\..\.. #
#                          \..\Components\services\saddr\ -I                  #
#                          D:\ZNJJ\ZStack-CC2530-2.5.1a\Projects\zstack\Sampl #
#                          es\GwCoord\CC2530DB\..\..\..\..\..\Components\serv #
#                          ices\sdata\ -I D:\ZNJJ\ZStack-CC2530-2.5.1a\Projec #
#                          ts\zstack\Samples\GwCoord\CC2530DB\..\..\..\..\..\ #
#                          Components\stack\af\ -I D:\ZNJJ\ZStack-CC2530-2.5. #
#                          1a\Projects\zstack\Samples\GwCoord\CC2530DB\..\..\ #
#                          ..\..\..\Components\stack\nwk\ -I                  #
#                          D:\ZNJJ\ZStack-CC2530-2.5.1a\Projects\zstack\Sampl #
#                          es\GwCoord\CC2530DB\..\..\..\..\..\Components\stac #
#                          k\sapi\ -I D:\ZNJJ\ZStack-CC2530-2.5.1a\Projects\z #
#                          stack\Samples\GwCoord\CC2530DB\..\..\..\..\..\Comp #
#                          onents\stack\sec\ -I D:\ZNJJ\ZStack-CC2530-2.5.1a\ #
#                          Projects\zstack\Samples\GwCoord\CC2530DB\..\..\..\ #
#                          ..\..\Components\stack\sys\ -I                     #
#                          D:\ZNJJ\ZStack-CC2530-2.5.1a\Projects\zstack\Sampl #
#                          es\GwCoord\CC2530DB\..\..\..\..\..\Components\stac #
#                          k\zdo\ -I D:\ZNJJ\ZStack-CC2530-2.5.1a\Projects\zs #
#                          tack\Samples\GwCoord\CC2530DB\..\..\..\..\..\Compo #
#                          nents\zmac\ -I D:\ZNJJ\ZStack-CC2530-2.5.1a\Projec #
#                          ts\zstack\Samples\GwCoord\CC2530DB\..\..\..\..\..\ #
#                          Components\zmac\f8w\ -Ohz --require_prototypes     #
#    List file          =  D:\ZNJJ\ZStack-CC2530-2.5.1a\Projects\zstack\Sampl #
#                          es\GwCoord\CC2530DB\EndDeviceEB\List\cmd_map.lst   #
#    Object file        =  D:\ZNJJ\ZStack-CC2530-2.5.1a\Projects\zstack\Sampl #
#                          es\GwCoord\CC2530DB\EndDeviceEB\Obj\cmd_map.r51    #
#                                                                             #
#                                                                             #
###############################################################################

D:\ZNJJ\ZStack-CC2530-2.5.1a\Projects\zstack\Samples\GwCoord\Source\cmd_map.c
      1          /*
                  ^
Warning[Pa050]: non-native end of line sequence detected (this diagnostic is
          only issued once)
      2           * CMD 分发表：上行仅响应本书 §4.5.2 定义的 CMD；未知 → ZB_ERR{UNKNOWN,cmd}。
      3           */
      4          
      5          #include "cmd_map.h"
      6          #include "gw_coord.h"
      7          #include "zb_net.h"
      8          
      9          static void do_ping(const frame_t *f)
     10          {
     11              (void)f;
     12              (void)GwCoord_SendFrame(CMD_ZB_PING, 0, 0);
     13          }
     14          
     15          static void do_allow_join(const frame_t *f)
     16          {
     17              if (f->plen < 1) { GwCoord_SendErr(ERRC_BAD_FRAME, CMD_ZB_ALLOW_JOIN); return; }
     18              zb_net_allow_join(f->payload[0]);
     19          }
     20          

   \                                 In  segment BANKED_CODE, align 1, keep-with-next
     21          static void do_list_nodes(const frame_t *f)
   \                     do_list_nodes:
     22          {
   \   000000   74EC         MOV     A,#-0x14
   \   000002   12....       LCALL   ?BANKED_ENTER_XDATA
   \   000005                ; Saved register size: 20
   \   000005                ; Auto size: 22
   \   000005   74EA         MOV     A,#-0x16
   \   000007   12....       LCALL   ?ALLOC_XSTACK8
     23              uint8 i, cnt;
     24              uint8 buf[12];
     25              const zb_node_t *n;
     26              uint32 now;
     27              (void)f;
     28              cnt = zb_net_count();
   \   00000A                ; Setup parameters for call to function zb_net_count
   \   00000A   12....       LCALL   ??zb_net_count?relay
   \   00000D   E9           MOV     A,R1
   \   00000E   F5..         MOV     ?V0 + 1,A
     29              now = 0; /* 不需要精确 now，spec 里只要求 last_seen_s 近似 */
     30              for (i = 0; i < cnt; ++i) {
   \   000010   75..00       MOV     ?V0 + 0,#0x0
   \   000013   804A         SJMP    ??do_list_nodes_0
     31                  n = zb_net_at(i);
     32                  if (n == 0) break;
     33                  buf[0] = (uint8)(n->nodeid & 0xFF);
     34                  buf[1] = (uint8)(n->nodeid >> 8);
     35                  buf[2] = n->type;
     36                  buf[3] = (uint8)n->rssi;
     37                  /* 估算 last_seen_s：当前 ms - last_seen_ms 取秒，饱和到 255 */
     38                  {
     39                      extern uint32 osal_GetSystemClock(void);
     40                      uint32 diff_ms;
     41                      now = osal_GetSystemClock();
     42                      diff_ms = now - n->last_seen_ms;
     43                      buf[4] = (diff_ms > 255000u) ? 0xFFu : (uint8)(diff_ms / 1000u);
   \                     ??do_list_nodes_1:
   \   000015   90....       MOV     DPTR,#__Constant_3e8
   \   000018   78..         MOV     R0,#?V0 + 4
   \   00001A   12....       LCALL   ?L_MOV_X
   \   00001D   78..         MOV     R0,#?V0 + 8
   \   00001F   79..         MOV     R1,#?V0 + 4
   \   000021   12....       LCALL   ?UL_DIV_MOD
   \   000024   85..82       MOV     DPL,?XSP + 0
   \   000027   85..83       MOV     DPH,?XSP + 1
   \   00002A   E5..         MOV     A,?V0 + 8
   \                     ??do_list_nodes_2:
   \   00002C   F0           MOVX    @DPTR,A
   \   00002D   E0           MOVX    A,@DPTR
   \   00002E   C0E0         PUSH    A
   \   000030   740E         MOV     A,#0xe
   \   000032   12....       LCALL   ?XSTACK_DISP0_8
   \   000035   D0E0         POP     A
   \   000037   F0           MOVX    @DPTR,A
     44                  }
     45                  buf[5] = n->role;
   \   000038   EE           MOV     A,R6
   \   000039   240B         ADD     A,#0xb
   \   00003B   F582         MOV     DPL,A
   \   00003D   EF           MOV     A,R7
   \   00003E   3400         ADDC    A,#0x0
   \   000040   F583         MOV     DPH,A
   \   000042   E0           MOVX    A,@DPTR
   \   000043   C0E0         PUSH    A
   \   000045   740F         MOV     A,#0xf
   \   000047   12....       LCALL   ?XSTACK_DISP0_8
   \   00004A   D0E0         POP     A
   \   00004C   F0           MOVX    @DPTR,A
     46                  (void)GwCoord_SendFrame(CMD_ZB_NODE_INFO, buf, 6);
   \   00004D                ; Setup parameters for call to function GwCoord_SendFrame
   \   00004D   7C06         MOV     R4,#0x6
   \   00004F   740A         MOV     A,#0xa
   \   000051   12....       LCALL   ?XSTACK_DISP0_8
   \   000054   AA82         MOV     R2,DPL
   \   000056   AB83         MOV     R3,DPH
   \   000058   7912         MOV     R1,#0x12
   \   00005A   12....       LCALL   ??GwCoord_SendFrame?relay
   \   00005D   05..         INC     ?V0 + 0
   \                     ??do_list_nodes_0:
   \   00005F   E5..         MOV     A,?V0 + 0
   \   000061   C3           CLR     C
   \   000062   95..         SUBB    A,?V0 + 1
   \   000064   4003         JC      $+5
   \   000066   02....       LJMP    ??do_list_nodes_3 & 0xFFFF
   \   000069                ; Setup parameters for call to function zb_net_at
   \   000069   A9..         MOV     R1,?V0 + 0
   \   00006B   12....       LCALL   ??zb_net_at?relay
   \   00006E   8A..         MOV     ?V0 + 2,R2
   \   000070   8B..         MOV     ?V0 + 3,R3
   \   000072   AE..         MOV     R6,?V0 + 2
   \   000074   AF..         MOV     R7,?V0 + 3
   \   000076   EE           MOV     A,R6
   \   000077   4F           ORL     A,R7
   \   000078   607F         JZ      ??do_list_nodes_3
   \   00007A   8E82         MOV     DPL,R6
   \   00007C   8F83         MOV     DPH,R7
   \   00007E   E0           MOVX    A,@DPTR
   \   00007F   C0E0         PUSH    A
   \   000081   740A         MOV     A,#0xa
   \   000083   12....       LCALL   ?XSTACK_DISP0_8
   \   000086   D0E0         POP     A
   \   000088   F0           MOVX    @DPTR,A
   \   000089   8E82         MOV     DPL,R6
   \   00008B   8F83         MOV     DPH,R7
   \   00008D   A3           INC     DPTR
   \   00008E   E0           MOVX    A,@DPTR
   \   00008F   C0E0         PUSH    A
   \   000091   740B         MOV     A,#0xb
   \   000093   12....       LCALL   ?XSTACK_DISP0_8
   \   000096   D0E0         POP     A
   \   000098   F0           MOVX    @DPTR,A
   \   000099   8E82         MOV     DPL,R6
   \   00009B   8F83         MOV     DPH,R7
   \   00009D   A3           INC     DPTR
   \   00009E   A3           INC     DPTR
   \   00009F   A3           INC     DPTR
   \   0000A0   A3           INC     DPTR
   \   0000A1   A3           INC     DPTR
   \   0000A2   A3           INC     DPTR
   \   0000A3   A3           INC     DPTR
   \   0000A4   A3           INC     DPTR
   \   0000A5   A3           INC     DPTR
   \   0000A6   A3           INC     DPTR
   \   0000A7   E0           MOVX    A,@DPTR
   \   0000A8   C0E0         PUSH    A
   \   0000AA   740C         MOV     A,#0xc
   \   0000AC   12....       LCALL   ?XSTACK_DISP0_8
   \   0000AF   D0E0         POP     A
   \   0000B1   F0           MOVX    @DPTR,A
   \   0000B2   EE           MOV     A,R6
   \   0000B3   240C         ADD     A,#0xc
   \   0000B5   F582         MOV     DPL,A
   \   0000B7   EF           MOV     A,R7
   \   0000B8   3400         ADDC    A,#0x0
   \   0000BA   F583         MOV     DPH,A
   \   0000BC   E0           MOVX    A,@DPTR
   \   0000BD   C0E0         PUSH    A
   \   0000BF   740D         MOV     A,#0xd
   \   0000C1   12....       LCALL   ?XSTACK_DISP0_8
   \   0000C4   D0E0         POP     A
   \   0000C6   F0           MOVX    @DPTR,A
   \   0000C7                ; Setup parameters for call to function osal_GetSystemClock
   \   0000C7   12....       LCALL   ??osal_GetSystemClock?relay
   \   0000CA   8A..         MOV     ?V0 + 8,R2
   \   0000CC   8B..         MOV     ?V0 + 9,R3
   \   0000CE   8C..         MOV     ?V0 + 10,R4
   \   0000D0   8D..         MOV     ?V0 + 11,R5
   \   0000D2   EE           MOV     A,R6
   \   0000D3   240D         ADD     A,#0xd
   \   0000D5   F582         MOV     DPL,A
   \   0000D7   EF           MOV     A,R7
   \   0000D8   3400         ADDC    A,#0x0
   \   0000DA   F583         MOV     DPH,A
   \   0000DC   78..         MOV     R0,#?V0 + 8
   \   0000DE   12....       LCALL   ?L_SUB_X
   \   0000E1   90....       MOV     DPTR,#__Constant_3e419
   \   0000E4   78..         MOV     R0,#?V0 + 8
   \   0000E6   12....       LCALL   ?UL_GE_X
   \   0000E9   4003         JC      $+5
   \   0000EB   02....       LJMP    ??do_list_nodes_1 & 0xFFFF
   \   0000EE   85..82       MOV     DPL,?XSP + 0
   \   0000F1   85..83       MOV     DPH,?XSP + 1
   \   0000F4   74FF         MOV     A,#-0x1
   \   0000F6   02....       LJMP    ??do_list_nodes_2 & 0xFFFF
     47              }
     48              /* 空表也发一个计数=0 的 NET_STATUS 方便 STM32 侧判断 */
     49              if (cnt == 0) {
   \                     ??do_list_nodes_3:
   \   0000F9   E5..         MOV     A,?V0 + 1
   \   0000FB   6003         JZ      $+5
   \   0000FD   02....       LJMP    ??do_list_nodes_4 & 0xFFFF
     50                  uint8 state, channel, joined_n;
     51                  uint16 panid;
     52                  uint8 st[5];
     53                  zb_net_get_status(&state, &channel, &panid, &joined_n);
   \   000100                ; Setup parameters for call to function zb_net_get_status
   \   000100   7401         MOV     A,#0x1
   \   000102   12....       LCALL   ?XSTACK_DISP0_8
   \   000105   8582..       MOV     ?V0 + 0,DPL
   \   000108   8583..       MOV     ?V0 + 1,DPH
   \   00010B   78..         MOV     R0,#?V0 + 0
   \   00010D   12....       LCALL   ?PUSH_XSTACK_I_TWO
   \   000110   7405         MOV     A,#0x5
   \   000112   12....       LCALL   ?XSTACK_DISP0_8
   \   000115   8582..       MOV     ?V0 + 0,DPL
   \   000118   8583..       MOV     ?V0 + 1,DPH
   \   00011B   78..         MOV     R0,#?V0 + 0
   \   00011D   12....       LCALL   ?PUSH_XSTACK_I_TWO
   \   000120   7406         MOV     A,#0x6
   \   000122   12....       LCALL   ?XSTACK_DISP0_8
   \   000125   AC82         MOV     R4,DPL
   \   000127   AD83         MOV     R5,DPH
   \   000129   7404         MOV     A,#0x4
   \   00012B   12....       LCALL   ?XSTACK_DISP0_8
   \   00012E   AA82         MOV     R2,DPL
   \   000130   AB83         MOV     R3,DPH
   \   000132   12....       LCALL   ??zb_net_get_status?relay
   \   000135   7404         MOV     A,#0x4
   \   000137   12....       LCALL   ?DEALLOC_XSTACK8
     54                  st[0] = state; st[1] = channel;
   \   00013A   85..82       MOV     DPL,?XSP + 0
   \   00013D   85..83       MOV     DPH,?XSP + 1
   \   000140   E0           MOVX    A,@DPTR
   \   000141   C0E0         PUSH    A
   \   000143   7405         MOV     A,#0x5
   \   000145   12....       LCALL   ?XSTACK_DISP0_8
   \   000148   D0E0         POP     A
   \   00014A   F0           MOVX    @DPTR,A
   \   00014B   7402         MOV     A,#0x2
   \   00014D   12....       LCALL   ?XSTACK_DISP0_8
   \   000150   E0           MOVX    A,@DPTR
   \   000151   C0E0         PUSH    A
   \   000153   7406         MOV     A,#0x6
   \   000155   12....       LCALL   ?XSTACK_DISP0_8
   \   000158   D0E0         POP     A
   \   00015A   F0           MOVX    @DPTR,A
     55                  st[2] = (uint8)(panid & 0xFF); st[3] = (uint8)(panid >> 8);
   \   00015B   7403         MOV     A,#0x3
   \   00015D   12....       LCALL   ?XSTACK_DISP0_8
   \   000160   E0           MOVX    A,@DPTR
   \   000161   C0E0         PUSH    A
   \   000163   7407         MOV     A,#0x7
   \   000165   12....       LCALL   ?XSTACK_DISP0_8
   \   000168   D0E0         POP     A
   \   00016A   F0           MOVX    @DPTR,A
   \   00016B   7403         MOV     A,#0x3
   \   00016D   12....       LCALL   ?XSTACK_DISP0_8
   \   000170   A3           INC     DPTR
   \   000171   E0           MOVX    A,@DPTR
   \   000172   C0E0         PUSH    A
   \   000174   7408         MOV     A,#0x8
   \   000176   12....       LCALL   ?XSTACK_DISP0_8
   \   000179   D0E0         POP     A
   \   00017B   F0           MOVX    @DPTR,A
     56                  st[4] = joined_n;
   \   00017C   7401         MOV     A,#0x1
   \   00017E   12....       LCALL   ?XSTACK_DISP0_8
   \   000181   E0           MOVX    A,@DPTR
   \   000182   C0E0         PUSH    A
   \   000184   7409         MOV     A,#0x9
   \   000186   12....       LCALL   ?XSTACK_DISP0_8
   \   000189   D0E0         POP     A
   \   00018B   F0           MOVX    @DPTR,A
     57                  (void)GwCoord_SendFrame(CMD_ZB_NET_STATUS, st, 5);
   \   00018C                ; Setup parameters for call to function GwCoord_SendFrame
   \   00018C   7C05         MOV     R4,#0x5
   \   00018E   EC           MOV     A,R4
   \   00018F   12....       LCALL   ?XSTACK_DISP0_8
   \   000192   AA82         MOV     R2,DPL
   \   000194   AB83         MOV     R3,DPH
   \   000196   7902         MOV     R1,#0x2
   \   000198   12....       LCALL   ??GwCoord_SendFrame?relay
     58              }
     59          }
   \                     ??do_list_nodes_4:
   \   00019B   7416         MOV     A,#0x16
   \   00019D   12....       LCALL   ?DEALLOC_XSTACK8
   \   0001A0   7F0C         MOV     R7,#0xc
   \   0001A2   02....       LJMP    ?BANKED_LEAVE_XDATA
     60          

   \                                 In  segment BANKED_CODE, align 1, keep-with-next
     61          static void do_cmd(const frame_t *f)
   \                     do_cmd:
     62          {
   \   000000   74F1         MOV     A,#-0xf
   \   000002   12....       LCALL   ?BANKED_ENTER_XDATA
   \   000005                ; Saved register size: 15
   \   000005                ; Auto size: 0
   \   000005   EA           MOV     A,R2
   \   000006   F8           MOV     R0,A
   \   000007   EB           MOV     A,R3
   \   000008   F9           MOV     R1,A
     63              /* ZB_CMD payload 布局同 ZB_REPORT：u16 nodeid; u8 ep; u16 cluster; u8 dtype; u8 vlen; val[]. */
     64              uint16 nodeid;
     65              uint8  ep;
     66              uint16 cluster;
     67              uint8  dtype;
     68              uint8  vlen;
     69              const uint8 *val;
     70          
     71              if (f->plen < 7) { GwCoord_SendErr(ERRC_BAD_FRAME, CMD_ZB_CMD); return; }
   \   000009   8882         MOV     DPL,R0
   \   00000B   8983         MOV     DPH,R1
   \   00000D   A3           INC     DPTR
   \   00000E   E0           MOVX    A,@DPTR
   \   00000F   C3           CLR     C
   \   000010   9407         SUBB    A,#0x7
   \   000012   5007         JNC     ??do_cmd_0
   \                     ??do_cmd_1:
   \   000014                ; Setup parameters for call to function GwCoord_SendErr
   \   000014   7A21         MOV     R2,#0x21
   \   000016   7920         MOV     R1,#0x20
   \   000018   02....       LJMP    ??do_cmd_2 & 0xFFFF
     72              nodeid  = (uint16)f->payload[0] | ((uint16)f->payload[1] << 8);
   \                     ??do_cmd_0:
   \   00001B   8882         MOV     DPL,R0
   \   00001D   8983         MOV     DPH,R1
   \   00001F   A3           INC     DPTR
   \   000020   A3           INC     DPTR
   \   000021   E0           MOVX    A,@DPTR
   \   000022   FC           MOV     R4,A
   \   000023   8882         MOV     DPL,R0
   \   000025   8983         MOV     DPH,R1
   \   000027   A3           INC     DPTR
   \   000028   A3           INC     DPTR
   \   000029   A3           INC     DPTR
   \   00002A   E0           MOVX    A,@DPTR
   \   00002B   FB           MOV     R3,A
   \   00002C   EC           MOV     A,R4
   \   00002D   FA           MOV     R2,A
     73              ep      = f->payload[2];
   \   00002E   8882         MOV     DPL,R0
   \   000030   8983         MOV     DPH,R1
   \   000032   A3           INC     DPTR
   \   000033   A3           INC     DPTR
   \   000034   A3           INC     DPTR
   \   000035   A3           INC     DPTR
   \   000036   E0           MOVX    A,@DPTR
   \   000037   F5..         MOV     ?V0 + 2,A
     74              cluster = (uint16)f->payload[3] | ((uint16)f->payload[4] << 8);
     75              dtype   = f->payload[5];
   \   000039   8882         MOV     DPL,R0
   \   00003B   8983         MOV     DPH,R1
   \   00003D   A3           INC     DPTR
   \   00003E   A3           INC     DPTR
   \   00003F   A3           INC     DPTR
   \   000040   A3           INC     DPTR
   \   000041   A3           INC     DPTR
   \   000042   A3           INC     DPTR
   \   000043   A3           INC     DPTR
   \   000044   E0           MOVX    A,@DPTR
   \   000045   F5..         MOV     ?V0 + 3,A
     76              vlen    = f->payload[6];
   \   000047   8882         MOV     DPL,R0
   \   000049   8983         MOV     DPH,R1
   \   00004B   A3           INC     DPTR
   \   00004C   A3           INC     DPTR
   \   00004D   A3           INC     DPTR
   \   00004E   A3           INC     DPTR
   \   00004F   A3           INC     DPTR
   \   000050   A3           INC     DPTR
   \   000051   A3           INC     DPTR
   \   000052   A3           INC     DPTR
   \   000053   E0           MOVX    A,@DPTR
   \   000054   F5..         MOV     ?V0 + 6,A
     77              val     = &f->payload[7];
   \   000056   E8           MOV     A,R0
   \   000057   2409         ADD     A,#0x9
   \   000059   FC           MOV     R4,A
   \   00005A   E9           MOV     A,R1
   \   00005B   3400         ADDC    A,#0x0
   \   00005D   FD           MOV     R5,A
     78              if ((uint16)(7 + vlen) > f->plen) { GwCoord_SendErr(ERRC_BAD_FRAME, CMD_ZB_CMD); return; }
   \   00005E   8882         MOV     DPL,R0
   \   000060   8983         MOV     DPH,R1
   \   000062   A3           INC     DPTR
   \   000063   E0           MOVX    A,@DPTR
   \   000064   F5..         MOV     ?V0 + 4,A
   \   000066   85....       MOV     ?V0 + 0,?V0 + 6
   \   000069   E5..         MOV     A,?V0 + 0
   \   00006B   2407         ADD     A,#0x7
   \   00006D   FE           MOV     R6,A
   \   00006E   E4           CLR     A
   \   00006F   3400         ADDC    A,#0x0
   \   000071   FF           MOV     R7,A
   \   000072   E5..         MOV     A,?V0 + 4
   \   000074   9E           SUBB    A,R6
   \   000075   E4           CLR     A
   \   000076   9F           SUBB    A,R7
   \   000077   409B         JC      ??do_cmd_1
     79          
     80              if (cluster == ZCL_CLU_ONOFF && dtype == DTYPE_BOOL && vlen == 1) {
   \   000079   8882         MOV     DPL,R0
   \   00007B   8983         MOV     DPH,R1
   \   00007D   A3           INC     DPTR
   \   00007E   A3           INC     DPTR
   \   00007F   A3           INC     DPTR
   \   000080   A3           INC     DPTR
   \   000081   A3           INC     DPTR
   \   000082   E0           MOVX    A,@DPTR
   \   000083   FE           MOV     R6,A
   \   000084   8882         MOV     DPL,R0
   \   000086   8983         MOV     DPH,R1
   \   000088   A3           INC     DPTR
   \   000089   A3           INC     DPTR
   \   00008A   A3           INC     DPTR
   \   00008B   A3           INC     DPTR
   \   00008C   A3           INC     DPTR
   \   00008D   A3           INC     DPTR
   \   00008E   E0           MOVX    A,@DPTR
   \   00008F   F9           MOV     R1,A
   \   000090   EE           MOV     A,R6
   \   000091   F8           MOV     R0,A
   \   000092   7406         MOV     A,#0x6
   \   000094   68           XRL     A,R0
   \   000095   7001         JNZ     ??do_cmd_3
   \   000097   E9           MOV     A,R1
   \                     ??do_cmd_3:
   \   000098   7020         JNZ     ??do_cmd_4
   \   00009A   7401         MOV     A,#0x1
   \   00009C   65..         XRL     A,?V0 + 3
   \   00009E   701A         JNZ     ??do_cmd_4
   \   0000A0   7401         MOV     A,#0x1
   \   0000A2   65..         XRL     A,?V0 + 6
   \   0000A4   7014         JNZ     ??do_cmd_4
     81                  if (zb_net_send_onoff(nodeid, ep, val[0]) != 0) {
   \   0000A6                ; Setup parameters for call to function zb_net_send_onoff
   \   0000A6   8C82         MOV     DPL,R4
   \   0000A8   8D83         MOV     DPH,R5
   \   0000AA   E0           MOVX    A,@DPTR
   \   0000AB   FC           MOV     R4,A
   \   0000AC   A9..         MOV     R1,?V0 + 2
   \   0000AE   12....       LCALL   ??zb_net_send_onoff?relay
   \   0000B1   E9           MOV     A,R1
   \   0000B2   600D         JZ      ??do_cmd_5
     82                      GwCoord_SendErr(ERRC_SEND_FAIL, CMD_ZB_CMD);
   \   0000B4                ; Setup parameters for call to function GwCoord_SendErr
   \   0000B4   7A21         MOV     R2,#0x21
   \   0000B6   7910         MOV     R1,#0x10
   \   0000B8   8004         SJMP    ??do_cmd_2
     83                  }
     84              } else {
     85                  /* 其他 cluster 暂不支持，未来在此扩展 */
     86                  GwCoord_SendErr(ERRC_UNKNOWN, CMD_ZB_CMD);
   \                     ??do_cmd_4:
   \   0000BA                ; Setup parameters for call to function GwCoord_SendErr
   \   0000BA   7A21         MOV     R2,#0x21
   \   0000BC   797F         MOV     R1,#0x7f
   \                     ??do_cmd_2:
   \   0000BE   12....       LCALL   ??GwCoord_SendErr?relay
   \                     ??do_cmd_5:
   \   0000C1   7F07         MOV     R7,#0x7
   \   0000C3   02....       LJMP    ?BANKED_LEAVE_XDATA
     87              }
     88          }
     89          

   \                                 In  segment BANKED_CODE, align 1, keep-with-next
     90          void cmd_map_dispatch(const frame_t *f)
   \                     cmd_map_dispatch:
     91          {
   \   000000   C082         PUSH    DPL
   \   000002   C083         PUSH    DPH
   \   000004                ; Saved register size: 2
   \   000004                ; Auto size: 0
     92              switch (f->cmd) {
   \   000004   8A82         MOV     DPL,R2
   \   000006   8B83         MOV     DPH,R3
   \   000008   E0           MOVX    A,@DPTR
   \   000009   14           DEC     A
   \   00000A   600D         JZ      ??cmd_map_dispatch_0
   \   00000C   24F1         ADD     A,#-0xf
   \   00000E   6016         JZ      ??cmd_map_dispatch_1
   \   000010   14           DEC     A
   \   000011   602A         JZ      ??cmd_map_dispatch_2
   \   000013   24F0         ADD     A,#-0x10
   \   000015   602B         JZ      ??cmd_map_dispatch_3
   \   000017   802E         SJMP    ??cmd_map_dispatch_4
     93              case CMD_ZB_PING:       do_ping(f);        break;
   \                     ??cmd_map_dispatch_0:
   \   000019                ; Setup parameters for call to function GwCoord_SendFrame
   \   000019   7C00         MOV     R4,#0x0
   \   00001B   7A00         MOV     R2,#0x0
   \   00001D   7B00         MOV     R3,#0x0
   \   00001F   7901         MOV     R1,#0x1
   \   000021   12....       LCALL   ??GwCoord_SendFrame?relay
   \   000024   8028         SJMP    ??cmd_map_dispatch_5
     94              case CMD_ZB_ALLOW_JOIN: do_allow_join(f);  break;
   \                     ??cmd_map_dispatch_1:
   \   000026   A3           INC     DPTR
   \   000027   E0           MOVX    A,@DPTR
   \   000028   7006         JNZ     ??cmd_map_dispatch_6
   \   00002A                ; Setup parameters for call to function GwCoord_SendErr
   \   00002A   7A10         MOV     R2,#0x10
   \   00002C   7920         MOV     R1,#0x20
   \   00002E   801B         SJMP    ??cmd_map_dispatch_7
   \                     ??cmd_map_dispatch_6:
   \   000030                ; Setup parameters for call to function zb_net_allow_join
   \   000030   8A82         MOV     DPL,R2
   \   000032   8B83         MOV     DPH,R3
   \   000034   A3           INC     DPTR
   \   000035   A3           INC     DPTR
   \   000036   E0           MOVX    A,@DPTR
   \   000037   F9           MOV     R1,A
   \   000038   12....       LCALL   ??zb_net_allow_join?relay
   \   00003B   8011         SJMP    ??cmd_map_dispatch_5
     95              case CMD_ZB_LIST_NODES: do_list_nodes(f);  break;
   \                     ??cmd_map_dispatch_2:
   \   00003D                ; Setup parameters for call to function do_list_nodes
   \   00003D   12....       LCALL   ??do_list_nodes?relay
   \   000040   800C         SJMP    ??cmd_map_dispatch_5
     96              case CMD_ZB_CMD:        do_cmd(f);         break;
   \                     ??cmd_map_dispatch_3:
   \   000042                ; Setup parameters for call to function do_cmd
   \   000042   12....       LCALL   ??do_cmd?relay
   \   000045   8007         SJMP    ??cmd_map_dispatch_5
     97              default:
     98                  GwCoord_SendErr(ERRC_UNKNOWN, f->cmd);
   \                     ??cmd_map_dispatch_4:
   \   000047                ; Setup parameters for call to function GwCoord_SendErr
   \   000047   E0           MOVX    A,@DPTR
   \   000048   FA           MOV     R2,A
   \   000049   797F         MOV     R1,#0x7f
   \                     ??cmd_map_dispatch_7:
   \   00004B   12....       LCALL   ??GwCoord_SendErr?relay
     99                  break;
    100              }
    101          }
   \                     ??cmd_map_dispatch_5:
   \   00004E   D083         POP     DPH
   \   000050   D082         POP     DPL
   \   000052   02....       LJMP    ?BRET

   \                                 In  segment XDATA_ROM_C, align 1
   \                     __Constant_3e8:
   \   000000   E8030000     DD 1000

   \                                 In  segment XDATA_ROM_C, align 1
   \                     __Constant_3e419:
   \   000000   19E40300     DD 255001

   \                                 In  segment BANK_RELAYS, align 1
   \                     ??do_list_nodes?relay:
   \   000000   12....       LCALL   ?BDISPATCH
   \   000003   ......       DC24    do_list_nodes

   \                                 In  segment BANK_RELAYS, align 1
   \                     ??do_cmd?relay:
   \   000000   12....       LCALL   ?BDISPATCH
   \   000003   ......       DC24    do_cmd

   \                                 In  segment BANK_RELAYS, align 1
   \                     ??cmd_map_dispatch?relay:
   \   000000   12....       LCALL   ?BDISPATCH
   \   000003   ......       DC24    cmd_map_dispatch

   Maximum stack usage in bytes:

     Function                 ISTACK PSTACK XSTACK
     --------                 ------ ------ ------
     cmd_map_dispatch             2      0      0
       -> GwCoord_SendFrame       4      0      0
       -> GwCoord_SendErr         4      0      0
       -> zb_net_allow_join       4      0      0
       -> do_list_nodes           4      0      0
       -> do_cmd                  4      0      0
       -> GwCoord_SendErr         4      0      0
     do_cmd                       0      0     15
       -> GwCoord_SendErr         0      0     30
       -> zb_net_send_onoff       0      0     30
       -> GwCoord_SendErr         0      0     30
       -> GwCoord_SendErr         0      0     30
     do_list_nodes                1      0     46
       -> zb_net_count            0      0     84
       -> GwCoord_SendFrame       0      0     84
       -> zb_net_at               0      0     84
       -> osal_GetSystemClock     0      0     84
       -> zb_net_get_status       0      0     92
       -> GwCoord_SendFrame       0      0     84


   Segment part sizes:

     Function/Label           Bytes
     --------------           -----
     do_list_nodes             421
     do_cmd                    198
     cmd_map_dispatch           85
     __Constant_3e8              4
     __Constant_3e419            4
     ??do_list_nodes?relay       6
     ??do_cmd?relay              6
     ??cmd_map_dispatch?relay    6

 
 704 bytes in segment BANKED_CODE
  18 bytes in segment BANK_RELAYS
   8 bytes in segment XDATA_ROM_C
 
 722 bytes of CODE  memory
   0 bytes of CONST memory (+ 8 bytes shared)

Errors: none
Warnings: 1
