///////////////////////////////////////////////////////////////////////////////
//                                                                            /
// IAR C/C++ Compiler V8.10.3.10338/W32 for 8051        18/Apr/2026  11:06:17 /
// Copyright 2004-2011 IAR Systems AB.                                        /
//                                                                            /
//    Core               =  plain                                             /
//    Code model         =  banked                                            /
//    Data model         =  large                                             /
//    Calling convention =  xdata reentrant                                   /
//    Constant location  =  data_rom                                          /
//    Dptr setup         =  1,16                                              /
//    Source file        =  D:\ZNJJ\ZStack-CC2530-2.5.1a\Projects\zstack\Samp /
//                          les\GwCoord\Source\gw_coord.c                     /
//    Command line       =  -f D:\ZNJJ\ZStack-CC2530-2.5.1a\Projects\zstack\S /
//                          amples\GwCoord\CC2530DB\..\..\..\Tools\CC2530DB\f /
//                          8wEndev.cfg (-DCPU32MHZ -DROOT=__near_func        /
//                          -DMAC_CFG_TX_DATA_MAX=3 -DMAC_CFG_TX_MAX=6        /
//                          -DMAC_CFG_RX_MAX=3) -f D:\ZNJJ\ZStack-CC2530-2.5. /
//                          1a\Projects\zstack\Samples\GwCoord\CC2530DB\..\.. /
//                          \..\Tools\CC2530DB\f8wConfig.cfg (-DZIGBEEPRO     /
//                          -DSECURE=0 -DZG_SECURE_DYNAMIC=0 -DREFLECTOR      /
//                          -DDEFAULT_CHANLIST=0x00000800                     /
//                          -DZDAPP_CONFIG_PAN_ID=0xFFFF                      /
//                          -DNWK_START_DELAY=100 -DEXTENDED_JOINING_RANDOM_M /
//                          ASK=0x007F -DBEACON_REQUEST_DELAY=100             /
//                          -DBEACON_REQ_DELAY_MASK=0x00FF                    /
//                          -DLINK_STATUS_JITTER_MASK=0x007F                  /
//                          -DROUTE_EXPIRY_TIME=30 -DAPSC_ACK_WAIT_DURATION_P /
//                          OLLED=3000 -DNWK_INDIRECT_MSG_TIMEOUT=7           /
//                          -DMAX_RREQ_ENTRIES=8 -DAPSC_MAX_FRAME_RETRIES=3   /
//                          -DNWK_MAX_DATA_RETRIES=2                          /
//                          -DMAX_POLL_FAILURE_RETRIES=2 -DMAX_BCAST=9        /
//                          -DAPS_MAX_GROUPS=16 -DMAX_RTG_ENTRIES=40          /
//                          -DNWK_MAX_BINDING_ENTRIES=4                       /
//                          -DMAX_BINDING_CLUSTER_IDS=4                       /
//                          "-DDEFAULT_KEY={0x01, 0x03, 0x05, 0x07, 0x09,     /
//                          0x0B, 0x0D, 0x0F, 0x00, 0x02, 0x04, 0x06, 0x08,   /
//                          0x0A, 0x0C, 0x0D}" -DMAC_MAX_FRAME_SIZE=116       /
//                          -DZDNWKMGR_MIN_TRANSMISSIONS=20 "-DCONST=const    /
//                          __code" -DGENERIC=__generic                       /
//                          -DRFD_RCVC_ALWAYS_ON=FALSE -DPOLL_RATE=1000       /
//                          -DQUEUED_POLL_RATE=100 -DRESPONSE_POLL_RATE=100)  /
//                          -DREJOIN_POLL_RATE=440 D:\ZNJJ\ZStack-CC2530-2.5. /
//                          1a\Projects\zstack\Samples\GwCoord\Source\gw_coor /
//                          d.c -D NWK_AUTO_POLL -D ZTOOL_P1 -D MT_TASK -D    /
//                          MT_SYS_FUNC -D MT_ZDO_FUNC -D                     /
//                          LCD_SUPPORTED=DEBUG -lC                           /
//                          D:\ZNJJ\ZStack-CC2530-2.5.1a\Projects\zstack\Samp /
//                          les\GwCoord\CC2530DB\EndDeviceEB\List\ -lA        /
//                          D:\ZNJJ\ZStack-CC2530-2.5.1a\Projects\zstack\Samp /
//                          les\GwCoord\CC2530DB\EndDeviceEB\List\            /
//                          --diag_suppress Pe001,Pa010 -o                    /
//                          D:\ZNJJ\ZStack-CC2530-2.5.1a\Projects\zstack\Samp /
//                          les\GwCoord\CC2530DB\EndDeviceEB\Obj\ -e          /
//                          --no_code_motion --debug --core=plain             /
//                          --dptr=16,1 --data_model=large                    /
//                          --code_model=banked --calling_convention=xdata_re /
//                          entrant --place_constants=data_rom                /
//                          --nr_virtual_regs 16 -I                           /
//                          D:\ZNJJ\ZStack-CC2530-2.5.1a\Projects\zstack\Samp /
//                          les\GwCoord\CC2530DB\ -I                          /
//                          D:\ZNJJ\ZStack-CC2530-2.5.1a\Projects\zstack\Samp /
//                          les\GwCoord\CC2530DB\..\Source\ -I                /
//                          D:\ZNJJ\ZStack-CC2530-2.5.1a\Projects\zstack\Samp /
//                          les\GwCoord\CC2530DB\..\..\..\ZMain\TI2530DB\ -I  /
//                          D:\ZNJJ\ZStack-CC2530-2.5.1a\Projects\zstack\Samp /
//                          les\GwCoord\CC2530DB\..\..\..\..\..\Components\ha /
//                          l\include\ -I D:\ZNJJ\ZStack-CC2530-2.5.1a\Projec /
//                          ts\zstack\Samples\GwCoord\CC2530DB\..\..\..\..\.. /
//                          \Components\hal\target\CC2530EB\ -I               /
//                          D:\ZNJJ\ZStack-CC2530-2.5.1a\Projects\zstack\Samp /
//                          les\GwCoord\CC2530DB\..\..\..\..\..\Components\ma /
//                          c\include\ -I D:\ZNJJ\ZStack-CC2530-2.5.1a\Projec /
//                          ts\zstack\Samples\GwCoord\CC2530DB\..\..\..\..\.. /
//                          \Components\mac\high_level\ -I                    /
//                          D:\ZNJJ\ZStack-CC2530-2.5.1a\Projects\zstack\Samp /
//                          les\GwCoord\CC2530DB\..\..\..\..\..\Components\ma /
//                          c\low_level\srf04\ -I D:\ZNJJ\ZStack-CC2530-2.5.1 /
//                          a\Projects\zstack\Samples\GwCoord\CC2530DB\..\..\ /
//                          ..\..\..\Components\mac\low_level\srf04\single_ch /
//                          ip\ -I D:\ZNJJ\ZStack-CC2530-2.5.1a\Projects\zsta /
//                          ck\Samples\GwCoord\CC2530DB\..\..\..\..\..\Compon /
//                          ents\mt\ -I D:\ZNJJ\ZStack-CC2530-2.5.1a\Projects /
//                          \zstack\Samples\GwCoord\CC2530DB\..\..\..\..\..\C /
//                          omponents\osal\include\ -I                        /
//                          D:\ZNJJ\ZStack-CC2530-2.5.1a\Projects\zstack\Samp /
//                          les\GwCoord\CC2530DB\..\..\..\..\..\Components\se /
//                          rvices\saddr\ -I D:\ZNJJ\ZStack-CC2530-2.5.1a\Pro /
//                          jects\zstack\Samples\GwCoord\CC2530DB\..\..\..\.. /
//                          \..\Components\services\sdata\ -I                 /
//                          D:\ZNJJ\ZStack-CC2530-2.5.1a\Projects\zstack\Samp /
//                          les\GwCoord\CC2530DB\..\..\..\..\..\Components\st /
//                          ack\af\ -I D:\ZNJJ\ZStack-CC2530-2.5.1a\Projects\ /
//                          zstack\Samples\GwCoord\CC2530DB\..\..\..\..\..\Co /
//                          mponents\stack\nwk\ -I D:\ZNJJ\ZStack-CC2530-2.5. /
//                          1a\Projects\zstack\Samples\GwCoord\CC2530DB\..\.. /
//                          \..\..\..\Components\stack\sapi\ -I               /
//                          D:\ZNJJ\ZStack-CC2530-2.5.1a\Projects\zstack\Samp /
//                          les\GwCoord\CC2530DB\..\..\..\..\..\Components\st /
//                          ack\sec\ -I D:\ZNJJ\ZStack-CC2530-2.5.1a\Projects /
//                          \zstack\Samples\GwCoord\CC2530DB\..\..\..\..\..\C /
//                          omponents\stack\sys\ -I                           /
//                          D:\ZNJJ\ZStack-CC2530-2.5.1a\Projects\zstack\Samp /
//                          les\GwCoord\CC2530DB\..\..\..\..\..\Components\st /
//                          ack\zdo\ -I D:\ZNJJ\ZStack-CC2530-2.5.1a\Projects /
//                          \zstack\Samples\GwCoord\CC2530DB\..\..\..\..\..\C /
//                          omponents\zmac\ -I D:\ZNJJ\ZStack-CC2530-2.5.1a\P /
//                          rojects\zstack\Samples\GwCoord\CC2530DB\..\..\..\ /
//                          ..\..\Components\zmac\f8w\ -Ohz                   /
//                          --require_prototypes                              /
//    List file          =  D:\ZNJJ\ZStack-CC2530-2.5.1a\Projects\zstack\Samp /
//                          les\GwCoord\CC2530DB\EndDeviceEB\List\gw_coord.s5 /
//                          1                                                 /
//                                                                            /
//                                                                            /
///////////////////////////////////////////////////////////////////////////////

        NAME gw_coord

        RTMODEL "__SystemLibrary", "CLib"
        RTMODEL "__calling_convention", "xdata_reentrant"
        RTMODEL "__code_model", "banked"
        RTMODEL "__core", "plain"
        RTMODEL "__data_model", "large"
        RTMODEL "__dptr_size", "16"
        RTMODEL "__extended_stack", "disabled"
        RTMODEL "__location_for_constants", "data"
        RTMODEL "__number_of_dptrs", "1"
        RTMODEL "__rt_version", "1"

        RSEG DOVERLAY:DATA:NOROOT(0)
        RSEG IOVERLAY:IDATA:NOROOT(0)
        RSEG ISTACK:IDATA:NOROOT(0)
        RSEG PSTACK:XDATA:NOROOT(0)
        RSEG XSTACK:XDATA:NOROOT(0)

        EXTERN ?ALLOC_XSTACK8
        EXTERN ?BANKED_ENTER_XDATA
        EXTERN ?BANKED_LEAVE_XDATA
        EXTERN ?BDISPATCH
        EXTERN ?DEALLOC_XSTACK8
        EXTERN ?PUSH_XSTACK_I_ONE
        EXTERN ?PUSH_XSTACK_I_THREE
        EXTERN ?PUSH_XSTACK_I_TWO
        EXTERN ?V0
        EXTERN ?XSP
        EXTERN ?XSTACK_DISP0_8
        EXTERN __INIT_XDATA_I
        EXTERN __INIT_XDATA_Z

        PUBLIC ??GwCoord_Init?relay
        FUNCTION ??GwCoord_Init?relay,0203H
        PUBLIC ??GwCoord_OnFrame?relay
        FUNCTION ??GwCoord_OnFrame?relay,0203H
        PUBLIC ??GwCoord_ProcessEvent?relay
        FUNCTION ??GwCoord_ProcessEvent?relay,0203H
        PUBLIC ??GwCoord_SendErr?relay
        FUNCTION ??GwCoord_SendErr?relay,0203H
        PUBLIC ??GwCoord_SendFrame?relay
        FUNCTION ??GwCoord_SendFrame?relay,0203H
        FUNCTION ??af_to_zb_report?relay,0203H
        PUBLIC GwCoord_Init
        FUNCTION GwCoord_Init,021203H
        ARGFRAME XSTACK, 0, STACK
        LOCFRAME XSTACK, 9, STACK
        PUBLIC GwCoord_OnFrame
        FUNCTION GwCoord_OnFrame,021203H
        ARGFRAME XSTACK, 0, STACK
        LOCFRAME XSTACK, 9, STACK
        PUBLIC GwCoord_ProcessEvent
        FUNCTION GwCoord_ProcessEvent,021203H
        ARGFRAME XSTACK, 0, STACK
        LOCFRAME XSTACK, 12, STACK
        PUBLIC GwCoord_SendErr
        FUNCTION GwCoord_SendErr,021203H
        ARGFRAME XSTACK, 0, STACK
        LOCFRAME ISTACK, 1, STACK
        LOCFRAME XSTACK, 11, STACK
        PUBLIC GwCoord_SendFrame
        FUNCTION GwCoord_SendFrame,021203H
        ARGFRAME XSTACK, 80, STACK
        ARGFRAME IOVERLAY, 0, STATIC
        ARGFRAME DOVERLAY, 0, STATIC
        LOCFRAME XSTACK, 14, STACK
        PUBLIC GwCoord_TaskID
        FUNCTION af_to_zb_report,021203H
        ARGFRAME XSTACK, 12, STACK
        ARGFRAME IOVERLAY, 0, STATIC
        ARGFRAME DOVERLAY, 0, STATIC
        LOCFRAME ISTACK, 1, STACK
        LOCFRAME XSTACK, 83, STACK
        
        CFI Names cfiNames0
        CFI StackFrame CFA_SP SP IDATA
        CFI StackFrame CFA_PSP16 PSP16 XDATA
        CFI StackFrame CFA_XSP16 XSP16 XDATA
        CFI StaticOverlayFrame CFA_IOVERLAY IOVERLAY
        CFI StaticOverlayFrame CFA_DOVERLAY DOVERLAY
        CFI Resource `PSW.CY`:1, `B.BR0`:1, `B.BR1`:1, `B.BR2`:1, `B.BR3`:1
        CFI Resource `B.BR4`:1, `B.BR5`:1, `B.BR6`:1, `B.BR7`:1, `VB.BR8`:1
        CFI Resource `VB.BR9`:1, `VB.BR10`:1, `VB.BR11`:1, `VB.BR12`:1
        CFI Resource `VB.BR13`:1, `VB.BR14`:1, `VB.BR15`:1, VB:8, B:8, A:8
        CFI Resource PSW:8, DPL0:8, DPH0:8, R0:8, R1:8, R2:8, R3:8, R4:8, R5:8
        CFI Resource R6:8, R7:8, V0:8, V1:8, V2:8, V3:8, V4:8, V5:8, V6:8, V7:8
        CFI Resource V8:8, V9:8, V10:8, V11:8, V12:8, V13:8, V14:8, V15:8, SP:8
        CFI Resource PSPH:8, PSPL:8, PSP16:16, XSPH:8, XSPL:8, XSP16:16
        CFI VirtualResource ?RET:24
        CFI Resource ?BRET_EXT:8
        CFI VirtualResource ?RET_HIGH:8, ?RET_LOW:8
        CFI ResourceParts PSP16 PSPH, PSPL
        CFI ResourceParts XSP16 XSPH, XSPL
        CFI ResourceParts ?RET ?BRET_EXT, ?RET_HIGH, ?RET_LOW
        CFI EndNames cfiNames0
        
        CFI Common cfiCommon0 Using cfiNames0
        CFI CodeAlign 1
        CFI DataAlign -1
        CFI ReturnAddress ?RET CODE
        CFI CFA_DOVERLAY Used
        CFI CFA_IOVERLAY Used
        CFI CFA_SP SP+-3
        CFI CFA_PSP16 PSP16+0
        CFI CFA_XSP16 XSP16+0
        CFI `PSW.CY` SameValue
        CFI `B.BR0` SameValue
        CFI `B.BR1` SameValue
        CFI `B.BR2` SameValue
        CFI `B.BR3` SameValue
        CFI `B.BR4` SameValue
        CFI `B.BR5` SameValue
        CFI `B.BR6` SameValue
        CFI `B.BR7` SameValue
        CFI `VB.BR8` SameValue
        CFI `VB.BR9` SameValue
        CFI `VB.BR10` SameValue
        CFI `VB.BR11` SameValue
        CFI `VB.BR12` SameValue
        CFI `VB.BR13` SameValue
        CFI `VB.BR14` SameValue
        CFI `VB.BR15` SameValue
        CFI VB SameValue
        CFI B Undefined
        CFI A Undefined
        CFI PSW SameValue
        CFI DPL0 SameValue
        CFI DPH0 SameValue
        CFI R0 Undefined
        CFI R1 Undefined
        CFI R2 Undefined
        CFI R3 Undefined
        CFI R4 Undefined
        CFI R5 Undefined
        CFI R6 SameValue
        CFI R7 SameValue
        CFI V0 SameValue
        CFI V1 SameValue
        CFI V2 SameValue
        CFI V3 SameValue
        CFI V4 SameValue
        CFI V5 SameValue
        CFI V6 SameValue
        CFI V7 SameValue
        CFI V8 SameValue
        CFI V9 SameValue
        CFI V10 SameValue
        CFI V11 SameValue
        CFI V12 SameValue
        CFI V13 SameValue
        CFI V14 SameValue
        CFI V15 SameValue
        CFI PSPH Undefined
        CFI PSPL Undefined
        CFI XSPH Undefined
        CFI XSPL Undefined
        CFI ?RET Concat
        CFI ?BRET_EXT Frame(CFA_SP, 3)
        CFI ?RET_HIGH Frame(CFA_SP, 2)
        CFI ?RET_LOW Frame(CFA_SP, 1)
        CFI EndCommon cfiCommon0
        
        
        CFI Common cfiCommon1 Using cfiNames0
        CFI CodeAlign 1
        CFI DataAlign -1
        CFI ReturnAddress ?RET CODE
        CFI CFA_DOVERLAY Used
        CFI CFA_IOVERLAY Used
        CFI CFA_SP SP+-2
        CFI CFA_PSP16 PSP16+0
        CFI CFA_XSP16 XSP16+0
        CFI `PSW.CY` SameValue
        CFI `B.BR0` SameValue
        CFI `B.BR1` SameValue
        CFI `B.BR2` SameValue
        CFI `B.BR3` SameValue
        CFI `B.BR4` SameValue
        CFI `B.BR5` SameValue
        CFI `B.BR6` SameValue
        CFI `B.BR7` SameValue
        CFI `VB.BR8` SameValue
        CFI `VB.BR9` SameValue
        CFI `VB.BR10` SameValue
        CFI `VB.BR11` SameValue
        CFI `VB.BR12` SameValue
        CFI `VB.BR13` SameValue
        CFI `VB.BR14` SameValue
        CFI `VB.BR15` SameValue
        CFI VB SameValue
        CFI B SameValue
        CFI A SameValue
        CFI PSW SameValue
        CFI DPL0 SameValue
        CFI DPH0 SameValue
        CFI R0 SameValue
        CFI R1 SameValue
        CFI R2 SameValue
        CFI R3 SameValue
        CFI R4 SameValue
        CFI R5 SameValue
        CFI R6 SameValue
        CFI R7 SameValue
        CFI V0 SameValue
        CFI V1 SameValue
        CFI V2 SameValue
        CFI V3 SameValue
        CFI V4 SameValue
        CFI V5 SameValue
        CFI V6 SameValue
        CFI V7 SameValue
        CFI V8 SameValue
        CFI V9 SameValue
        CFI V10 SameValue
        CFI V11 SameValue
        CFI V12 SameValue
        CFI V13 SameValue
        CFI V14 SameValue
        CFI V15 SameValue
        CFI PSPH Undefined
        CFI PSPL Undefined
        CFI XSPH Undefined
        CFI XSPL Undefined
        CFI ?RET Concat
        CFI ?BRET_EXT SameValue
        CFI ?RET_HIGH Frame(CFA_SP, 2)
        CFI ?RET_LOW Frame(CFA_SP, 1)
        CFI EndCommon cfiCommon1
        
frame_encode        SYMBOL "frame_encode"
uart_link_tx        SYMBOL "uart_link_tx"
HalLedSet           SYMBOL "HalLedSet"
cmd_map_dispatch    SYMBOL "cmd_map_dispatch"
afRegister          SYMBOL "afRegister"
ZDO_RegisterForZDOMsg SYMBOL "ZDO_RegisterForZDOMsg"
zb_net_init         SYMBOL "zb_net_init"
uart_link_init      SYMBOL "uart_link_init"
osal_start_reload_timer SYMBOL "osal_start_reload_timer"
uart_link_drain     SYMBOL "uart_link_drain"
osal_msg_deallocate SYMBOL "osal_msg_deallocate"
osal_msg_receive    SYMBOL "osal_msg_receive"
zb_net_on_state     SYMBOL "zb_net_on_state"
osal_GetSystemClock SYMBOL "osal_GetSystemClock"
zb_net_tick         SYMBOL "zb_net_tick"
osal_memcpy         SYMBOL "osal_memcpy"
zb_net_touch        SYMBOL "zb_net_touch"
??HalLedSet?relay   SYMBOL "?relay", HalLedSet
??ZDO_RegisterForZDOMsg?relay SYMBOL "?relay", ZDO_RegisterForZDOMsg
??afRegister?relay  SYMBOL "?relay", afRegister
??cmd_map_dispatch?relay SYMBOL "?relay", cmd_map_dispatch
??frame_encode?relay SYMBOL "?relay", frame_encode
??osal_GetSystemClock?relay SYMBOL "?relay", osal_GetSystemClock
??osal_memcpy?relay SYMBOL "?relay", osal_memcpy
??osal_msg_deallocate?relay SYMBOL "?relay", osal_msg_deallocate
??osal_msg_receive?relay SYMBOL "?relay", osal_msg_receive
??osal_start_reload_timer?relay SYMBOL "?relay", osal_start_reload_timer
??uart_link_drain?relay SYMBOL "?relay", uart_link_drain
??uart_link_init?relay SYMBOL "?relay", uart_link_init
??uart_link_tx?relay SYMBOL "?relay", uart_link_tx
??zb_net_init?relay SYMBOL "?relay", zb_net_init
??zb_net_on_state?relay SYMBOL "?relay", zb_net_on_state
??zb_net_tick?relay SYMBOL "?relay", zb_net_tick
??zb_net_touch?relay SYMBOL "?relay", zb_net_touch
GwCoord_Init        SYMBOL "GwCoord_Init"
??GwCoord_Init?relay SYMBOL "?relay", GwCoord_Init
GwCoord_OnFrame     SYMBOL "GwCoord_OnFrame"
??GwCoord_OnFrame?relay SYMBOL "?relay", GwCoord_OnFrame
GwCoord_ProcessEvent SYMBOL "GwCoord_ProcessEvent"
??GwCoord_ProcessEvent?relay SYMBOL "?relay", GwCoord_ProcessEvent
GwCoord_SendErr     SYMBOL "GwCoord_SendErr"
??GwCoord_SendErr?relay SYMBOL "?relay", GwCoord_SendErr
GwCoord_SendFrame   SYMBOL "GwCoord_SendFrame"
??GwCoord_SendFrame?relay SYMBOL "?relay", GwCoord_SendFrame

        EXTERN frame_encode
        FUNCTION frame_encode,0202H
        ARGFRAME ISTACK, 0, STACK
        ARGFRAME PSTACK, 0, STACK
        ARGFRAME XSTACK, 14, STACK
        ARGFRAME IOVERLAY, 0, STATIC
        ARGFRAME DOVERLAY, 0, STATIC
        EXTERN uart_link_tx
        FUNCTION uart_link_tx,0202H
        ARGFRAME ISTACK, 0, STACK
        ARGFRAME PSTACK, 0, STACK
        ARGFRAME XSTACK, 10, STACK
        ARGFRAME IOVERLAY, 0, STATIC
        ARGFRAME DOVERLAY, 0, STATIC
        EXTERN HalLedSet
        FUNCTION HalLedSet,0202H
        ARGFRAME ISTACK, 0, STACK
        ARGFRAME PSTACK, 0, STACK
        ARGFRAME XSTACK, 12, STACK
        ARGFRAME IOVERLAY, 0, STATIC
        ARGFRAME DOVERLAY, 0, STATIC
        EXTERN cmd_map_dispatch
        FUNCTION cmd_map_dispatch,0202H
        ARGFRAME ISTACK, 0, STACK
        ARGFRAME PSTACK, 0, STACK
        ARGFRAME XSTACK, 9, STACK
        ARGFRAME IOVERLAY, 0, STATIC
        ARGFRAME DOVERLAY, 0, STATIC
        EXTERN afRegister
        FUNCTION afRegister,0202H
        ARGFRAME ISTACK, 0, STACK
        ARGFRAME PSTACK, 0, STACK
        ARGFRAME XSTACK, 9, STACK
        ARGFRAME IOVERLAY, 0, STATIC
        ARGFRAME DOVERLAY, 0, STATIC
        EXTERN ZDO_RegisterForZDOMsg
        FUNCTION ZDO_RegisterForZDOMsg,0202H
        ARGFRAME ISTACK, 0, STACK
        ARGFRAME PSTACK, 0, STACK
        ARGFRAME XSTACK, 9, STACK
        ARGFRAME IOVERLAY, 0, STATIC
        ARGFRAME DOVERLAY, 0, STATIC
        EXTERN zb_net_init
        FUNCTION zb_net_init,0202H
        ARGFRAME ISTACK, 0, STACK
        ARGFRAME PSTACK, 0, STACK
        ARGFRAME XSTACK, 9, STACK
        ARGFRAME IOVERLAY, 0, STATIC
        ARGFRAME DOVERLAY, 0, STATIC
        EXTERN uart_link_init
        FUNCTION uart_link_init,0202H
        ARGFRAME ISTACK, 0, STACK
        ARGFRAME PSTACK, 0, STACK
        ARGFRAME XSTACK, 9, STACK
        ARGFRAME IOVERLAY, 0, STATIC
        ARGFRAME DOVERLAY, 0, STATIC
        EXTERN osal_start_reload_timer
        FUNCTION osal_start_reload_timer,0202H
        ARGFRAME ISTACK, 0, STACK
        ARGFRAME PSTACK, 0, STACK
        ARGFRAME XSTACK, 9, STACK
        ARGFRAME IOVERLAY, 0, STATIC
        ARGFRAME DOVERLAY, 0, STATIC
        EXTERN uart_link_drain
        FUNCTION uart_link_drain,0202H
        ARGFRAME ISTACK, 0, STACK
        ARGFRAME PSTACK, 0, STACK
        ARGFRAME XSTACK, 12, STACK
        ARGFRAME IOVERLAY, 0, STATIC
        ARGFRAME DOVERLAY, 0, STATIC
        EXTERN osal_msg_deallocate
        FUNCTION osal_msg_deallocate,0202H
        ARGFRAME ISTACK, 0, STACK
        ARGFRAME PSTACK, 0, STACK
        ARGFRAME XSTACK, 12, STACK
        ARGFRAME IOVERLAY, 0, STATIC
        ARGFRAME DOVERLAY, 0, STATIC
        EXTERN osal_msg_receive
        FUNCTION osal_msg_receive,0202H
        ARGFRAME ISTACK, 0, STACK
        ARGFRAME PSTACK, 0, STACK
        ARGFRAME XSTACK, 12, STACK
        ARGFRAME IOVERLAY, 0, STATIC
        ARGFRAME DOVERLAY, 0, STATIC
        EXTERN zb_net_on_state
        FUNCTION zb_net_on_state,0202H
        ARGFRAME ISTACK, 0, STACK
        ARGFRAME PSTACK, 0, STACK
        ARGFRAME XSTACK, 12, STACK
        ARGFRAME IOVERLAY, 0, STATIC
        ARGFRAME DOVERLAY, 0, STATIC
        EXTERN osal_GetSystemClock
        FUNCTION osal_GetSystemClock,0202H
        ARGFRAME ISTACK, 0, STACK
        ARGFRAME PSTACK, 0, STACK
        ARGFRAME XSTACK, 12, STACK
        ARGFRAME IOVERLAY, 0, STATIC
        ARGFRAME DOVERLAY, 0, STATIC
        EXTERN zb_net_tick
        FUNCTION zb_net_tick,0202H
        ARGFRAME ISTACK, 0, STACK
        ARGFRAME PSTACK, 0, STACK
        ARGFRAME XSTACK, 12, STACK
        ARGFRAME IOVERLAY, 0, STATIC
        ARGFRAME DOVERLAY, 0, STATIC
        EXTERN osal_memcpy
        FUNCTION osal_memcpy,0202H
        ARGFRAME ISTACK, 0, STACK
        ARGFRAME PSTACK, 0, STACK
        ARGFRAME XSTACK, 83, STACK
        ARGFRAME IOVERLAY, 0, STATIC
        ARGFRAME DOVERLAY, 0, STATIC
        EXTERN zb_net_touch
        FUNCTION zb_net_touch,0202H
        ARGFRAME ISTACK, 0, STACK
        ARGFRAME PSTACK, 0, STACK
        ARGFRAME XSTACK, 81, STACK
        ARGFRAME IOVERLAY, 0, STATIC
        ARGFRAME DOVERLAY, 0, STATIC
        EXTERN ??HalLedSet?relay
        FUNCTION ??HalLedSet?relay,00H
        EXTERN ??ZDO_RegisterForZDOMsg?relay
        FUNCTION ??ZDO_RegisterForZDOMsg?relay,00H
        EXTERN ??afRegister?relay
        FUNCTION ??afRegister?relay,00H
        EXTERN ??cmd_map_dispatch?relay
        FUNCTION ??cmd_map_dispatch?relay,00H
        EXTERN ??frame_encode?relay
        FUNCTION ??frame_encode?relay,00H
        EXTERN ??osal_GetSystemClock?relay
        FUNCTION ??osal_GetSystemClock?relay,00H
        EXTERN ??osal_memcpy?relay
        FUNCTION ??osal_memcpy?relay,00H
        EXTERN ??osal_msg_deallocate?relay
        FUNCTION ??osal_msg_deallocate?relay,00H
        EXTERN ??osal_msg_receive?relay
        FUNCTION ??osal_msg_receive?relay,00H
        EXTERN ??osal_start_reload_timer?relay
        FUNCTION ??osal_start_reload_timer?relay,00H
        EXTERN ??uart_link_drain?relay
        FUNCTION ??uart_link_drain?relay,00H
        EXTERN ??uart_link_init?relay
        FUNCTION ??uart_link_init?relay,00H
        EXTERN ??uart_link_tx?relay
        FUNCTION ??uart_link_tx?relay,00H
        EXTERN ??zb_net_init?relay
        FUNCTION ??zb_net_init?relay,00H
        EXTERN ??zb_net_on_state?relay
        FUNCTION ??zb_net_on_state?relay,00H
        EXTERN ??zb_net_tick?relay
        FUNCTION ??zb_net_tick?relay,00H
        EXTERN ??zb_net_touch?relay
        FUNCTION ??zb_net_touch?relay,00H
        EXTERN _NIB
        EXTERN devState

// D:\ZNJJ\ZStack-CC2530-2.5.1a\Projects\zstack\Samples\GwCoord\Source\gw_coord.c
//    1 /*
//    2  * GwCoord task: AF endpoint registration, OSAL event handling, and
//    3  * conversion from incoming ZCL reports to the UART frame protocol
//    4  * consumed by the STM32 gateway.
//    5  */
//    6 
//    7 #include "gw_coord.h"
//    8 #include "uart_link.h"
//    9 #include "cmd_map.h"
//   10 #include "zb_net.h"
//   11 #include "frame.h"
//   12 
//   13 #include "OSAL.h"
//   14 #include "OSAL_Timers.h"
//   15 #include "ZComDef.h"
//   16 #include "AF.h"
//   17 #include "ZDApp.h"
//   18 #include "ZDProfile.h"
//   19 #include "ZGlobals.h"
//   20 #include "hal_led.h"
//   21 

        RSEG XDATA_I:XDATA:NOROOT(0)
//   22 uint8 GwCoord_TaskID = 0xFF;
GwCoord_TaskID:
        DATA8
        DS 1
        REQUIRE `?<Initializer for GwCoord_TaskID>`
        REQUIRE __INIT_XDATA_I
//   23 

        RSEG XDATA_Z:XDATA:NOROOT(0)
        DATA8
//   24 static endPointDesc_t s_epDesc;
s_epDesc:
        DS 6
        REQUIRE __INIT_XDATA_Z

        RSEG XDATA_Z:XDATA:NOROOT(0)
        DATA8
//   25 static SimpleDescriptionFormat_t s_simpleDesc;
s_simpleDesc:
        DS 12
        REQUIRE __INIT_XDATA_Z

        RSEG XDATA_I:XDATA:NOROOT(0)
//   26 static cId_t XDATA_QUAL s_inClusters[GWCOORD_CLUSTERS_MAX] = {
s_inClusters:
        DATA8
        DS 8
        REQUIRE `?<Initializer for s_inClusters>`
        REQUIRE __INIT_XDATA_I
//   27     ZCL_CLU_TEMP, ZCL_CLU_HUM, ZCL_CLU_LUX, ZCL_CLU_ONOFF
//   28 };

        RSEG XDATA_I:XDATA:NOROOT(0)
//   29 static cId_t XDATA_QUAL s_outClusters[1] = { ZCL_CLU_ONOFF };
s_outClusters:
        DATA16
        DS 2
        REQUIRE `?<Initializer for s_outClusters>`
        REQUIRE __INIT_XDATA_I
//   30 

        RSEG XDATA_Z:XDATA:NOROOT(0)
        DATA8
//   31 static uint8 s_tx_buf[FRAME_MAX];
s_tx_buf:
        DS 69
        REQUIRE __INIT_XDATA_Z
//   32 
//   33 static void on_af_incoming(afIncomingMSGPacket_t *pkt);
//   34 static void on_zdo_state_change(uint8 state);
//   35 static void af_to_zb_report(afIncomingMSGPacket_t *pkt);
//   36 static uint8 role_from_cluster(uint16 cluster);
//   37 

        RSEG BANKED_CODE:CODE:NOROOT(0)
//   38 int8 GwCoord_SendFrame(uint8 cmd, const uint8 *payload, uint8 plen)
GwCoord_SendFrame:
        CFI Block cfiBlock0 Using cfiCommon0
        CFI Function GwCoord_SendFrame
        CODE
//   39 {
        FUNCALL GwCoord_SendFrame, frame_encode
        LOCFRAME ISTACK, 0, STACK
        LOCFRAME PSTACK, 0, STACK
        LOCFRAME XSTACK, 14, STACK
        LOCFRAME IOVERLAY, 0, STATIC
        LOCFRAME DOVERLAY, 0, STATIC
        ARGFRAME ISTACK, 0, STACK
        ARGFRAME PSTACK, 0, STACK
        ARGFRAME XSTACK, 14, STACK
        ARGFRAME IOVERLAY, 0, STATIC
        ARGFRAME DOVERLAY, 0, STATIC
        FUNCALL GwCoord_SendFrame, uart_link_tx
        LOCFRAME ISTACK, 0, STACK
        LOCFRAME PSTACK, 0, STACK
        LOCFRAME XSTACK, 10, STACK
        LOCFRAME IOVERLAY, 0, STATIC
        LOCFRAME DOVERLAY, 0, STATIC
        ARGFRAME ISTACK, 0, STACK
        ARGFRAME PSTACK, 0, STACK
        ARGFRAME XSTACK, 10, STACK
        ARGFRAME IOVERLAY, 0, STATIC
        ARGFRAME DOVERLAY, 0, STATIC
        MOV     A,#-0xa
        LCALL   ?BANKED_ENTER_XDATA
        CFI DPH0 load(1, XDATA, add(CFA_XSP16, literal(-1)))
        CFI DPL0 load(1, XDATA, add(CFA_XSP16, literal(-2)))
        CFI ?BRET_EXT load(1, XDATA, add(CFA_XSP16, literal(-3)))
        CFI ?RET_HIGH load(1, XDATA, add(CFA_XSP16, literal(-4)))
        CFI ?RET_LOW load(1, XDATA, add(CFA_XSP16, literal(-5)))
        CFI R7 load(1, XDATA, add(CFA_XSP16, literal(-6)))
        CFI V1 load(1, XDATA, add(CFA_XSP16, literal(-7)))
        CFI V0 load(1, XDATA, add(CFA_XSP16, literal(-8)))
        CFI VB load(1, XDATA, add(CFA_XSP16, literal(-9)))
        CFI R6 load(1, XDATA, add(CFA_XSP16, literal(-10)))
        CFI CFA_SP SP+0
        CFI CFA_XSP16 add(XSP16, 10)
        ; Saved register size: 10
        ; Auto size: 0
//   40     int16 n;
//   41 
//   42     n = frame_encode(cmd, payload, plen, s_tx_buf, sizeof(s_tx_buf));
        ; Setup parameters for call to function frame_encode
        MOV     ?V0 + 0,#0x45
        MOV     ?V0 + 1,#0x0
        MOV     R0,#?V0 + 0
        LCALL   ?PUSH_XSTACK_I_TWO
        CFI CFA_XSP16 add(XSP16, 12)
        MOV     ?V0 + 0,#s_tx_buf & 0xff
        MOV     ?V0 + 1,#(s_tx_buf >> 8) & 0xff
        MOV     R0,#?V0 + 0
        LCALL   ?PUSH_XSTACK_I_TWO
        CFI CFA_XSP16 add(XSP16, 14)
        LCALL   ??frame_encode?relay
        MOV     A,#0x4
        LCALL   ?DEALLOC_XSTACK8
        CFI CFA_XSP16 add(XSP16, 10)
        MOV     ?V0 + 0,R2
        MOV     ?V0 + 1,R3
        MOV     R4,?V0 + 0
        MOV     R5,?V0 + 1
//   43     if (n <= 0) {
        CLR     C
        MOV     A,R4
        SUBB    A,#0x1
        MOV     A,R5
        SUBB    A,#0x0
        MOV     C,0xD0 /* PSW */.2
        XRL     A,PSW
        RLC     A
        JNC     ??GwCoord_SendFrame_0
//   44         return (int8)n;
        MOV     A,R4
        MOV     R1,A
        SJMP    ??GwCoord_SendFrame_1
//   45     }
//   46     return uart_link_tx(s_tx_buf, (uint16)n);
??GwCoord_SendFrame_0:
        ; Setup parameters for call to function uart_link_tx
        MOV     R2,#s_tx_buf & 0xff
        MOV     R3,#(s_tx_buf >> 8) & 0xff
        LCALL   ??uart_link_tx?relay
??GwCoord_SendFrame_1:
        MOV     R7,#0x2
        LJMP    ?BANKED_LEAVE_XDATA
        CFI EndBlock cfiBlock0
//   47 }
//   48 

        RSEG BANKED_CODE:CODE:NOROOT(0)
//   49 void GwCoord_SendErr(uint8 code, uint8 ctx)
GwCoord_SendErr:
        CFI Block cfiBlock1 Using cfiCommon0
        CFI Function GwCoord_SendErr
        CODE
//   50 {
        FUNCALL GwCoord_SendErr, GwCoord_SendFrame
        LOCFRAME ISTACK, 0, STACK
        LOCFRAME PSTACK, 0, STACK
        LOCFRAME XSTACK, 11, STACK
        LOCFRAME IOVERLAY, 0, STATIC
        LOCFRAME DOVERLAY, 0, STATIC
        ARGFRAME ISTACK, 0, STACK
        ARGFRAME PSTACK, 0, STACK
        ARGFRAME XSTACK, 11, STACK
        ARGFRAME IOVERLAY, 0, STATIC
        ARGFRAME DOVERLAY, 0, STATIC
        MOV     A,#-0x9
        LCALL   ?BANKED_ENTER_XDATA
        CFI DPH0 load(1, XDATA, add(CFA_XSP16, literal(-1)))
        CFI DPL0 load(1, XDATA, add(CFA_XSP16, literal(-2)))
        CFI ?BRET_EXT load(1, XDATA, add(CFA_XSP16, literal(-3)))
        CFI ?RET_HIGH load(1, XDATA, add(CFA_XSP16, literal(-4)))
        CFI ?RET_LOW load(1, XDATA, add(CFA_XSP16, literal(-5)))
        CFI R7 load(1, XDATA, add(CFA_XSP16, literal(-6)))
        CFI V0 load(1, XDATA, add(CFA_XSP16, literal(-7)))
        CFI VB load(1, XDATA, add(CFA_XSP16, literal(-8)))
        CFI R6 load(1, XDATA, add(CFA_XSP16, literal(-9)))
        CFI CFA_SP SP+0
        CFI CFA_XSP16 add(XSP16, 9)
        ; Saved register size: 9
        ; Auto size: 2
        MOV     A,#-0x2
        LCALL   ?ALLOC_XSTACK8
        CFI CFA_XSP16 add(XSP16, 11)
        MOV     A,R1
//   51     uint8 p[2];
//   52 
//   53     p[0] = code;
        MOV     DPL,?XSP + 0
        MOV     DPH,?XSP + 1
        MOVX    @DPTR,A
//   54     p[1] = ctx;
        MOV     A,#0x1
        LCALL   ?XSTACK_DISP0_8
        MOV     A,R2
        MOVX    @DPTR,A
//   55     (void)GwCoord_SendFrame(CMD_ZB_ERR, p, 2);
        ; Setup parameters for call to function GwCoord_SendFrame
        MOV     R4,#0x2
        MOV     DPL,?XSP + 0
        MOV     DPH,?XSP + 1
        MOV     R2,DPL
        MOV     R3,DPH
        MOV     R1,#0x7f
        LCALL   ??GwCoord_SendFrame?relay
//   56 }
        MOV     A,#0x2
        LCALL   ?DEALLOC_XSTACK8
        CFI EndBlock cfiBlock1
        REQUIRE ?Subroutine0
        ; // Fall through to label ?Subroutine0

        RSEG BANKED_CODE:CODE:NOROOT(0)
?Subroutine0:
        CFI Block cfiBlock2 Using cfiCommon0
        CFI NoFunction
        CFI CFA_SP SP+0
        CFI CFA_XSP16 add(XSP16, 9)
        CFI VB load(1, XDATA, add(CFA_XSP16, literal(-8)))
        CFI DPL0 load(1, XDATA, add(CFA_XSP16, literal(-2)))
        CFI DPH0 load(1, XDATA, add(CFA_XSP16, literal(-1)))
        CFI R6 load(1, XDATA, add(CFA_XSP16, literal(-9)))
        CFI R7 load(1, XDATA, add(CFA_XSP16, literal(-6)))
        CFI V0 load(1, XDATA, add(CFA_XSP16, literal(-7)))
        CFI ?BRET_EXT load(1, XDATA, add(CFA_XSP16, literal(-3)))
        CFI ?RET_HIGH load(1, XDATA, add(CFA_XSP16, literal(-4)))
        CFI ?RET_LOW load(1, XDATA, add(CFA_XSP16, literal(-5)))
        MOV     R7,#0x1
        LJMP    ?BANKED_LEAVE_XDATA
        CFI EndBlock cfiBlock2
//   57 

        RSEG BANKED_CODE:CODE:NOROOT(0)
//   58 void GwCoord_OnFrame(const frame_t *f)
GwCoord_OnFrame:
        CFI Block cfiBlock3 Using cfiCommon0
        CFI Function GwCoord_OnFrame
        CODE
//   59 {
        FUNCALL GwCoord_OnFrame, HalLedSet
        LOCFRAME ISTACK, 0, STACK
        LOCFRAME PSTACK, 0, STACK
        LOCFRAME XSTACK, 9, STACK
        LOCFRAME IOVERLAY, 0, STATIC
        LOCFRAME DOVERLAY, 0, STATIC
        ARGFRAME ISTACK, 0, STACK
        ARGFRAME PSTACK, 0, STACK
        ARGFRAME XSTACK, 9, STACK
        ARGFRAME IOVERLAY, 0, STATIC
        ARGFRAME DOVERLAY, 0, STATIC
        FUNCALL GwCoord_OnFrame, cmd_map_dispatch
        LOCFRAME ISTACK, 0, STACK
        LOCFRAME PSTACK, 0, STACK
        LOCFRAME XSTACK, 9, STACK
        LOCFRAME IOVERLAY, 0, STATIC
        LOCFRAME DOVERLAY, 0, STATIC
        ARGFRAME ISTACK, 0, STACK
        ARGFRAME PSTACK, 0, STACK
        ARGFRAME XSTACK, 9, STACK
        ARGFRAME IOVERLAY, 0, STATIC
        ARGFRAME DOVERLAY, 0, STATIC
        MOV     A,#-0x9
        LCALL   ?BANKED_ENTER_XDATA
        CFI DPH0 load(1, XDATA, add(CFA_XSP16, literal(-1)))
        CFI DPL0 load(1, XDATA, add(CFA_XSP16, literal(-2)))
        CFI ?BRET_EXT load(1, XDATA, add(CFA_XSP16, literal(-3)))
        CFI ?RET_HIGH load(1, XDATA, add(CFA_XSP16, literal(-4)))
        CFI ?RET_LOW load(1, XDATA, add(CFA_XSP16, literal(-5)))
        CFI R7 load(1, XDATA, add(CFA_XSP16, literal(-6)))
        CFI V0 load(1, XDATA, add(CFA_XSP16, literal(-7)))
        CFI VB load(1, XDATA, add(CFA_XSP16, literal(-8)))
        CFI R6 load(1, XDATA, add(CFA_XSP16, literal(-9)))
        CFI CFA_SP SP+0
        CFI CFA_XSP16 add(XSP16, 9)
        ; Saved register size: 9
        ; Auto size: 0
        MOV     A,R2
        MOV     R6,A
        MOV     A,R3
        MOV     R7,A
//   60     HalLedSet(HAL_LED_2, HAL_LED_MODE_BLINK);
        ; Setup parameters for call to function HalLedSet
        MOV     R2,#0x2
        MOV     R1,#0x2
        LCALL   ??HalLedSet?relay
//   61     cmd_map_dispatch(f);
        ; Setup parameters for call to function cmd_map_dispatch
        MOV     A,R6
        MOV     R2,A
        MOV     A,R7
        MOV     R3,A
        LCALL   ??cmd_map_dispatch?relay
//   62 }
        SJMP    ?Subroutine0
        CFI EndBlock cfiBlock3
//   63 

        RSEG BANKED_CODE:CODE:NOROOT(0)
//   64 void GwCoord_Init(uint8 task_id)
GwCoord_Init:
        CFI Block cfiBlock4 Using cfiCommon0
        CFI Function GwCoord_Init
        CODE
//   65 {
        FUNCALL GwCoord_Init, afRegister
        LOCFRAME ISTACK, 0, STACK
        LOCFRAME PSTACK, 0, STACK
        LOCFRAME XSTACK, 9, STACK
        LOCFRAME IOVERLAY, 0, STATIC
        LOCFRAME DOVERLAY, 0, STATIC
        ARGFRAME ISTACK, 0, STACK
        ARGFRAME PSTACK, 0, STACK
        ARGFRAME XSTACK, 9, STACK
        ARGFRAME IOVERLAY, 0, STATIC
        ARGFRAME DOVERLAY, 0, STATIC
        FUNCALL GwCoord_Init, ZDO_RegisterForZDOMsg
        LOCFRAME ISTACK, 0, STACK
        LOCFRAME PSTACK, 0, STACK
        LOCFRAME XSTACK, 9, STACK
        LOCFRAME IOVERLAY, 0, STATIC
        LOCFRAME DOVERLAY, 0, STATIC
        ARGFRAME ISTACK, 0, STACK
        ARGFRAME PSTACK, 0, STACK
        ARGFRAME XSTACK, 9, STACK
        ARGFRAME IOVERLAY, 0, STATIC
        ARGFRAME DOVERLAY, 0, STATIC
        FUNCALL GwCoord_Init, zb_net_init
        LOCFRAME ISTACK, 0, STACK
        LOCFRAME PSTACK, 0, STACK
        LOCFRAME XSTACK, 9, STACK
        LOCFRAME IOVERLAY, 0, STATIC
        LOCFRAME DOVERLAY, 0, STATIC
        ARGFRAME ISTACK, 0, STACK
        ARGFRAME PSTACK, 0, STACK
        ARGFRAME XSTACK, 9, STACK
        ARGFRAME IOVERLAY, 0, STATIC
        ARGFRAME DOVERLAY, 0, STATIC
        FUNCALL GwCoord_Init, uart_link_init
        LOCFRAME ISTACK, 0, STACK
        LOCFRAME PSTACK, 0, STACK
        LOCFRAME XSTACK, 9, STACK
        LOCFRAME IOVERLAY, 0, STATIC
        LOCFRAME DOVERLAY, 0, STATIC
        ARGFRAME ISTACK, 0, STACK
        ARGFRAME PSTACK, 0, STACK
        ARGFRAME XSTACK, 9, STACK
        ARGFRAME IOVERLAY, 0, STATIC
        ARGFRAME DOVERLAY, 0, STATIC
        FUNCALL GwCoord_Init, osal_start_reload_timer
        LOCFRAME ISTACK, 0, STACK
        LOCFRAME PSTACK, 0, STACK
        LOCFRAME XSTACK, 9, STACK
        LOCFRAME IOVERLAY, 0, STATIC
        LOCFRAME DOVERLAY, 0, STATIC
        ARGFRAME ISTACK, 0, STACK
        ARGFRAME PSTACK, 0, STACK
        ARGFRAME XSTACK, 9, STACK
        ARGFRAME IOVERLAY, 0, STATIC
        ARGFRAME DOVERLAY, 0, STATIC
        FUNCALL GwCoord_Init, HalLedSet
        LOCFRAME ISTACK, 0, STACK
        LOCFRAME PSTACK, 0, STACK
        LOCFRAME XSTACK, 9, STACK
        LOCFRAME IOVERLAY, 0, STATIC
        LOCFRAME DOVERLAY, 0, STATIC
        ARGFRAME ISTACK, 0, STACK
        ARGFRAME PSTACK, 0, STACK
        ARGFRAME XSTACK, 9, STACK
        ARGFRAME IOVERLAY, 0, STATIC
        ARGFRAME DOVERLAY, 0, STATIC
        FUNCALL GwCoord_Init, HalLedSet
        LOCFRAME ISTACK, 0, STACK
        LOCFRAME PSTACK, 0, STACK
        LOCFRAME XSTACK, 9, STACK
        LOCFRAME IOVERLAY, 0, STATIC
        LOCFRAME DOVERLAY, 0, STATIC
        ARGFRAME ISTACK, 0, STACK
        ARGFRAME PSTACK, 0, STACK
        ARGFRAME XSTACK, 9, STACK
        ARGFRAME IOVERLAY, 0, STATIC
        ARGFRAME DOVERLAY, 0, STATIC
        MOV     A,#-0x9
        LCALL   ?BANKED_ENTER_XDATA
        CFI DPH0 load(1, XDATA, add(CFA_XSP16, literal(-1)))
        CFI DPL0 load(1, XDATA, add(CFA_XSP16, literal(-2)))
        CFI ?BRET_EXT load(1, XDATA, add(CFA_XSP16, literal(-3)))
        CFI ?RET_HIGH load(1, XDATA, add(CFA_XSP16, literal(-4)))
        CFI ?RET_LOW load(1, XDATA, add(CFA_XSP16, literal(-5)))
        CFI R7 load(1, XDATA, add(CFA_XSP16, literal(-6)))
        CFI V0 load(1, XDATA, add(CFA_XSP16, literal(-7)))
        CFI VB load(1, XDATA, add(CFA_XSP16, literal(-8)))
        CFI R6 load(1, XDATA, add(CFA_XSP16, literal(-9)))
        CFI CFA_SP SP+0
        CFI CFA_XSP16 add(XSP16, 9)
        ; Saved register size: 9
        ; Auto size: 0
        MOV     A,R1
//   66     GwCoord_TaskID = task_id;
        MOV     DPTR,#GwCoord_TaskID
        MOVX    @DPTR,A
//   67 
//   68     s_simpleDesc.EndPoint           = GWCOORD_ENDPOINT;
        MOV     DPTR,#s_simpleDesc
        MOV     A,#0x1
        MOVX    @DPTR,A
//   69     s_simpleDesc.AppProfId          = GWCOORD_PROFILE_ID;
        INC     DPTR
        MOV     A,#0x4
        MOVX    @DPTR,A
        INC     DPTR
        MOV     A,#0x1
        MOVX    @DPTR,A
//   70     s_simpleDesc.AppDeviceId        = GWCOORD_DEVICE_ID;
        INC     DPTR
        CLR     A
        MOVX    @DPTR,A
        INC     DPTR
        MOVX    @DPTR,A
//   71     s_simpleDesc.AppDevVer          = GWCOORD_DEVICE_VERSION;
//   72     s_simpleDesc.Reserved           = 0;
        INC     DPTR
        INC     A
        MOVX    @DPTR,A
//   73     s_simpleDesc.AppNumInClusters   = GWCOORD_CLUSTERS_MAX;
        INC     DPTR
        MOV     A,#0x4
        MOVX    @DPTR,A
//   74     s_simpleDesc.pAppInClusterList  = s_inClusters;
        INC     DPTR
        MOV     A,#s_inClusters & 0xff
        MOVX    @DPTR,A
        INC     DPTR
        MOV     A,#(s_inClusters >> 8) & 0xff
        MOVX    @DPTR,A
//   75     s_simpleDesc.AppNumOutClusters  = 1;
        INC     DPTR
        MOV     A,#0x1
        MOVX    @DPTR,A
//   76     s_simpleDesc.pAppOutClusterList = s_outClusters;
        INC     DPTR
        MOV     A,#s_outClusters & 0xff
        MOVX    @DPTR,A
        INC     DPTR
        MOV     A,#(s_outClusters >> 8) & 0xff
        MOVX    @DPTR,A
//   77 
//   78     s_epDesc.endPoint   = GWCOORD_ENDPOINT;
        MOV     DPTR,#s_epDesc
        MOV     A,#0x1
        MOVX    @DPTR,A
//   79     s_epDesc.task_id    = &GwCoord_TaskID;
        INC     DPTR
        MOV     A,#GwCoord_TaskID & 0xff
        MOVX    @DPTR,A
        INC     DPTR
        MOV     A,#(GwCoord_TaskID >> 8) & 0xff
        MOVX    @DPTR,A
//   80     s_epDesc.simpleDesc = &s_simpleDesc;
        INC     DPTR
        MOV     A,#s_simpleDesc & 0xff
        MOVX    @DPTR,A
        INC     DPTR
        MOV     A,#(s_simpleDesc >> 8) & 0xff
        MOVX    @DPTR,A
//   81     s_epDesc.latencyReq = noLatencyReqs;
        INC     DPTR
        CLR     A
        MOVX    @DPTR,A
//   82     afRegister(&s_epDesc);
        ; Setup parameters for call to function afRegister
        MOV     R2,#s_epDesc & 0xff
        MOV     R3,#(s_epDesc >> 8) & 0xff
        LCALL   ??afRegister?relay
//   83 
//   84     ZDO_RegisterForZDOMsg(GwCoord_TaskID, Device_annce);
        ; Setup parameters for call to function ZDO_RegisterForZDOMsg
        MOV     R2,#0x13
        MOV     R3,#0x0
        MOV     DPTR,#GwCoord_TaskID
        MOVX    A,@DPTR
        MOV     R1,A
        LCALL   ??ZDO_RegisterForZDOMsg?relay
//   85 
//   86     zb_net_init();
        ; Setup parameters for call to function zb_net_init
        LCALL   ??zb_net_init?relay
//   87     uart_link_init(GwCoord_TaskID);
        ; Setup parameters for call to function uart_link_init
        MOV     DPTR,#GwCoord_TaskID
        MOVX    A,@DPTR
        MOV     R1,A
        LCALL   ??uart_link_init?relay
//   88 
//   89     osal_start_reload_timer(GwCoord_TaskID, GW_EVT_HEARTBEAT, 1000);
        ; Setup parameters for call to function osal_start_reload_timer
        MOV     R4,#-0x18
        MOV     R5,#0x3
        MOV     R2,#0x2
        MOV     R3,#0x0
        MOV     DPTR,#GwCoord_TaskID
        MOVX    A,@DPTR
        MOV     R1,A
        LCALL   ??osal_start_reload_timer?relay
//   90 
//   91     HalLedSet(HAL_LED_1, HAL_LED_MODE_OFF);
        ; Setup parameters for call to function HalLedSet
        MOV     R2,#0x0
        MOV     R1,#0x1
        LCALL   ??HalLedSet?relay
//   92     HalLedSet(HAL_LED_2, HAL_LED_MODE_OFF);
        ; Setup parameters for call to function HalLedSet
        MOV     R2,#0x0
        MOV     R1,#0x2
        LCALL   ??HalLedSet?relay
//   93 }
        LJMP    ?Subroutine0 & 0xFFFF
        CFI EndBlock cfiBlock4
//   94 

        RSEG BANKED_CODE:CODE:NOROOT(0)
//   95 UINT16 GwCoord_ProcessEvent(uint8 task_id, uint16 events)
GwCoord_ProcessEvent:
        CFI Block cfiBlock5 Using cfiCommon0
        CFI Function GwCoord_ProcessEvent
        CODE
//   96 {
        FUNCALL GwCoord_ProcessEvent, uart_link_drain
        LOCFRAME ISTACK, 0, STACK
        LOCFRAME PSTACK, 0, STACK
        LOCFRAME XSTACK, 12, STACK
        LOCFRAME IOVERLAY, 0, STATIC
        LOCFRAME DOVERLAY, 0, STATIC
        ARGFRAME ISTACK, 0, STACK
        ARGFRAME PSTACK, 0, STACK
        ARGFRAME XSTACK, 12, STACK
        ARGFRAME IOVERLAY, 0, STATIC
        ARGFRAME DOVERLAY, 0, STATIC
        FUNCALL GwCoord_ProcessEvent, HalLedSet
        LOCFRAME ISTACK, 0, STACK
        LOCFRAME PSTACK, 0, STACK
        LOCFRAME XSTACK, 12, STACK
        LOCFRAME IOVERLAY, 0, STATIC
        LOCFRAME DOVERLAY, 0, STATIC
        ARGFRAME ISTACK, 0, STACK
        ARGFRAME PSTACK, 0, STACK
        ARGFRAME XSTACK, 12, STACK
        ARGFRAME IOVERLAY, 0, STATIC
        ARGFRAME DOVERLAY, 0, STATIC
        FUNCALL GwCoord_ProcessEvent, af_to_zb_report
        LOCFRAME ISTACK, 0, STACK
        LOCFRAME PSTACK, 0, STACK
        LOCFRAME XSTACK, 12, STACK
        LOCFRAME IOVERLAY, 0, STATIC
        LOCFRAME DOVERLAY, 0, STATIC
        ARGFRAME ISTACK, 0, STACK
        ARGFRAME PSTACK, 0, STACK
        ARGFRAME XSTACK, 12, STACK
        ARGFRAME IOVERLAY, 0, STATIC
        ARGFRAME DOVERLAY, 0, STATIC
        FUNCALL GwCoord_ProcessEvent, osal_msg_deallocate
        LOCFRAME ISTACK, 0, STACK
        LOCFRAME PSTACK, 0, STACK
        LOCFRAME XSTACK, 12, STACK
        LOCFRAME IOVERLAY, 0, STATIC
        LOCFRAME DOVERLAY, 0, STATIC
        ARGFRAME ISTACK, 0, STACK
        ARGFRAME PSTACK, 0, STACK
        ARGFRAME XSTACK, 12, STACK
        ARGFRAME IOVERLAY, 0, STATIC
        ARGFRAME DOVERLAY, 0, STATIC
        FUNCALL GwCoord_ProcessEvent, osal_msg_receive
        LOCFRAME ISTACK, 0, STACK
        LOCFRAME PSTACK, 0, STACK
        LOCFRAME XSTACK, 12, STACK
        LOCFRAME IOVERLAY, 0, STATIC
        LOCFRAME DOVERLAY, 0, STATIC
        ARGFRAME ISTACK, 0, STACK
        ARGFRAME PSTACK, 0, STACK
        ARGFRAME XSTACK, 12, STACK
        ARGFRAME IOVERLAY, 0, STATIC
        ARGFRAME DOVERLAY, 0, STATIC
        FUNCALL GwCoord_ProcessEvent, zb_net_on_state
        LOCFRAME ISTACK, 0, STACK
        LOCFRAME PSTACK, 0, STACK
        LOCFRAME XSTACK, 12, STACK
        LOCFRAME IOVERLAY, 0, STATIC
        LOCFRAME DOVERLAY, 0, STATIC
        ARGFRAME ISTACK, 0, STACK
        ARGFRAME PSTACK, 0, STACK
        ARGFRAME XSTACK, 12, STACK
        ARGFRAME IOVERLAY, 0, STATIC
        ARGFRAME DOVERLAY, 0, STATIC
        FUNCALL GwCoord_ProcessEvent, HalLedSet
        LOCFRAME ISTACK, 0, STACK
        LOCFRAME PSTACK, 0, STACK
        LOCFRAME XSTACK, 12, STACK
        LOCFRAME IOVERLAY, 0, STATIC
        LOCFRAME DOVERLAY, 0, STATIC
        ARGFRAME ISTACK, 0, STACK
        ARGFRAME PSTACK, 0, STACK
        ARGFRAME XSTACK, 12, STACK
        ARGFRAME IOVERLAY, 0, STATIC
        ARGFRAME DOVERLAY, 0, STATIC
        FUNCALL GwCoord_ProcessEvent, osal_GetSystemClock
        LOCFRAME ISTACK, 0, STACK
        LOCFRAME PSTACK, 0, STACK
        LOCFRAME XSTACK, 12, STACK
        LOCFRAME IOVERLAY, 0, STATIC
        LOCFRAME DOVERLAY, 0, STATIC
        ARGFRAME ISTACK, 0, STACK
        ARGFRAME PSTACK, 0, STACK
        ARGFRAME XSTACK, 12, STACK
        ARGFRAME IOVERLAY, 0, STATIC
        ARGFRAME DOVERLAY, 0, STATIC
        FUNCALL GwCoord_ProcessEvent, zb_net_tick
        LOCFRAME ISTACK, 0, STACK
        LOCFRAME PSTACK, 0, STACK
        LOCFRAME XSTACK, 12, STACK
        LOCFRAME IOVERLAY, 0, STATIC
        LOCFRAME DOVERLAY, 0, STATIC
        ARGFRAME ISTACK, 0, STACK
        ARGFRAME PSTACK, 0, STACK
        ARGFRAME XSTACK, 12, STACK
        ARGFRAME IOVERLAY, 0, STATIC
        ARGFRAME DOVERLAY, 0, STATIC
        MOV     A,#-0xc
        LCALL   ?BANKED_ENTER_XDATA
        CFI DPH0 load(1, XDATA, add(CFA_XSP16, literal(-1)))
        CFI DPL0 load(1, XDATA, add(CFA_XSP16, literal(-2)))
        CFI ?BRET_EXT load(1, XDATA, add(CFA_XSP16, literal(-3)))
        CFI ?RET_HIGH load(1, XDATA, add(CFA_XSP16, literal(-4)))
        CFI ?RET_LOW load(1, XDATA, add(CFA_XSP16, literal(-5)))
        CFI R7 load(1, XDATA, add(CFA_XSP16, literal(-6)))
        CFI V3 load(1, XDATA, add(CFA_XSP16, literal(-7)))
        CFI V2 load(1, XDATA, add(CFA_XSP16, literal(-8)))
        CFI V1 load(1, XDATA, add(CFA_XSP16, literal(-9)))
        CFI V0 load(1, XDATA, add(CFA_XSP16, literal(-10)))
        CFI VB load(1, XDATA, add(CFA_XSP16, literal(-11)))
        CFI R6 load(1, XDATA, add(CFA_XSP16, literal(-12)))
        CFI CFA_SP SP+0
        CFI CFA_XSP16 add(XSP16, 12)
        ; Saved register size: 12
        ; Auto size: 0
        MOV     A,R2
        MOV     R6,A
        MOV     A,R3
        MOV     R7,A
//   97     afIncomingMSGPacket_t *MSGpkt;
//   98 
//   99     (void)task_id;
//  100 
//  101     if (events & SYS_EVENT_MSG) {
        ANL     A,#0x80
        JNZ     ??GwCoord_ProcessEvent_0
//  102         while ((MSGpkt = (afIncomingMSGPacket_t *)osal_msg_receive(GwCoord_TaskID)) != 0) {
//  103             switch (MSGpkt->hdr.event) {
//  104             case ZDO_STATE_CHANGE:
//  105                 on_zdo_state_change((uint8)devState);
//  106                 break;
//  107             case AF_INCOMING_MSG_CMD:
//  108                 on_af_incoming(MSGpkt);
//  109                 break;
//  110             default:
//  111                 break;
//  112             }
//  113             osal_msg_deallocate((uint8 *)MSGpkt);
//  114         }
//  115         return (events ^ SYS_EVENT_MSG);
//  116     }
//  117 
//  118     if (events & GW_EVT_UART_RX) {
        MOV     A,R6
        MOV     C,0xE0 /* A   */.0
        JNC     ??GwCoord_ProcessEvent_1
//  119         uart_link_drain();
        ; Setup parameters for call to function uart_link_drain
        LCALL   ??uart_link_drain?relay
//  120         return (events ^ GW_EVT_UART_RX);
        MOV     A,R6
        XRL     A,#0x1
        MOV     R2,A
        MOV     A,R7
??GwCoord_ProcessEvent_2:
        MOV     R3,A
        LJMP    ??GwCoord_ProcessEvent_3 & 0xFFFF
//  121     }
??GwCoord_ProcessEvent_4:
        ; Setup parameters for call to function HalLedSet
        MOV     R2,#0x2
        MOV     R1,#0x2
        LCALL   ??HalLedSet?relay
        ; Setup parameters for call to function af_to_zb_report
        MOV     R2,?V0 + 0
        MOV     R3,?V0 + 1
        LCALL   ??af_to_zb_report?relay
??GwCoord_ProcessEvent_5:
        ; Setup parameters for call to function osal_msg_deallocate
        MOV     R2,?V0 + 0
        MOV     R3,?V0 + 1
        LCALL   ??osal_msg_deallocate?relay
??GwCoord_ProcessEvent_0:
        ; Setup parameters for call to function osal_msg_receive
        MOV     DPTR,#GwCoord_TaskID
        MOVX    A,@DPTR
        MOV     R1,A
        LCALL   ??osal_msg_receive?relay
        MOV     ?V0 + 0,R2
        MOV     ?V0 + 1,R3
        MOV     A,R2
        ORL     A,?V0 + 1
        JZ      ??GwCoord_ProcessEvent_6
        MOV     DPL,R2
        MOV     DPH,R3
        MOVX    A,@DPTR
        ADD     A,#-0x1a
        JZ      ??GwCoord_ProcessEvent_4
        ADD     A,#0x49
        JNZ     ??GwCoord_ProcessEvent_5
        MOV     DPTR,#devState
        MOVX    A,@DPTR
        MOV     ?V0 + 2,A
        ; Setup parameters for call to function zb_net_on_state
        MOV     DPTR,#_NIB + 22
        MOVX    A,@DPTR
        MOV     R4,A
        MOV     DPTR,#_NIB + 33
        MOVX    A,@DPTR
        MOV     R2,A
        INC     DPTR
        MOVX    A,@DPTR
        MOV     R3,A
        MOV     R1,?V0 + 2
        LCALL   ??zb_net_on_state?relay
        MOV     A,#0x9
        XRL     A,?V0 + 2
        JNZ     ??GwCoord_ProcessEvent_5
        ; Setup parameters for call to function HalLedSet
        MOV     R2,#0x1
        MOV     R1,#0x1
        LCALL   ??HalLedSet?relay
        SJMP    ??GwCoord_ProcessEvent_5
??GwCoord_ProcessEvent_6:
        MOV     A,R6
        MOV     R2,A
        MOV     A,R7
        XRL     A,#0x80
        SJMP    ??GwCoord_ProcessEvent_2
//  122 
//  123     if (events & GW_EVT_HEARTBEAT) {
??GwCoord_ProcessEvent_1:
        ANL     A,#0x2
        JZ      ??GwCoord_ProcessEvent_7
//  124         zb_net_tick(osal_GetSystemClock());
        ; Setup parameters for call to function zb_net_tick
        ; Setup parameters for call to function osal_GetSystemClock
        LCALL   ??osal_GetSystemClock?relay
        LCALL   ??zb_net_tick?relay
//  125         return (events ^ GW_EVT_HEARTBEAT);
        MOV     A,R6
        XRL     A,#0x2
        MOV     R2,A
        MOV     A,R7
        MOV     R3,A
        SJMP    ??GwCoord_ProcessEvent_3
//  126     }
//  127 
//  128     if (events & GW_EVT_JOIN_TMO) {
??GwCoord_ProcessEvent_7:
        MOV     A,R6
        ANL     A,#0x4
        JZ      ??GwCoord_ProcessEvent_8
//  129         return (events ^ GW_EVT_JOIN_TMO);
        MOV     A,R6
        XRL     A,#0x4
        MOV     R2,A
        SJMP    ??GwCoord_ProcessEvent_3
//  130     }
//  131 
//  132     return 0;
??GwCoord_ProcessEvent_8:
        MOV     R2,#0x0
        MOV     R3,#0x0
??GwCoord_ProcessEvent_3:
        MOV     R7,#0x4
        LJMP    ?BANKED_LEAVE_XDATA
        CFI EndBlock cfiBlock5
//  133 }
//  134 
//  135 static void on_zdo_state_change(uint8 state)
//  136 {
//  137     uint16 panid;
//  138     uint8 channel;
//  139 
//  140     panid = _NIB.nwkPanId;
//  141     channel = _NIB.nwkLogicalChannel;
//  142     zb_net_on_state(state, panid, channel);
//  143 
//  144     if (state == DEV_ZB_COORD) {
//  145         HalLedSet(HAL_LED_1, HAL_LED_MODE_ON);
//  146     }
//  147 }
//  148 

        RSEG BANKED_CODE:CODE:NOROOT(0)
//  149 static void af_to_zb_report(afIncomingMSGPacket_t *pkt)
af_to_zb_report:
        CFI Block cfiBlock6 Using cfiCommon0
        CFI Function af_to_zb_report
        CODE
//  150 {
        FUNCALL af_to_zb_report, osal_memcpy
        LOCFRAME ISTACK, 0, STACK
        LOCFRAME PSTACK, 0, STACK
        LOCFRAME XSTACK, 83, STACK
        LOCFRAME IOVERLAY, 0, STATIC
        LOCFRAME DOVERLAY, 0, STATIC
        ARGFRAME ISTACK, 0, STACK
        ARGFRAME PSTACK, 0, STACK
        ARGFRAME XSTACK, 83, STACK
        ARGFRAME IOVERLAY, 0, STATIC
        ARGFRAME DOVERLAY, 0, STATIC
        FUNCALL af_to_zb_report, zb_net_touch
        LOCFRAME ISTACK, 0, STACK
        LOCFRAME PSTACK, 0, STACK
        LOCFRAME XSTACK, 81, STACK
        LOCFRAME IOVERLAY, 0, STATIC
        LOCFRAME DOVERLAY, 0, STATIC
        ARGFRAME ISTACK, 0, STACK
        ARGFRAME PSTACK, 0, STACK
        ARGFRAME XSTACK, 81, STACK
        ARGFRAME IOVERLAY, 0, STATIC
        ARGFRAME DOVERLAY, 0, STATIC
        FUNCALL af_to_zb_report, GwCoord_SendFrame
        LOCFRAME ISTACK, 0, STACK
        LOCFRAME PSTACK, 0, STACK
        LOCFRAME XSTACK, 80, STACK
        LOCFRAME IOVERLAY, 0, STATIC
        LOCFRAME DOVERLAY, 0, STATIC
        ARGFRAME ISTACK, 0, STACK
        ARGFRAME PSTACK, 0, STACK
        ARGFRAME XSTACK, 80, STACK
        ARGFRAME IOVERLAY, 0, STATIC
        ARGFRAME DOVERLAY, 0, STATIC
        MOV     A,#-0xf
        LCALL   ?BANKED_ENTER_XDATA
        CFI DPH0 load(1, XDATA, add(CFA_XSP16, literal(-1)))
        CFI DPL0 load(1, XDATA, add(CFA_XSP16, literal(-2)))
        CFI ?BRET_EXT load(1, XDATA, add(CFA_XSP16, literal(-3)))
        CFI ?RET_HIGH load(1, XDATA, add(CFA_XSP16, literal(-4)))
        CFI ?RET_LOW load(1, XDATA, add(CFA_XSP16, literal(-5)))
        CFI R7 load(1, XDATA, add(CFA_XSP16, literal(-6)))
        CFI V6 load(1, XDATA, add(CFA_XSP16, literal(-7)))
        CFI V5 load(1, XDATA, add(CFA_XSP16, literal(-8)))
        CFI V4 load(1, XDATA, add(CFA_XSP16, literal(-9)))
        CFI V3 load(1, XDATA, add(CFA_XSP16, literal(-10)))
        CFI V2 load(1, XDATA, add(CFA_XSP16, literal(-11)))
        CFI V1 load(1, XDATA, add(CFA_XSP16, literal(-12)))
        CFI V0 load(1, XDATA, add(CFA_XSP16, literal(-13)))
        CFI VB load(1, XDATA, add(CFA_XSP16, literal(-14)))
        CFI R6 load(1, XDATA, add(CFA_XSP16, literal(-15)))
        CFI CFA_SP SP+0
        CFI CFA_XSP16 add(XSP16, 15)
        ; Saved register size: 15
        ; Auto size: 65
        MOV     A,#-0x41
        LCALL   ?ALLOC_XSTACK8
        CFI CFA_XSP16 add(XSP16, 80)
        MOV     A,R2
        MOV     R6,A
        MOV     A,R3
        MOV     R7,A
//  151     uint8 *zcl;
//  152     uint8 zlen;
//  153     uint8 fc;
//  154     uint8 cmd;
//  155     uint16 attrId;
//  156     uint8 dtype;
//  157     uint8 vlen;
//  158     const uint8 *val;
//  159     uint8 out[FRAME_PAYLOAD_MAX];
//  160     uint8 *p;
//  161     zb_node_t *node;
//  162     uint8 role;
//  163 
//  164     zcl = pkt->cmd.Data;
        MOV     A,R6
        ADD     A,#0x22
        LCALL   ?Subroutine1 & 0xFFFF
??CrossCallReturnLabel_0:
        MOV     R0,A
        INC     DPTR
        MOVX    A,@DPTR
        MOV     R1,A
//  165     zlen = pkt->cmd.DataLength;
        MOV     A,R6
        ADD     A,#0x20
        LCALL   ?Subroutine1 & 0xFFFF
??CrossCallReturnLabel_1:
        MOV     R3,A
//  166     if (zlen < 6) {
        CLR     C
        SUBB    A,#0x6
        JNC     $+5
        LJMP    ??af_to_zb_report_0 & 0xFFFF
//  167         return;
//  168     }
//  169 
//  170     fc = zcl[0];
//  171     cmd = zcl[2];
//  172     if (cmd != 0x0A) {
        MOV     DPL,R0
        MOV     DPH,R1
        INC     DPTR
        INC     DPTR
        MOVX    A,@DPTR
        XRL     A,#0xa
        JZ      $+5
        LJMP    ??af_to_zb_report_0 & 0xFFFF
//  173         return;
//  174     }
//  175 
//  176     attrId = (uint16)zcl[3] | ((uint16)zcl[4] << 8);
//  177     dtype = zcl[5];
        MOV     DPL,R0
        MOV     DPH,R1
        INC     DPTR
        INC     DPTR
        INC     DPTR
        INC     DPTR
        INC     DPTR
        MOVX    A,@DPTR
        MOV     R2,A
//  178     val = &zcl[6];
        MOV     A,R0
        ADD     A,#0x6
        MOV     ?V0 + 4,A
        MOV     A,R1
        ADDC    A,#0x0
        MOV     ?V0 + 5,A
//  179     (void)attrId;
//  180     (void)fc;
//  181 
//  182     switch (dtype) {
        MOV     A,R2
        DEC     A
        JZ      ??af_to_zb_report_1
        DEC     A
        JZ      ??af_to_zb_report_1
        DEC     A
        JZ      ??af_to_zb_report_1
        ADD     A,#-0xd
        JZ      ??af_to_zb_report_2
        DEC     A
        JZ      ??af_to_zb_report_2
        DEC     A
        JZ      ??af_to_zb_report_3
        ADD     A,#-0xe
        JZ      ??af_to_zb_report_3
        LJMP    ??af_to_zb_report_0 & 0xFFFF
//  183     case DTYPE_BOOL:
//  184     case DTYPE_U8:
//  185     case DTYPE_I8:
//  186         vlen = 1;
??af_to_zb_report_1:
        MOV     ?V0 + 2,#0x1
//  187         break;
        SJMP    ??af_to_zb_report_4
//  188     case DTYPE_U16:
//  189     case DTYPE_I16:
//  190         vlen = 2;
??af_to_zb_report_2:
        MOV     ?V0 + 2,#0x2
//  191         break;
        SJMP    ??af_to_zb_report_4
//  192     case DTYPE_U32:
//  193     case DTYPE_I32:
//  194         vlen = 4;
??af_to_zb_report_3:
        MOV     ?V0 + 2,#0x4
//  195         break;
??af_to_zb_report_4:
        MOV     A,#0x6
        ADD     A,?V0 + 2
        MOV     R0,A
        MOV     A,R3
        CLR     C
        SUBB    A,R0
        JNC     $+5
        LJMP    ??af_to_zb_report_0 & 0xFFFF
//  196     default:
//  197         vlen = 0;
//  198         break;
//  199     }
//  200     if (vlen == 0 || (uint16)(6 + vlen) > zlen) {
//  201         return;
//  202     }
//  203 
//  204     p = out;
//  205     *p++ = (uint8)(pkt->srcAddr.addr.shortAddr & 0xFF);
        MOV     A,R6
        ADD     A,#0x6
        MOV     ?V0 + 0,A
        MOV     A,R7
        ADDC    A,#0x0
        MOV     ?V0 + 1,A
        MOV     DPL,?V0 + 0
        MOV     DPH,A
        MOVX    A,@DPTR
        PUSH    A
        CFI CFA_SP SP+-1
        MOV     A,#0x1
        LCALL   ?XSTACK_DISP0_8
        POP     A
        CFI CFA_SP SP+0
        MOVX    @DPTR,A
//  206     *p++ = (uint8)(pkt->srcAddr.addr.shortAddr >> 8);
        MOV     DPL,?V0 + 0
        MOV     DPH,?V0 + 1
        INC     DPTR
        MOVX    A,@DPTR
        PUSH    A
        CFI CFA_SP SP+-1
        MOV     A,#0x2
        LCALL   ?XSTACK_DISP0_8
        POP     A
        CFI CFA_SP SP+0
        MOVX    @DPTR,A
//  207     *p++ = pkt->srcAddr.endPoint;
        MOV     A,R6
        ADD     A,#0xf
        LCALL   ?Subroutine1 & 0xFFFF
??CrossCallReturnLabel_2:
        PUSH    A
        CFI CFA_SP SP+-1
        MOV     A,#0x3
        LCALL   ?XSTACK_DISP0_8
        POP     A
        CFI CFA_SP SP+0
        MOVX    @DPTR,A
//  208     *p++ = (uint8)(pkt->clusterId & 0xFF);
        MOV     A,R6
        ADD     A,#0x4
        MOV     R0,A
        MOV     A,R7
        ADDC    A,#0x0
        MOV     R1,A
        MOV     DPL,R0
        MOV     DPH,R1
        MOVX    A,@DPTR
        PUSH    A
        CFI CFA_SP SP+-1
        MOV     A,#0x4
        LCALL   ?XSTACK_DISP0_8
        POP     A
        CFI CFA_SP SP+0
        MOVX    @DPTR,A
//  209     *p++ = (uint8)(pkt->clusterId >> 8);
        MOV     DPL,R0
        MOV     DPH,R1
        INC     DPTR
        MOVX    A,@DPTR
        PUSH    A
        CFI CFA_SP SP+-1
        MOV     A,#0x5
        LCALL   ?XSTACK_DISP0_8
        POP     A
        CFI CFA_SP SP+0
        MOVX    @DPTR,A
//  210     *p++ = dtype;
        MOV     A,#0x6
        LCALL   ?XSTACK_DISP0_8
        MOV     A,R2
        MOVX    @DPTR,A
//  211     *p++ = vlen;
        MOV     A,#0x7
        LCALL   ?XSTACK_DISP0_8
        MOV     A,?V0 + 2
        MOVX    @DPTR,A
//  212     osal_memcpy(p, val, vlen);
        ; Setup parameters for call to function osal_memcpy
        MOV     ?V0 + 6,#0x0
        MOV     R0,#?V0 + 4
        LCALL   ?PUSH_XSTACK_I_THREE
        CFI CFA_XSP16 add(XSP16, 83)
        MOV     ?V0 + 4,?V0 + 2
        MOV     R4,?V0 + 4
        MOV     R5,#0x0
        MOV     A,#0xb
        LCALL   ?XSTACK_DISP0_8
        MOV     R2,DPL
        MOV     R3,DPH
        LCALL   ??osal_memcpy?relay
        MOV     A,#0x3
        LCALL   ?DEALLOC_XSTACK8
        CFI CFA_XSP16 add(XSP16, 80)
//  213     p += vlen;
        MOV     A,#0x1
        LCALL   ?XSTACK_DISP0_8
        MOV     A,DPL
        ADD     A,?V0 + 2
        ADD     A,#0x7
        MOV     ?V0 + 2,A
//  214 
//  215     node = zb_net_touch(pkt->srcAddr.addr.shortAddr, 0, ZB_DEV_ENDDEV, (int8)pkt->rssi);
        ; Setup parameters for call to function zb_net_touch
        MOV     A,R6
        ADD     A,#0x18
        LCALL   ?Subroutine1 & 0xFFFF
??CrossCallReturnLabel_3:
        MOV     ?V0 + 4,A
        MOV     R0,#?V0 + 4
        LCALL   ?PUSH_XSTACK_I_ONE
        CFI CFA_XSP16 add(XSP16, 81)
        MOV     R1,#0x2
        MOV     R4,#0x0
        MOV     R5,#0x0
        MOV     DPL,?V0 + 0
        MOV     DPH,?V0 + 1
        MOVX    A,@DPTR
        MOV     R2,A
        INC     DPTR
        MOVX    A,@DPTR
        MOV     R3,A
        LCALL   ??zb_net_touch?relay
        MOV     A,#0x1
        LCALL   ?DEALLOC_XSTACK8
        CFI CFA_XSP16 add(XSP16, 80)
//  216     if (node != 0) {
        MOV     A,R2
        ORL     A,R3
        JZ      ??af_to_zb_report_5
//  217         role = role_from_cluster(pkt->clusterId);
        MOV     DPL,R6
        MOV     DPH,R7
        INC     DPTR
        INC     DPTR
        INC     DPTR
        INC     DPTR
        MOVX    A,@DPTR
        MOV     R0,A
        INC     DPTR
        MOVX    A,@DPTR
        MOV     R1,A
        MOV     A,#0x2
        XRL     A,R0
        JNZ     ??af_to_zb_report_6
        MOV     A,#0x4
        XRL     A,R1
??af_to_zb_report_6:
        JZ      ??af_to_zb_report_7
        MOV     A,#0x5
        XRL     A,R0
        JNZ     ??af_to_zb_report_8
        MOV     A,#0x4
        XRL     A,R1
??af_to_zb_report_8:
        JZ      ??af_to_zb_report_7
        MOV     A,R0
        JNZ     ??af_to_zb_report_9
        MOV     A,#0x4
        XRL     A,R1
??af_to_zb_report_9:
        JNZ     ??af_to_zb_report_5
        MOV     DPL,?XSP + 0
        MOV     DPH,?XSP + 1
        MOV     A,#0x2
        SJMP    ??af_to_zb_report_10
??af_to_zb_report_7:
        MOV     DPL,?XSP + 0
        MOV     DPH,?XSP + 1
        MOV     A,#0x1
??af_to_zb_report_10:
        MOVX    @DPTR,A
//  218         if (role != ZB_ROLE_UNKNOWN) {
//  219             node->role = role;
        MOVX    A,@DPTR
        PUSH    A
        CFI CFA_SP SP+-1
        MOV     A,R2
        ADD     A,#0xb
        MOV     DPL,A
        MOV     A,R3
        ADDC    A,#0x0
        MOV     DPH,A
        POP     A
        CFI CFA_SP SP+0
        MOVX    @DPTR,A
//  220         }
//  221     }
//  222 
//  223     (void)GwCoord_SendFrame(CMD_ZB_REPORT, out, (uint8)(p - out));
??af_to_zb_report_5:
        ; Setup parameters for call to function GwCoord_SendFrame
        MOV     A,#0x1
        LCALL   ?XSTACK_DISP0_8
        MOV     R0,DPL
        MOV     A,?V0 + 2
        CLR     C
        SUBB    A,R0
        MOV     R4,A
        MOV     R2,DPL
        MOV     R3,DPH
        MOV     R1,#0x20
        LCALL   ??GwCoord_SendFrame?relay
//  224 }
??af_to_zb_report_0:
        MOV     A,#0x41
        LCALL   ?DEALLOC_XSTACK8
        CFI CFA_XSP16 add(XSP16, 15)
        MOV     R7,#0x7
        LJMP    ?BANKED_LEAVE_XDATA
        CFI EndBlock cfiBlock6

        RSEG BANKED_CODE:CODE:NOROOT(0)
?Subroutine1:
        CFI Block cfiCond7 Using cfiCommon0
        CFI NoFunction
        CFI Conditional ??CrossCallReturnLabel_0
        CFI R6 load(1, XDATA, add(CFA_XSP16, literal(-15)))
        CFI VB load(1, XDATA, add(CFA_XSP16, literal(-14)))
        CFI V0 load(1, XDATA, add(CFA_XSP16, literal(-13)))
        CFI V1 load(1, XDATA, add(CFA_XSP16, literal(-12)))
        CFI V2 load(1, XDATA, add(CFA_XSP16, literal(-11)))
        CFI V3 load(1, XDATA, add(CFA_XSP16, literal(-10)))
        CFI V4 load(1, XDATA, add(CFA_XSP16, literal(-9)))
        CFI V5 load(1, XDATA, add(CFA_XSP16, literal(-8)))
        CFI V6 load(1, XDATA, add(CFA_XSP16, literal(-7)))
        CFI R7 load(1, XDATA, add(CFA_XSP16, literal(-6)))
        CFI ?RET_LOW load(1, XDATA, add(CFA_XSP16, literal(-5)))
        CFI ?RET_HIGH load(1, XDATA, add(CFA_XSP16, literal(-4)))
        CFI ?BRET_EXT load(1, XDATA, add(CFA_XSP16, literal(-3)))
        CFI DPL0 load(1, XDATA, add(CFA_XSP16, literal(-2)))
        CFI DPH0 load(1, XDATA, add(CFA_XSP16, literal(-1)))
        CFI CFA_SP SP+0
        CFI CFA_XSP16 add(XSP16, 80)
        CFI Block cfiCond8 Using cfiCommon0
        CFI (cfiCond8) NoFunction
        CFI (cfiCond8) Conditional ??CrossCallReturnLabel_1
        CFI (cfiCond8) R6 load(1, XDATA, add(CFA_XSP16, literal(-15)))
        CFI (cfiCond8) VB load(1, XDATA, add(CFA_XSP16, literal(-14)))
        CFI (cfiCond8) V0 load(1, XDATA, add(CFA_XSP16, literal(-13)))
        CFI (cfiCond8) V1 load(1, XDATA, add(CFA_XSP16, literal(-12)))
        CFI (cfiCond8) V2 load(1, XDATA, add(CFA_XSP16, literal(-11)))
        CFI (cfiCond8) V3 load(1, XDATA, add(CFA_XSP16, literal(-10)))
        CFI (cfiCond8) V4 load(1, XDATA, add(CFA_XSP16, literal(-9)))
        CFI (cfiCond8) V5 load(1, XDATA, add(CFA_XSP16, literal(-8)))
        CFI (cfiCond8) V6 load(1, XDATA, add(CFA_XSP16, literal(-7)))
        CFI (cfiCond8) R7 load(1, XDATA, add(CFA_XSP16, literal(-6)))
        CFI (cfiCond8) ?RET_LOW load(1, XDATA, add(CFA_XSP16, literal(-5)))
        CFI (cfiCond8) ?RET_HIGH load(1, XDATA, add(CFA_XSP16, literal(-4)))
        CFI (cfiCond8) ?BRET_EXT load(1, XDATA, add(CFA_XSP16, literal(-3)))
        CFI (cfiCond8) DPL0 load(1, XDATA, add(CFA_XSP16, literal(-2)))
        CFI (cfiCond8) DPH0 load(1, XDATA, add(CFA_XSP16, literal(-1)))
        CFI (cfiCond8) CFA_SP SP+0
        CFI (cfiCond8) CFA_XSP16 add(XSP16, 80)
        CFI Block cfiCond9 Using cfiCommon0
        CFI (cfiCond9) NoFunction
        CFI (cfiCond9) Conditional ??CrossCallReturnLabel_2
        CFI (cfiCond9) R6 load(1, XDATA, add(CFA_XSP16, literal(-15)))
        CFI (cfiCond9) VB load(1, XDATA, add(CFA_XSP16, literal(-14)))
        CFI (cfiCond9) V0 load(1, XDATA, add(CFA_XSP16, literal(-13)))
        CFI (cfiCond9) V1 load(1, XDATA, add(CFA_XSP16, literal(-12)))
        CFI (cfiCond9) V2 load(1, XDATA, add(CFA_XSP16, literal(-11)))
        CFI (cfiCond9) V3 load(1, XDATA, add(CFA_XSP16, literal(-10)))
        CFI (cfiCond9) V4 load(1, XDATA, add(CFA_XSP16, literal(-9)))
        CFI (cfiCond9) V5 load(1, XDATA, add(CFA_XSP16, literal(-8)))
        CFI (cfiCond9) V6 load(1, XDATA, add(CFA_XSP16, literal(-7)))
        CFI (cfiCond9) R7 load(1, XDATA, add(CFA_XSP16, literal(-6)))
        CFI (cfiCond9) ?RET_LOW load(1, XDATA, add(CFA_XSP16, literal(-5)))
        CFI (cfiCond9) ?RET_HIGH load(1, XDATA, add(CFA_XSP16, literal(-4)))
        CFI (cfiCond9) ?BRET_EXT load(1, XDATA, add(CFA_XSP16, literal(-3)))
        CFI (cfiCond9) DPL0 load(1, XDATA, add(CFA_XSP16, literal(-2)))
        CFI (cfiCond9) DPH0 load(1, XDATA, add(CFA_XSP16, literal(-1)))
        CFI (cfiCond9) CFA_SP SP+0
        CFI (cfiCond9) CFA_XSP16 add(XSP16, 80)
        CFI Block cfiCond10 Using cfiCommon0
        CFI (cfiCond10) NoFunction
        CFI (cfiCond10) Conditional ??CrossCallReturnLabel_3
        CFI (cfiCond10) R6 load(1, XDATA, add(CFA_XSP16, literal(-15)))
        CFI (cfiCond10) VB load(1, XDATA, add(CFA_XSP16, literal(-14)))
        CFI (cfiCond10) V0 load(1, XDATA, add(CFA_XSP16, literal(-13)))
        CFI (cfiCond10) V1 load(1, XDATA, add(CFA_XSP16, literal(-12)))
        CFI (cfiCond10) V2 load(1, XDATA, add(CFA_XSP16, literal(-11)))
        CFI (cfiCond10) V3 load(1, XDATA, add(CFA_XSP16, literal(-10)))
        CFI (cfiCond10) V4 load(1, XDATA, add(CFA_XSP16, literal(-9)))
        CFI (cfiCond10) V5 load(1, XDATA, add(CFA_XSP16, literal(-8)))
        CFI (cfiCond10) V6 load(1, XDATA, add(CFA_XSP16, literal(-7)))
        CFI (cfiCond10) R7 load(1, XDATA, add(CFA_XSP16, literal(-6)))
        CFI (cfiCond10) ?RET_LOW load(1, XDATA, add(CFA_XSP16, literal(-5)))
        CFI (cfiCond10) ?RET_HIGH load(1, XDATA, add(CFA_XSP16, literal(-4)))
        CFI (cfiCond10) ?BRET_EXT load(1, XDATA, add(CFA_XSP16, literal(-3)))
        CFI (cfiCond10) DPL0 load(1, XDATA, add(CFA_XSP16, literal(-2)))
        CFI (cfiCond10) DPH0 load(1, XDATA, add(CFA_XSP16, literal(-1)))
        CFI (cfiCond10) CFA_SP SP+0
        CFI (cfiCond10) CFA_XSP16 add(XSP16, 80)
        CFI Block cfiPicker11 Using cfiCommon1
        CFI (cfiPicker11) NoFunction
        CFI (cfiPicker11) Picker
        MOV     DPL,A
        MOV     A,R7
        ADDC    A,#0x0
        MOV     DPH,A
        MOVX    A,@DPTR
        RET
        CFI EndBlock cfiCond7
        CFI EndBlock cfiCond8
        CFI EndBlock cfiCond9
        CFI EndBlock cfiCond10
        CFI EndBlock cfiPicker11

        RSEG XDATA_ID:CODE:NOROOT(0)
`?<Initializer for GwCoord_TaskID>`:
        DATA8
        DB 255

        RSEG XDATA_ID:CODE:NOROOT(0)
`?<Initializer for s_inClusters>`:
        DATA16
        DW 1026
        DW 1029
        DW 1024
        DW 6

        RSEG XDATA_ID:CODE:NOROOT(0)
`?<Initializer for s_outClusters>`:
        DATA16
        DW 6

        RSEG BANK_RELAYS:CODE:REORDER:NOROOT(0)
??GwCoord_SendFrame?relay:
        LCALL   ?BDISPATCH
        DATA
        DC24    GwCoord_SendFrame

        RSEG BANK_RELAYS:CODE:REORDER:NOROOT(0)
??GwCoord_SendErr?relay:
        LCALL   ?BDISPATCH
        DATA
        DC24    GwCoord_SendErr

        RSEG BANK_RELAYS:CODE:REORDER:NOROOT(0)
??GwCoord_OnFrame?relay:
        LCALL   ?BDISPATCH
        DATA
        DC24    GwCoord_OnFrame

        RSEG BANK_RELAYS:CODE:REORDER:NOROOT(0)
??GwCoord_Init?relay:
        LCALL   ?BDISPATCH
        DATA
        DC24    GwCoord_Init

        RSEG BANK_RELAYS:CODE:REORDER:NOROOT(0)
??GwCoord_ProcessEvent?relay:
        LCALL   ?BDISPATCH
        DATA
        DC24    GwCoord_ProcessEvent

        RSEG BANK_RELAYS:CODE:REORDER:NOROOT(0)
??af_to_zb_report?relay:
        LCALL   ?BDISPATCH
        DATA
        DC24    af_to_zb_report

        END
//  225 
//  226 static void on_af_incoming(afIncomingMSGPacket_t *pkt)
//  227 {
//  228     HalLedSet(HAL_LED_2, HAL_LED_MODE_BLINK);
//  229     af_to_zb_report(pkt);
//  230 }
//  231 
//  232 static uint8 role_from_cluster(uint16 cluster)
//  233 {
//  234     if (cluster == ZCL_CLU_TEMP || cluster == ZCL_CLU_HUM) {
//  235         return ZB_ROLE_TEMP_HUM;
//  236     }
//  237     if (cluster == ZCL_CLU_LUX) {
//  238         return ZB_ROLE_LUX;
//  239     }
//  240     return ZB_ROLE_UNKNOWN;
//  241 }
// 
// 903 bytes in segment BANKED_CODE
//  36 bytes in segment BANK_RELAYS
//  11 bytes in segment XDATA_I
//  11 bytes in segment XDATA_ID
//  87 bytes in segment XDATA_Z
// 
// 950 bytes of CODE  memory
//  98 bytes of XDATA memory
//
//Errors: none
//Warnings: 1
