###############################################################################
#                                                                             #
# IAR C/C++ Compiler V8.10.3.10338/W32 for 8051         18/Apr/2026  11:04:35 #
# Copyright 2004-2011 IAR Systems AB.                                         #
#                                                                             #
#    Core               =  plain                                              #
#    Code model         =  banked                                             #
#    Data model         =  large                                              #
#    Calling convention =  xdata reentrant                                    #
#    Constant location  =  data_rom                                           #
#    Dptr setup         =  1,16                                               #
#    Source file        =  D:\ZNJJ\ZStack-CC2530-2.5.1a\Projects\zstack\Sampl #
#                          es\GwCoord\Source\zb_net.c                         #
#    Command line       =  -f D:\ZNJJ\ZStack-CC2530-2.5.1a\Projects\zstack\Sa #
#                          mples\GwCoord\CC2530DB\..\..\..\Tools\CC2530DB\f8w #
#                          Endev.cfg (-DCPU32MHZ -DROOT=__near_func           #
#                          -DMAC_CFG_TX_DATA_MAX=3 -DMAC_CFG_TX_MAX=6         #
#                          -DMAC_CFG_RX_MAX=3) -f D:\ZNJJ\ZStack-CC2530-2.5.1 #
#                          a\Projects\zstack\Samples\GwCoord\CC2530DB\..\..\. #
#                          .\Tools\CC2530DB\f8wConfig.cfg (-DZIGBEEPRO        #
#                          -DSECURE=0 -DZG_SECURE_DYNAMIC=0 -DREFLECTOR       #
#                          -DDEFAULT_CHANLIST=0x00000800                      #
#                          -DZDAPP_CONFIG_PAN_ID=0xFFFF                       #
#                          -DNWK_START_DELAY=100 -DEXTENDED_JOINING_RANDOM_MA #
#                          SK=0x007F -DBEACON_REQUEST_DELAY=100               #
#                          -DBEACON_REQ_DELAY_MASK=0x00FF                     #
#                          -DLINK_STATUS_JITTER_MASK=0x007F                   #
#                          -DROUTE_EXPIRY_TIME=30 -DAPSC_ACK_WAIT_DURATION_PO #
#                          LLED=3000 -DNWK_INDIRECT_MSG_TIMEOUT=7             #
#                          -DMAX_RREQ_ENTRIES=8 -DAPSC_MAX_FRAME_RETRIES=3    #
#                          -DNWK_MAX_DATA_RETRIES=2                           #
#                          -DMAX_POLL_FAILURE_RETRIES=2 -DMAX_BCAST=9         #
#                          -DAPS_MAX_GROUPS=16 -DMAX_RTG_ENTRIES=40           #
#                          -DNWK_MAX_BINDING_ENTRIES=4                        #
#                          -DMAX_BINDING_CLUSTER_IDS=4 "-DDEFAULT_KEY={0x01,  #
#                          0x03, 0x05, 0x07, 0x09, 0x0B, 0x0D, 0x0F, 0x00,    #
#                          0x02, 0x04, 0x06, 0x08, 0x0A, 0x0C, 0x0D}"         #
#                          -DMAC_MAX_FRAME_SIZE=116                           #
#                          -DZDNWKMGR_MIN_TRANSMISSIONS=20 "-DCONST=const     #
#                          __code" -DGENERIC=__generic                        #
#                          -DRFD_RCVC_ALWAYS_ON=FALSE -DPOLL_RATE=1000        #
#                          -DQUEUED_POLL_RATE=100 -DRESPONSE_POLL_RATE=100)   #
#                          -DREJOIN_POLL_RATE=440 D:\ZNJJ\ZStack-CC2530-2.5.1 #
#                          a\Projects\zstack\Samples\GwCoord\Source\zb_net.c  #
#                          -D NWK_AUTO_POLL -D ZTOOL_P1 -D MT_TASK -D         #
#                          MT_SYS_FUNC -D MT_ZDO_FUNC -D LCD_SUPPORTED=DEBUG  #
#                          -lC D:\ZNJJ\ZStack-CC2530-2.5.1a\Projects\zstack\S #
#                          amples\GwCoord\CC2530DB\EndDeviceEB\List\ -lA      #
#                          D:\ZNJJ\ZStack-CC2530-2.5.1a\Projects\zstack\Sampl #
#                          es\GwCoord\CC2530DB\EndDeviceEB\List\              #
#                          --diag_suppress Pe001,Pa010 -o                     #
#                          D:\ZNJJ\ZStack-CC2530-2.5.1a\Projects\zstack\Sampl #
#                          es\GwCoord\CC2530DB\EndDeviceEB\Obj\ -e            #
#                          --no_code_motion --debug --core=plain --dptr=16,1  #
#                          --data_model=large --code_model=banked             #
#                          --calling_convention=xdata_reentrant               #
#                          --place_constants=data_rom --nr_virtual_regs 16    #
#                          -I D:\ZNJJ\ZStack-CC2530-2.5.1a\Projects\zstack\Sa #
#                          mples\GwCoord\CC2530DB\ -I                         #
#                          D:\ZNJJ\ZStack-CC2530-2.5.1a\Projects\zstack\Sampl #
#                          es\GwCoord\CC2530DB\..\Source\ -I                  #
#                          D:\ZNJJ\ZStack-CC2530-2.5.1a\Projects\zstack\Sampl #
#                          es\GwCoord\CC2530DB\..\..\..\ZMain\TI2530DB\ -I    #
#                          D:\ZNJJ\ZStack-CC2530-2.5.1a\Projects\zstack\Sampl #
#                          es\GwCoord\CC2530DB\..\..\..\..\..\Components\hal\ #
#                          include\ -I D:\ZNJJ\ZStack-CC2530-2.5.1a\Projects\ #
#                          zstack\Samples\GwCoord\CC2530DB\..\..\..\..\..\Com #
#                          ponents\hal\target\CC2530EB\ -I                    #
#                          D:\ZNJJ\ZStack-CC2530-2.5.1a\Projects\zstack\Sampl #
#                          es\GwCoord\CC2530DB\..\..\..\..\..\Components\mac\ #
#                          include\ -I D:\ZNJJ\ZStack-CC2530-2.5.1a\Projects\ #
#                          zstack\Samples\GwCoord\CC2530DB\..\..\..\..\..\Com #
#                          ponents\mac\high_level\ -I                         #
#                          D:\ZNJJ\ZStack-CC2530-2.5.1a\Projects\zstack\Sampl #
#                          es\GwCoord\CC2530DB\..\..\..\..\..\Components\mac\ #
#                          low_level\srf04\ -I D:\ZNJJ\ZStack-CC2530-2.5.1a\P #
#                          rojects\zstack\Samples\GwCoord\CC2530DB\..\..\..\. #
#                          .\..\Components\mac\low_level\srf04\single_chip\   #
#                          -I D:\ZNJJ\ZStack-CC2530-2.5.1a\Projects\zstack\Sa #
#                          mples\GwCoord\CC2530DB\..\..\..\..\..\Components\m #
#                          t\ -I D:\ZNJJ\ZStack-CC2530-2.5.1a\Projects\zstack #
#                          \Samples\GwCoord\CC2530DB\..\..\..\..\..\Component #
#                          s\osal\include\ -I D:\ZNJJ\ZStack-CC2530-2.5.1a\Pr #
#                          ojects\zstack\Samples\GwCoord\CC2530DB\..\..\..\.. #
#                          \..\Components\services\saddr\ -I                  #
#                          D:\ZNJJ\ZStack-CC2530-2.5.1a\Projects\zstack\Sampl #
#                          es\GwCoord\CC2530DB\..\..\..\..\..\Components\serv #
#                          ices\sdata\ -I D:\ZNJJ\ZStack-CC2530-2.5.1a\Projec #
#                          ts\zstack\Samples\GwCoord\CC2530DB\..\..\..\..\..\ #
#                          Components\stack\af\ -I D:\ZNJJ\ZStack-CC2530-2.5. #
#                          1a\Projects\zstack\Samples\GwCoord\CC2530DB\..\..\ #
#                          ..\..\..\Components\stack\nwk\ -I                  #
#                          D:\ZNJJ\ZStack-CC2530-2.5.1a\Projects\zstack\Sampl #
#                          es\GwCoord\CC2530DB\..\..\..\..\..\Components\stac #
#                          k\sapi\ -I D:\ZNJJ\ZStack-CC2530-2.5.1a\Projects\z #
#                          stack\Samples\GwCoord\CC2530DB\..\..\..\..\..\Comp #
#                          onents\stack\sec\ -I D:\ZNJJ\ZStack-CC2530-2.5.1a\ #
#                          Projects\zstack\Samples\GwCoord\CC2530DB\..\..\..\ #
#                          ..\..\Components\stack\sys\ -I                     #
#                          D:\ZNJJ\ZStack-CC2530-2.5.1a\Projects\zstack\Sampl #
#                          es\GwCoord\CC2530DB\..\..\..\..\..\Components\stac #
#                          k\zdo\ -I D:\ZNJJ\ZStack-CC2530-2.5.1a\Projects\zs #
#                          tack\Samples\GwCoord\CC2530DB\..\..\..\..\..\Compo #
#                          nents\zmac\ -I D:\ZNJJ\ZStack-CC2530-2.5.1a\Projec #
#                          ts\zstack\Samples\GwCoord\CC2530DB\..\..\..\..\..\ #
#                          Components\zmac\f8w\ -Ohz --require_prototypes     #
#    List file          =  D:\ZNJJ\ZStack-CC2530-2.5.1a\Projects\zstack\Sampl #
#                          es\GwCoord\CC2530DB\EndDeviceEB\List\zb_net.lst    #
#    Object file        =  D:\ZNJJ\ZStack-CC2530-2.5.1a\Projects\zstack\Sampl #
#                          es\GwCoord\CC2530DB\EndDeviceEB\Obj\zb_net.r51     #
#                                                                             #
#                                                                             #
###############################################################################

D:\ZNJJ\ZStack-CC2530-2.5.1a\Projects\zstack\Samples\GwCoord\Source\zb_net.c
      1          /*
                  ^
Warning[Pa050]: non-native end of line sequence detected (this diagnostic is
          only issued once)
      2           * Zigbee 网络层封装：节点表、心跳、入网窗、ZCL 下行。
      3           * 引用规范书 §5 / CC2530.md §5。
      4           */
      5          
      6          #include "zb_net.h"
      7          #include "gw_coord.h"
      8          #include "nv_store.h"
      9          
     10          #include "OSAL.h"
     11          #include "OSAL_Timers.h"
     12          #include "ZDApp.h"
     13          #include "ZDObject.h"
     14          #include "ZDProfile.h"
     15          #include "AF.h"
     16          #include "nwk_util.h"
     17          #include "ZGlobals.h"
     18          
     19          /* ---------- 节点表 ---------- */

   \                                 In  segment XDATA_Z, align 1, keep-with-next
     20          static zb_node_t XDATA_QUAL s_nodes[ZB_NODE_MAX];
   \                     s_nodes:
   \   000000                DS 304
   \   000130                REQUIRE __INIT_XDATA_Z

   \                                 In  segment XDATA_Z, align 1, keep-with-next
     21          static uint8              s_node_cnt = 0;
   \                     s_node_cnt:
   \   000000                DS 1
   \   000001                REQUIRE __INIT_XDATA_Z
     22          
     23          /* ---------- 网络快照 ---------- */

   \                                 In  segment XDATA_Z, align 1, keep-with-next
     24          static uint8  s_dev_state = 0;  /* ZDO devState 原值 */
   \                     s_dev_state:
   \   000000                DS 1
   \   000001                REQUIRE __INIT_XDATA_Z

   \                                 In  segment XDATA_I, align 1, keep-with-next
     25          static uint16 s_panid     = 0xFFFF;
   \                     s_panid:
   \   000000                DS 2
   \   000002                REQUIRE `?<Initializer for s_panid>`
   \   000002                REQUIRE __INIT_XDATA_I

   \                                 In  segment XDATA_I, align 1, keep-with-next
     26          static uint8  s_channel   = ZB_CHANNEL_DEFAULT;
   \                     s_channel:
   \   000000                DS 1
   \   000001                REQUIRE `?<Initializer for s_channel>`
   \   000001                REQUIRE __INIT_XDATA_I

   \                                 In  segment XDATA_Z, align 1, keep-with-next
     27          static uint8  s_allow_join_rem_s = 0;   /* 剩余开放秒 */
   \                     s_allow_join_rem_s:
   \   000000                DS 1
   \   000001                REQUIRE __INIT_XDATA_Z

   \                                 In  segment XDATA_Z, align 1, keep-with-next
     28          static uint32 s_last_tick_ms = 0;
   \                     s_last_tick_ms:
   \   000000                DS 4
   \   000004                REQUIRE __INIT_XDATA_Z
     29          
     30          /* ---------- 内部 ---------- */

   \                                 In  segment BANKED_CODE, align 1, keep-with-next
     31          static zb_node_t *find_slot(uint16 nodeid)
   \                     find_slot:
     32          {
   \   000000   C082         PUSH    DPL
   \   000002   C083         PUSH    DPH
   \   000004                ; Saved register size: 2
   \   000004                ; Auto size: 0
     33              uint8 i;
     34              for (i = 0; i < s_node_cnt; ++i) {
   \   000004   7D00         MOV     R5,#0x0
   \   000006   8001         SJMP    ??find_slot_0
   \                     ??find_slot_1:
   \   000008   0D           INC     R5
   \                     ??find_slot_0:
   \   000009   90....       MOV     DPTR,#s_node_cnt
   \   00000C   E0           MOVX    A,@DPTR
   \   00000D   F8           MOV     R0,A
   \   00000E   ED           MOV     A,R5
   \   00000F   C3           CLR     C
   \   000010   98           SUBB    A,R0
   \   000011   501D         JNC     ??find_slot_2
     35                  if (s_nodes[i].nodeid == nodeid) return &s_nodes[i];
   \   000013   ED           MOV     A,R5
   \   000014   75F013       MOV     B,#0x13
   \   000017   A4           MUL     AB
   \   000018   F8           MOV     R0,A
   \   000019   A9F0         MOV     R1,B
   \   00001B   12....       LCALL   ?Subroutine5 & 0xFFFF
   \                     ??CrossCallReturnLabel_2:
   \   00001E   6A           XRL     A,R2
   \   00001F   7003         JNZ     ??find_slot_3
   \   000021   A3           INC     DPTR
   \   000022   E0           MOVX    A,@DPTR
   \   000023   6B           XRL     A,R3
   \                     ??find_slot_3:
   \   000024   70E2         JNZ     ??find_slot_1
   \   000026   74..         MOV     A,#s_nodes & 0xff
   \   000028   28           ADD     A,R0
   \   000029   FA           MOV     R2,A
   \   00002A   74..         MOV     A,#(s_nodes >> 8) & 0xff
   \   00002C   39           ADDC    A,R1
   \   00002D   FB           MOV     R3,A
   \   00002E   8004         SJMP    ??find_slot_4
     36              }
     37              return 0;
   \                     ??find_slot_2:
   \   000030   7A00         MOV     R2,#0x0
   \   000032   7B00         MOV     R3,#0x0
   \                     ??find_slot_4:
   \   000034   02....       LJMP    ?Subroutine0 & 0xFFFF
     38          }

   \                                 In  segment BANKED_CODE, align 1, keep-with-next
   \                     ?Subroutine5:
   \   000000   74..         MOV     A,#s_nodes & 0xff
   \   000002   28           ADD     A,R0
   \   000003   F582         MOV     DPL,A
   \   000005   74..         MOV     A,#(s_nodes >> 8) & 0xff
   \   000007   39           ADDC    A,R1
   \   000008   F583         MOV     DPH,A
   \   00000A   E0           MOVX    A,@DPTR
   \   00000B   22           RET

   \                                 In  segment BANKED_CODE, align 1, keep-with-next
   \                     ?Subroutine0:
   \   000000   D083         POP     DPH
   \   000002   D082         POP     DPL
   \   000004   02....       LJMP    ?BRET
     39          

   \                                 In  segment BANKED_CODE, align 1, keep-with-next
     40          static zb_node_t *alloc_slot(void)
   \                     alloc_slot:
     41          {
   \   000000   74F0         MOV     A,#-0x10
   \   000002   12....       LCALL   ?BANKED_ENTER_XDATA
   \   000005                ; Saved register size: 16
   \   000005                ; Auto size: 0
     42              if (s_node_cnt >= ZB_NODE_MAX) {
   \   000005   90....       MOV     DPTR,#s_node_cnt
   \   000008   E0           MOVX    A,@DPTR
   \   000009   C3           CLR     C
   \   00000A   9410         SUBB    A,#0x10
   \   00000C   4055         JC      ??alloc_slot_0
     43                  /* 简单 LRU：挑 last_seen 最久的替换 */
     44                  uint8 i, oldest = 0;
   \   00000E   75..00       MOV     ?V0 + 0,#0x0
     45                  uint32 oldest_ms = s_nodes[0].last_seen_ms;
   \   000011   90....       MOV     DPTR,#s_nodes + 13
   \   000014   78..         MOV     R0,#?V0 + 4
   \   000016   12....       LCALL   ?L_MOV_X
     46                  for (i = 1; i < ZB_NODE_MAX; ++i) {
   \   000019   7B01         MOV     R3,#0x1
     47                      if (s_nodes[i].last_seen_ms < oldest_ms) {
   \                     ??alloc_slot_1:
   \   00001B   EB           MOV     A,R3
   \   00001C   75F013       MOV     B,#0x13
   \   00001F   A4           MUL     AB
   \   000020   F8           MOV     R0,A
   \   000021   A9F0         MOV     R1,B
   \   000023   12....       LCALL   ?Subroutine4 & 0xFFFF
   \                     ??CrossCallReturnLabel_0:
   \   000026   12....       LCALL   ?UL_GT_X
   \   000029   500E         JNC     ??alloc_slot_2
     48                          oldest_ms = s_nodes[i].last_seen_ms;
   \   00002B   EB           MOV     A,R3
   \   00002C   75F013       MOV     B,#0x13
   \   00002F   A4           MUL     AB
   \   000030   F8           MOV     R0,A
   \   000031   12....       LCALL   ?Subroutine4 & 0xFFFF
   \                     ??CrossCallReturnLabel_1:
   \   000034   12....       LCALL   ?L_MOV_X
     49                          oldest = i;
   \   000037   8B..         MOV     ?V0 + 0,R3
     50                      }
     51                  }
   \                     ??alloc_slot_2:
   \   000039   0B           INC     R3
   \   00003A   EB           MOV     A,R3
   \   00003B   C3           CLR     C
   \   00003C   9410         SUBB    A,#0x10
   \   00003E   40DB         JC      ??alloc_slot_1
     52                  osal_memset(&s_nodes[oldest], 0, sizeof(zb_node_t));
   \   000040   E5..         MOV     A,?V0 + 0
   \   000042   75F013       MOV     B,#0x13
   \   000045   A4           MUL     AB
   \   000046   F8           MOV     R0,A
   \   000047   A9F0         MOV     R1,B
   \   000049   74..         MOV     A,#s_nodes & 0xff
   \   00004B   28           ADD     A,R0
   \   00004C   FE           MOV     R6,A
   \   00004D   74..         MOV     A,#(s_nodes >> 8) & 0xff
   \   00004F   39           ADDC    A,R1
   \   000050   FF           MOV     R7,A
   \   000051                ; Setup parameters for call to function osal_memset
   \   000051   7C13         MOV     R4,#0x13
   \   000053   7D00         MOV     R5,#0x0
   \   000055   7900         MOV     R1,#0x0
   \   000057   EE           MOV     A,R6
   \   000058   FA           MOV     R2,A
   \   000059   EF           MOV     A,R7
   \   00005A   FB           MOV     R3,A
   \   00005B   12....       LCALL   ??osal_memset?relay
     53                  return &s_nodes[oldest];
   \   00005E   EE           MOV     A,R6
   \   00005F   FA           MOV     R2,A
   \   000060   EF           MOV     A,R7
   \   000061   8030         SJMP    ??alloc_slot_3
     54              }
     55              osal_memset(&s_nodes[s_node_cnt], 0, sizeof(zb_node_t));
   \                     ??alloc_slot_0:
   \   000063                ; Setup parameters for call to function osal_memset
   \   000063   7C13         MOV     R4,#0x13
   \   000065   7D00         MOV     R5,#0x0
   \   000067   7900         MOV     R1,#0x0
   \   000069   E0           MOVX    A,@DPTR
   \   00006A   8CF0         MOV     B,R4
   \   00006C   A4           MUL     AB
   \   00006D   FA           MOV     R2,A
   \   00006E   ABF0         MOV     R3,B
   \   000070   74..         MOV     A,#s_nodes & 0xff
   \   000072   2A           ADD     A,R2
   \   000073   FA           MOV     R2,A
   \   000074   74..         MOV     A,#(s_nodes >> 8) & 0xff
   \   000076   3B           ADDC    A,R3
   \   000077   FB           MOV     R3,A
   \   000078   12....       LCALL   ??osal_memset?relay
     56              return &s_nodes[s_node_cnt++];
   \   00007B   90....       MOV     DPTR,#s_node_cnt
   \   00007E   E0           MOVX    A,@DPTR
   \   00007F   F8           MOV     R0,A
   \   000080   7401         MOV     A,#0x1
   \   000082   28           ADD     A,R0
   \   000083   F0           MOVX    @DPTR,A
   \   000084   E8           MOV     A,R0
   \   000085   75F013       MOV     B,#0x13
   \   000088   A4           MUL     AB
   \   000089   F8           MOV     R0,A
   \   00008A   A9F0         MOV     R1,B
   \   00008C   74..         MOV     A,#s_nodes & 0xff
   \   00008E   28           ADD     A,R0
   \   00008F   FA           MOV     R2,A
   \   000090   74..         MOV     A,#(s_nodes >> 8) & 0xff
   \   000092   39           ADDC    A,R1
   \                     ??alloc_slot_3:
   \   000093   FB           MOV     R3,A
   \   000094                REQUIRE ?Subroutine1
   \   000094                ; // Fall through to label ?Subroutine1
     57          }

   \                                 In  segment BANKED_CODE, align 1, keep-with-next
   \                     ?Subroutine1:
   \   000000   7F08         MOV     R7,#0x8
   \   000002   02....       LJMP    ?BANKED_LEAVE_XDATA

   \                                 In  segment BANKED_CODE, align 1, keep-with-next
   \                     ?Subroutine4:
   \   000000   12....       LCALL   ?Subroutine7 & 0xFFFF
   \                     ??CrossCallReturnLabel_8:
   \   000003   78..         MOV     R0,#?V0 + 4
   \   000005   22           RET

   \                                 In  segment BANKED_CODE, align 1, keep-with-next
   \                     ?Subroutine7:
   \   000000   74..         MOV     A,#(s_nodes + 13) & 0xff
   \   000002   28           ADD     A,R0
   \   000003   F582         MOV     DPL,A
   \   000005   74..         MOV     A,#((s_nodes + 13) >> 8) & 0xff
   \   000007   39           ADDC    A,R1
   \   000008   F583         MOV     DPH,A
   \   00000A   22           RET
     58          
     59          /* ---------- 接口 ---------- */

   \                                 In  segment BANKED_CODE, align 1, keep-with-next
     60          void zb_net_init(void)
   \                     zb_net_init:
     61          {
   \   000000   C082         PUSH    DPL
   \   000002   C083         PUSH    DPH
   \   000004                ; Saved register size: 2
   \   000004                ; Auto size: 3
   \   000004   74FD         MOV     A,#-0x3
   \   000006   12....       LCALL   ?ALLOC_XSTACK8
     62              uint16 nv_pan = 0xFFFF;
   \   000009   7401         MOV     A,#0x1
   \   00000B   12....       LCALL   ?XSTACK_DISP0_8
   \   00000E   74FF         MOV     A,#-0x1
   \   000010   F0           MOVX    @DPTR,A
   \   000011   A3           INC     DPTR
   \   000012   12....       LCALL   ?Subroutine6 & 0xFFFF
     63              uint8  nv_ch  = ZB_CHANNEL_DEFAULT;
   \                     ??CrossCallReturnLabel_4:
   \   000015   740F         MOV     A,#0xf
   \   000017   F0           MOVX    @DPTR,A
     64              osal_memset(s_nodes, 0, sizeof(s_nodes));
   \   000018                ; Setup parameters for call to function osal_memset
   \   000018   7C30         MOV     R4,#0x30
   \   00001A   7D01         MOV     R5,#0x1
   \   00001C   7900         MOV     R1,#0x0
   \   00001E   7A..         MOV     R2,#s_nodes & 0xff
   \   000020   7B..         MOV     R3,#(s_nodes >> 8) & 0xff
   \   000022   12....       LCALL   ??osal_memset?relay
     65              s_node_cnt = 0;
   \   000025   90....       MOV     DPTR,#s_node_cnt
   \   000028   E4           CLR     A
   \   000029   F0           MOVX    @DPTR,A
     66          
     67              if (nv_load_u16(NV_ID_PANID, &nv_pan) == 0 && nv_pan != 0xFFFF) {
   \   00002A                ; Setup parameters for call to function nv_load_u16
   \   00002A   04           INC     A
   \   00002B   12....       LCALL   ?XSTACK_DISP0_8
   \   00002E   AC82         MOV     R4,DPL
   \   000030   AD83         MOV     R5,DPH
   \   000032   7A01         MOV     R2,#0x1
   \   000034   7BF0         MOV     R3,#-0x10
   \   000036   12....       LCALL   ??nv_load_u16?relay
   \   000039   E9           MOV     A,R1
   \   00003A   7027         JNZ     ??zb_net_init_0
   \   00003C   7401         MOV     A,#0x1
   \   00003E   12....       LCALL   ?XSTACK_DISP0_8
   \   000041   E0           MOVX    A,@DPTR
   \   000042   F4           CPL     A
   \   000043   7003         JNZ     ??zb_net_init_1
   \   000045   A3           INC     DPTR
   \   000046   E0           MOVX    A,@DPTR
   \   000047   F4           CPL     A
   \                     ??zb_net_init_1:
   \   000048   6019         JZ      ??zb_net_init_0
     68                  s_panid = nv_pan;
   \   00004A   7401         MOV     A,#0x1
   \   00004C   12....       LCALL   ?XSTACK_DISP0_8
   \   00004F   E0           MOVX    A,@DPTR
   \   000050   F8           MOV     R0,A
   \   000051   A3           INC     DPTR
   \   000052   E0           MOVX    A,@DPTR
   \   000053   F9           MOV     R1,A
   \   000054   90....       MOV     DPTR,#s_panid
   \   000057   E8           MOV     A,R0
   \   000058   F0           MOVX    @DPTR,A
   \   000059   A3           INC     DPTR
   \   00005A   E9           MOV     A,R1
   \   00005B   F0           MOVX    @DPTR,A
     69                  ZDO_Config_Node_Descriptor.LogicalType = NODETYPE_COORDINATOR;
   \   00005C   90....       MOV     DPTR,#ZDO_Config_Node_Descriptor
   \   00005F   E0           MOVX    A,@DPTR
   \   000060   54F8         ANL     A,#0xf8
   \   000062   F0           MOVX    @DPTR,A
     70              }
     71              if (nv_load_u8(NV_ID_CHANNEL, &nv_ch) == 0 && nv_ch != 0xFF) {
   \                     ??zb_net_init_0:
   \   000063                ; Setup parameters for call to function nv_load_u8
   \   000063   85..82       MOV     DPL,?XSP + 0
   \   000066   85..83       MOV     DPH,?XSP + 1
   \   000069   AC82         MOV     R4,DPL
   \   00006B   AD83         MOV     R5,DPH
   \   00006D   7A02         MOV     R2,#0x2
   \   00006F   7BF0         MOV     R3,#-0x10
   \   000071   12....       LCALL   ??nv_load_u8?relay
   \   000074   E9           MOV     A,R1
   \   000075   700F         JNZ     ??zb_net_init_2
   \   000077   85..82       MOV     DPL,?XSP + 0
   \   00007A   85..83       MOV     DPH,?XSP + 1
   \   00007D   E0           MOVX    A,@DPTR
   \   00007E   F4           CPL     A
   \   00007F   6005         JZ      ??zb_net_init_2
     72                  s_channel = nv_ch;
   \   000081   E0           MOVX    A,@DPTR
   \   000082   90....       MOV     DPTR,#s_channel
   \   000085   F0           MOVX    @DPTR,A
     73              }
     74              s_last_tick_ms = osal_GetSystemClock();
   \                     ??zb_net_init_2:
   \   000086                ; Setup parameters for call to function osal_GetSystemClock
   \   000086   12....       LCALL   ??osal_GetSystemClock?relay
   \   000089   90....       MOV     DPTR,#s_last_tick_ms
   \   00008C   12....       LCALL   ?XSTORE_R2345
     75          }
   \   00008F   7403         MOV     A,#0x3
   \   000091   12....       LCALL   ?DEALLOC_XSTACK8
   \   000094   02....       LJMP    ?Subroutine0 & 0xFFFF

   \                                 In  segment BANKED_CODE, align 1, keep-with-next
   \                     ?Subroutine6:
   \   000000   F0           MOVX    @DPTR,A
   \   000001   85..82       MOV     DPL,?XSP + 0
   \   000004   85..83       MOV     DPH,?XSP + 1
   \   000007   22           RET
     76          

   \                                 In  segment BANKED_CODE, align 1, keep-with-next
     77          void zb_net_tick(uint32 now_ms)
   \                     zb_net_tick:
     78          {
   \   000000   74EC         MOV     A,#-0x14
   \   000002   12....       LCALL   ?BANKED_ENTER_XDATA
   \   000005                ; Saved register size: 20
   \   000005                ; Auto size: 0
   \   000005   8A..         MOV     ?V0 + 4,R2
   \   000007   8B..         MOV     ?V0 + 5,R3
   \   000009   8C..         MOV     ?V0 + 6,R4
   \   00000B   8D..         MOV     ?V0 + 7,R5
     79              uint32 delta;
     80              uint8  i;
     81              if (now_ms - s_last_tick_ms < 1000) return;
   \   00000D   8A..         MOV     ?V0 + 0,R2
   \   00000F   8B..         MOV     ?V0 + 1,R3
   \   000011   8C..         MOV     ?V0 + 2,R4
   \   000013   8D..         MOV     ?V0 + 3,R5
   \   000015   90....       MOV     DPTR,#s_last_tick_ms
   \   000018   78..         MOV     R0,#?V0 + 0
   \   00001A   12....       LCALL   ?L_SUB_X
   \   00001D   90....       MOV     DPTR,#__Constant_3e8
   \   000020   78..         MOV     R0,#?V0 + 0
   \   000022   12....       LCALL   ?UL_GE_X
   \   000025   4003         JC      $+5
   \   000027   02....       LJMP    ??zb_net_tick_0 & 0xFFFF
     82              delta = (now_ms - s_last_tick_ms) / 1000;
   \   00002A   8A..         MOV     ?V0 + 0,R2
   \   00002C   8B..         MOV     ?V0 + 1,R3
   \   00002E   8C..         MOV     ?V0 + 2,R4
   \   000030   8D..         MOV     ?V0 + 3,R5
   \   000032   90....       MOV     DPTR,#s_last_tick_ms
   \   000035   78..         MOV     R0,#?V0 + 0
   \   000037   12....       LCALL   ?L_SUB_X
   \   00003A   90....       MOV     DPTR,#__Constant_3e8
   \   00003D   78..         MOV     R0,#?V0 + 8
   \   00003F   12....       LCALL   ?L_MOV_X
   \   000042   78..         MOV     R0,#?V0 + 0
   \   000044   79..         MOV     R1,#?V0 + 8
   \   000046   12....       LCALL   ?UL_DIV_MOD
     83              s_last_tick_ms = now_ms;
   \   000049   90....       MOV     DPTR,#s_last_tick_ms
   \   00004C   78..         MOV     R0,#?V0 + 4
   \   00004E   12....       LCALL   ?L_MOV_TO_X
     84          
     85              /* 允许入网倒计时 */
     86              if (s_allow_join_rem_s != 0xFF && s_allow_join_rem_s > 0) {
   \   000051   90....       MOV     DPTR,#s_allow_join_rem_s
   \   000054   E0           MOVX    A,@DPTR
   \   000055   F4           CPL     A
   \   000056   6022         JZ      ??zb_net_tick_1
   \   000058   E0           MOVX    A,@DPTR
   \   000059   601F         JZ      ??zb_net_tick_1
     87                  if (delta >= s_allow_join_rem_s) {
   \   00005B   F5..         MOV     ?V0 + 8,A
   \   00005D   E4           CLR     A
   \   00005E   F5..         MOV     ?V0 + 9,A
   \   000060   F5..         MOV     ?V0 + 10,A
   \   000062   F5..         MOV     ?V0 + 11,A
   \   000064   78..         MOV     R0,#?V0 + 8
   \   000066   79..         MOV     R1,#?V0 + 0
   \   000068   12....       LCALL   ?UL_GT
   \   00006B   4008         JC      ??zb_net_tick_2
     88                      s_allow_join_rem_s = 0;
   \   00006D   E4           CLR     A
   \   00006E   F0           MOVX    @DPTR,A
     89                      NLME_PermitJoiningRequest(0);
   \   00006F                ; Setup parameters for call to function NLME_PermitJoiningRequest
   \   00006F   F9           MOV     R1,A
   \   000070   12....       LCALL   ??NLME_PermitJoiningRequest?relay
   \   000073   8005         SJMP    ??zb_net_tick_1
     90                  } else {
     91                      s_allow_join_rem_s = (uint8)(s_allow_join_rem_s - delta);
   \                     ??zb_net_tick_2:
   \   000075   E0           MOVX    A,@DPTR
   \   000076   C3           CLR     C
   \   000077   95..         SUBB    A,?V0 + 0
   \   000079   F0           MOVX    @DPTR,A
     92                  }
     93              }
     94          
     95              /* 心跳：每节点 last_seen 超过 3*60 s 判离线 */
     96              for (i = 0; i < s_node_cnt; ++i) {
   \                     ??zb_net_tick_1:
   \   00007A   7E00         MOV     R6,#0x0
   \   00007C   8046         SJMP    ??zb_net_tick_3
     97                  if ((s_nodes[i].flags & 0x01) &&
     98                      (now_ms - s_nodes[i].last_seen_ms) > (uint32)(3u * ZB_HEARTBEAT_S * 1000u)) {
   \                     ??zb_net_tick_4:
   \   00007E   EE           MOV     A,R6
   \   00007F   75F013       MOV     B,#0x13
   \   000082   A4           MUL     AB
   \   000083   F8           MOV     R0,A
   \   000084   A9F0         MOV     R1,B
   \   000086   74..         MOV     A,#(s_nodes + 17) & 0xff
   \   000088   28           ADD     A,R0
   \   000089   F582         MOV     DPL,A
   \   00008B   74..         MOV     A,#((s_nodes + 17) >> 8) & 0xff
   \   00008D   39           ADDC    A,R1
   \   00008E   F583         MOV     DPH,A
   \   000090   E0           MOVX    A,@DPTR
   \   000091   A2E0         MOV     C,0xE0 /* A   */.0
   \   000093   502E         JNC     ??zb_net_tick_5
   \   000095   85....       MOV     ?V0 + 0,?V0 + 4
   \   000098   85....       MOV     ?V0 + 1,?V0 + 5
   \   00009B   85....       MOV     ?V0 + 2,?V0 + 6
   \   00009E   85....       MOV     ?V0 + 3,?V0 + 7
   \   0000A1   12....       LCALL   ?Subroutine7 & 0xFFFF
   \                     ??CrossCallReturnLabel_7:
   \   0000A4   78..         MOV     R0,#?V0 + 0
   \   0000A6   12....       LCALL   ?L_SUB_X
   \   0000A9   90....       MOV     DPTR,#__Constant_bf21
   \   0000AC   78..         MOV     R0,#?V0 + 0
   \   0000AE   12....       LCALL   ?UL_GE_X
   \   0000B1   5010         JNC     ??zb_net_tick_5
     99                      zb_net_mark_offline(s_nodes[i].nodeid);
   \   0000B3                ; Setup parameters for call to function zb_net_mark_offline
   \   0000B3   EE           MOV     A,R6
   \   0000B4   75F013       MOV     B,#0x13
   \   0000B7   A4           MUL     AB
   \   0000B8   F8           MOV     R0,A
   \   0000B9   12....       LCALL   ?Subroutine5 & 0xFFFF
    100                  }
    101              }
   \                     ??CrossCallReturnLabel_3:
   \   0000BC   FA           MOV     R2,A
   \   0000BD   A3           INC     DPTR
   \   0000BE   E0           MOVX    A,@DPTR
   \   0000BF   FB           MOV     R3,A
   \   0000C0   12....       LCALL   ??zb_net_mark_offline?relay
   \                     ??zb_net_tick_5:
   \   0000C3   0E           INC     R6
   \                     ??zb_net_tick_3:
   \   0000C4   90....       MOV     DPTR,#s_node_cnt
   \   0000C7   E0           MOVX    A,@DPTR
   \   0000C8   F8           MOV     R0,A
   \   0000C9   EE           MOV     A,R6
   \   0000CA   C3           CLR     C
   \   0000CB   98           SUBB    A,R0
   \   0000CC   40B0         JC      ??zb_net_tick_4
   \                     ??zb_net_tick_0:
   \   0000CE   7F0C         MOV     R7,#0xc
   \   0000D0   02....       LJMP    ?BANKED_LEAVE_XDATA
    102          }
    103          

   \                                 In  segment BANKED_CODE, align 1, keep-with-next
    104          void zb_net_allow_join(uint8 sec)
   \                     zb_net_allow_join:
    105          {
   \   000000   74F7         MOV     A,#-0x9
   \   000002   12....       LCALL   ?BANKED_ENTER_XDATA
   \   000005                ; Saved register size: 9
   \   000005                ; Auto size: 0
   \   000005   E9           MOV     A,R1
   \   000006   FE           MOV     R6,A
    106              if (sec == 0) {
   \   000007   700B         JNZ     ??zb_net_allow_join_0
    107                  NLME_PermitJoiningRequest(0);
   \   000009                ; Setup parameters for call to function NLME_PermitJoiningRequest
   \   000009   7900         MOV     R1,#0x0
   \   00000B   12....       LCALL   ??NLME_PermitJoiningRequest?relay
    108                  s_allow_join_rem_s = 0;
   \   00000E   90....       MOV     DPTR,#s_allow_join_rem_s
   \   000011   E4           CLR     A
   \   000012   8018         SJMP    ??zb_net_allow_join_1
    109              } else if (sec == 0xFF) {
   \                     ??zb_net_allow_join_0:
   \   000014   74FF         MOV     A,#-0x1
   \   000016   6E           XRL     A,R6
   \   000017   700C         JNZ     ??zb_net_allow_join_2
    110                  NLME_PermitJoiningRequest(0xFF);
   \   000019                ; Setup parameters for call to function NLME_PermitJoiningRequest
   \   000019   79FF         MOV     R1,#-0x1
   \   00001B   12....       LCALL   ??NLME_PermitJoiningRequest?relay
    111                  s_allow_join_rem_s = 0xFF;
   \   00001E   90....       MOV     DPTR,#s_allow_join_rem_s
   \   000021   74FF         MOV     A,#-0x1
   \   000023   8007         SJMP    ??zb_net_allow_join_1
    112              } else {
    113                  NLME_PermitJoiningRequest(sec);
   \                     ??zb_net_allow_join_2:
   \   000025                ; Setup parameters for call to function NLME_PermitJoiningRequest
   \   000025   12....       LCALL   ??NLME_PermitJoiningRequest?relay
    114                  s_allow_join_rem_s = sec;
   \   000028   EE           MOV     A,R6
   \   000029   90....       MOV     DPTR,#s_allow_join_rem_s
   \                     ??zb_net_allow_join_1:
   \   00002C   F0           MOVX    @DPTR,A
    115              }
    116          }
   \   00002D                REQUIRE ?Subroutine2
   \   00002D                ; // Fall through to label ?Subroutine2

   \                                 In  segment BANKED_CODE, align 1, keep-with-next
   \                     ?Subroutine2:
   \   000000   7F01         MOV     R7,#0x1
   \   000002   02....       LJMP    ?BANKED_LEAVE_XDATA
    117          

   \                                 In  segment BANKED_CODE, align 1, keep-with-next
    118          zb_node_t *zb_net_find(uint16 nodeid) { return find_slot(nodeid); }
   \                     zb_net_find:
   \   000000   C082         PUSH    DPL
   \   000002   C083         PUSH    DPH
   \   000004                ; Saved register size: 2
   \   000004                ; Auto size: 0
   \   000004                ; Setup parameters for call to function find_slot
   \   000004   12....       LCALL   ??find_slot?relay
   \   000007                REQUIRE ?Subroutine0
   \   000007                ; // Fall through to label ?Subroutine0
    119          

   \                                 In  segment BANKED_CODE, align 1, keep-with-next
    120          zb_node_t *zb_net_touch(uint16 nodeid, const uint8 *ieee, uint8 type, int8 rssi)
   \                     zb_net_touch:
    121          {
   \   000000   74F0         MOV     A,#-0x10
   \   000002   12....       LCALL   ?BANKED_ENTER_XDATA
   \   000005                ; Saved register size: 16
   \   000005                ; Auto size: 0
   \   000005   8A..         MOV     ?V0 + 4,R2
   \   000007   8B..         MOV     ?V0 + 5,R3
   \   000009   8C..         MOV     ?V0 + 0,R4
   \   00000B   8D..         MOV     ?V0 + 1,R5
   \   00000D   89..         MOV     ?V0 + 2,R1
   \   00000F   7410         MOV     A,#0x10
   \   000011   12....       LCALL   ?XSTACK_DISP0_8
   \   000014   E0           MOVX    A,@DPTR
   \   000015   F5..         MOV     ?V0 + 3,A
    122              zb_node_t *n = find_slot(nodeid);
   \   000017                ; Setup parameters for call to function find_slot
   \   000017   12....       LCALL   ??find_slot?relay
   \   00001A   8A..         MOV     ?V0 + 6,R2
   \   00001C   8B..         MOV     ?V0 + 7,R3
   \   00001E   AE..         MOV     R6,?V0 + 6
   \   000020   AF..         MOV     R7,?V0 + 7
    123              if (n == 0) n = alloc_slot();
   \   000022   EE           MOV     A,R6
   \   000023   4F           ORL     A,R7
   \   000024   700B         JNZ     ??zb_net_touch_0
   \   000026                ; Setup parameters for call to function alloc_slot
   \   000026   12....       LCALL   ??alloc_slot?relay
   \   000029   8A..         MOV     ?V0 + 6,R2
   \   00002B   8B..         MOV     ?V0 + 7,R3
   \   00002D   AE..         MOV     R6,?V0 + 6
   \   00002F   AF..         MOV     R7,?V0 + 7
    124              if (n == 0) return 0;
   \                     ??zb_net_touch_0:
   \   000031   EE           MOV     A,R6
   \   000032   4F           ORL     A,R7
   \   000033   7007         JNZ     ??zb_net_touch_1
   \   000035   7A00         MOV     R2,#0x0
   \   000037   7B00         MOV     R3,#0x0
   \   000039   02....       LJMP    ??zb_net_touch_2 & 0xFFFF
    125              n->nodeid = nodeid;
   \                     ??zb_net_touch_1:
   \   00003C   8E82         MOV     DPL,R6
   \   00003E   8F83         MOV     DPH,R7
   \   000040   E5..         MOV     A,?V0 + 4
   \   000042   F0           MOVX    @DPTR,A
   \   000043   A3           INC     DPTR
   \   000044   E5..         MOV     A,?V0 + 5
   \   000046   F0           MOVX    @DPTR,A
    126              if (ieee) osal_memcpy(n->ieee, ieee, 8);
   \   000047   E5..         MOV     A,?V0 + 0
   \   000049   45..         ORL     A,?V0 + 1
   \   00004B   6022         JZ      ??zb_net_touch_3
   \   00004D                ; Setup parameters for call to function osal_memcpy
   \   00004D   85....       MOV     ?V0 + 4,?V0 + 0
   \   000050   85....       MOV     ?V0 + 5,?V0 + 1
   \   000053   75..00       MOV     ?V0 + 6,#0x0
   \   000056   78..         MOV     R0,#?V0 + 4
   \   000058   12....       LCALL   ?PUSH_XSTACK_I_THREE
   \   00005B   7C08         MOV     R4,#0x8
   \   00005D   7D00         MOV     R5,#0x0
   \   00005F   EE           MOV     A,R6
   \   000060   2402         ADD     A,#0x2
   \   000062   FA           MOV     R2,A
   \   000063   EF           MOV     A,R7
   \   000064   3400         ADDC    A,#0x0
   \   000066   FB           MOV     R3,A
   \   000067   12....       LCALL   ??osal_memcpy?relay
   \   00006A   7403         MOV     A,#0x3
   \   00006C   12....       LCALL   ?DEALLOC_XSTACK8
    127              if (type != ZB_DEV_UNKNOWN) {
   \                     ??zb_net_touch_3:
   \   00006F   E5..         MOV     A,?V0 + 2
   \   000071   600F         JZ      ??zb_net_touch_4
    128                  n->type = type;
   \   000073   8E82         MOV     DPL,R6
   \   000075   8F83         MOV     DPH,R7
   \   000077   A3           INC     DPTR
   \   000078   A3           INC     DPTR
   \   000079   A3           INC     DPTR
   \   00007A   A3           INC     DPTR
   \   00007B   A3           INC     DPTR
   \   00007C   A3           INC     DPTR
   \   00007D   A3           INC     DPTR
   \   00007E   A3           INC     DPTR
   \   00007F   A3           INC     DPTR
   \   000080   A3           INC     DPTR
   \   000081   F0           MOVX    @DPTR,A
    129              }
    130              n->rssi = rssi;
   \                     ??zb_net_touch_4:
   \   000082   EE           MOV     A,R6
   \   000083   240C         ADD     A,#0xc
   \   000085   F582         MOV     DPL,A
   \   000087   EF           MOV     A,R7
   \   000088   3400         ADDC    A,#0x0
   \   00008A   F583         MOV     DPH,A
   \   00008C   E5..         MOV     A,?V0 + 3
   \   00008E   F0           MOVX    @DPTR,A
    131              n->last_seen_ms = osal_GetSystemClock();
   \   00008F                ; Setup parameters for call to function osal_GetSystemClock
   \   00008F   12....       LCALL   ??osal_GetSystemClock?relay
   \   000092   EE           MOV     A,R6
   \   000093   240D         ADD     A,#0xd
   \   000095   F582         MOV     DPL,A
   \   000097   EF           MOV     A,R7
   \   000098   3400         ADDC    A,#0x0
   \   00009A   F583         MOV     DPH,A
   \   00009C   12....       LCALL   ?XSTORE_R2345
    132              n->flags |= 0x01;
   \   00009F   EE           MOV     A,R6
   \   0000A0   2411         ADD     A,#0x11
   \   0000A2   F582         MOV     DPL,A
   \   0000A4   EF           MOV     A,R7
   \   0000A5   3400         ADDC    A,#0x0
   \   0000A7   F583         MOV     DPH,A
   \   0000A9   E0           MOVX    A,@DPTR
   \   0000AA   D2E0         SETB    0xE0 /* A   */.0
   \   0000AC   F0           MOVX    @DPTR,A
    133              n->miss_cnt = 0;
   \   0000AD   EE           MOV     A,R6
   \   0000AE   2412         ADD     A,#0x12
   \   0000B0   F582         MOV     DPL,A
   \   0000B2   EF           MOV     A,R7
   \   0000B3   3400         ADDC    A,#0x0
   \   0000B5   F583         MOV     DPH,A
   \   0000B7   E4           CLR     A
   \   0000B8   F0           MOVX    @DPTR,A
    134              return n;
   \   0000B9   EE           MOV     A,R6
   \   0000BA   FA           MOV     R2,A
   \   0000BB   EF           MOV     A,R7
   \   0000BC   FB           MOV     R3,A
   \                     ??zb_net_touch_2:
   \   0000BD   02....       LJMP    ?Subroutine1 & 0xFFFF
    135          }
    136          

   \                                 In  segment BANKED_CODE, align 1, keep-with-next
    137          uint8 zb_net_count(void) { return s_node_cnt; }
   \                     zb_net_count:
   \   000000   C082         PUSH    DPL
   \   000002   C083         PUSH    DPH
   \   000004                ; Saved register size: 2
   \   000004                ; Auto size: 0
   \   000004   90....       MOV     DPTR,#s_node_cnt
   \   000007   E0           MOVX    A,@DPTR
   \   000008   F9           MOV     R1,A
   \   000009   02....       LJMP    ?Subroutine0 & 0xFFFF
    138          

   \                                 In  segment BANKED_CODE, align 1, keep-with-next
    139          const zb_node_t *zb_net_at(uint8 idx)
   \                     zb_net_at:
    140          {
   \   000000   C082         PUSH    DPL
   \   000002   C083         PUSH    DPH
   \   000004                ; Saved register size: 2
   \   000004                ; Auto size: 0
    141              if (idx >= s_node_cnt) return 0;
   \   000004   90....       MOV     DPTR,#s_node_cnt
   \   000007   E0           MOVX    A,@DPTR
   \   000008   F8           MOV     R0,A
   \   000009   E9           MOV     A,R1
   \   00000A   C3           CLR     C
   \   00000B   98           SUBB    A,R0
   \   00000C   4006         JC      ??zb_net_at_0
   \   00000E   7A00         MOV     R2,#0x0
   \   000010   7B00         MOV     R3,#0x0
   \   000012   8010         SJMP    ??zb_net_at_1
    142              return &s_nodes[idx];
   \                     ??zb_net_at_0:
   \   000014   E9           MOV     A,R1
   \   000015   75F013       MOV     B,#0x13
   \   000018   A4           MUL     AB
   \   000019   FA           MOV     R2,A
   \   00001A   ABF0         MOV     R3,B
   \   00001C   74..         MOV     A,#s_nodes & 0xff
   \   00001E   2A           ADD     A,R2
   \   00001F   FA           MOV     R2,A
   \   000020   74..         MOV     A,#(s_nodes >> 8) & 0xff
   \   000022   3B           ADDC    A,R3
   \   000023   FB           MOV     R3,A
   \                     ??zb_net_at_1:
   \   000024   02....       LJMP    ?Subroutine0 & 0xFFFF
    143          }
    144          

   \                                 In  segment BANKED_CODE, align 1, keep-with-next
    145          void zb_net_mark_offline(uint16 nodeid)
   \                     zb_net_mark_offline:
    146          {
   \   000000   74F6         MOV     A,#-0xa
   \   000002   12....       LCALL   ?BANKED_ENTER_XDATA
   \   000005                ; Saved register size: 10
   \   000005                ; Auto size: 16
   \   000005   74F0         MOV     A,#-0x10
   \   000007   12....       LCALL   ?ALLOC_XSTACK8
   \   00000A   EA           MOV     A,R2
   \   00000B   FE           MOV     R6,A
   \   00000C   EB           MOV     A,R3
   \   00000D   FF           MOV     R7,A
    147              zb_node_t *n = find_slot(nodeid);
   \   00000E                ; Setup parameters for call to function find_slot
   \   00000E   12....       LCALL   ??find_slot?relay
   \   000011   8A..         MOV     ?V0 + 0,R2
   \   000013   8B..         MOV     ?V0 + 1,R3
   \   000015   A8..         MOV     R0,?V0 + 0
   \   000017   A9..         MOV     R1,?V0 + 1
    148              uint8 payload[16];
    149              uint8 *p;
    150              if (n == 0) return;
   \   000019   E8           MOV     A,R0
   \   00001A   49           ORL     A,R1
   \   00001B   606B         JZ      ??zb_net_mark_offline_0
    151              if ((n->flags & 0x01) == 0) return;   /* 已离线 */
   \   00001D   E8           MOV     A,R0
   \   00001E   2411         ADD     A,#0x11
   \   000020   F582         MOV     DPL,A
   \   000022   E9           MOV     A,R1
   \   000023   3400         ADDC    A,#0x0
   \   000025   F583         MOV     DPH,A
   \   000027   E0           MOVX    A,@DPTR
   \   000028   A2E0         MOV     C,0xE0 /* A   */.0
   \   00002A   505C         JNC     ??zb_net_mark_offline_0
    152              n->flags &= (uint8)~0x01;
   \   00002C   C2E0         CLR     0xE0 /* A   */.0
   \   00002E   F0           MOVX    @DPTR,A
    153              /* 上抛 ZB_REPORT: offline 用 cluster=0x0000 dtype=BOOL val=0 的约定，供 STM32 侧识别 */
    154              p = payload;
    155              *p++ = (uint8)(nodeid & 0xFF);
   \   00002F   EE           MOV     A,R6
   \   000030   85..82       MOV     DPL,?XSP + 0
   \   000033   85..83       MOV     DPH,?XSP + 1
   \   000036   F0           MOVX    @DPTR,A
    156              *p++ = (uint8)(nodeid >> 8);
   \   000037   7401         MOV     A,#0x1
   \   000039   12....       LCALL   ?XSTACK_DISP0_8
   \   00003C   EF           MOV     A,R7
   \   00003D   F0           MOVX    @DPTR,A
    157              *p++ = 0x00;              /* ep=0 → 整节点事件 */
   \   00003E   7402         MOV     A,#0x2
   \   000040   12....       LCALL   ?XSTACK_DISP0_8
   \   000043   E4           CLR     A
   \   000044   F0           MOVX    @DPTR,A
    158              *p++ = 0x00;              /* cluster LO */
   \   000045   7403         MOV     A,#0x3
   \   000047   12....       LCALL   ?XSTACK_DISP0_8
   \   00004A   E4           CLR     A
   \   00004B   F0           MOVX    @DPTR,A
    159              *p++ = 0x00;              /* cluster HI */
   \   00004C   7404         MOV     A,#0x4
   \   00004E   12....       LCALL   ?XSTACK_DISP0_8
   \   000051   E4           CLR     A
   \   000052   F0           MOVX    @DPTR,A
    160              *p++ = DTYPE_BOOL;
   \   000053   7405         MOV     A,#0x5
   \   000055   12....       LCALL   ?XSTACK_DISP0_8
   \   000058   7401         MOV     A,#0x1
   \   00005A   F0           MOVX    @DPTR,A
    161              *p++ = 1;                 /* vlen=1 */
   \   00005B   7406         MOV     A,#0x6
   \   00005D   12....       LCALL   ?XSTACK_DISP0_8
   \   000060   7401         MOV     A,#0x1
   \   000062   F0           MOVX    @DPTR,A
    162              *p++ = 0;                 /* val=0 → offline */
   \   000063   7407         MOV     A,#0x7
   \   000065   12....       LCALL   ?XSTACK_DISP0_8
   \   000068   E4           CLR     A
   \   000069   F0           MOVX    @DPTR,A
    163              (void)GwCoord_SendFrame(CMD_ZB_REPORT, payload, (uint8)(p - payload));
   \   00006A                ; Setup parameters for call to function GwCoord_SendFrame
   \   00006A   85..82       MOV     DPL,?XSP + 0
   \   00006D   A882         MOV     R0,DPL
   \   00006F   7408         MOV     A,#0x8
   \   000071   12....       LCALL   ?XSTACK_DISP0_8
   \   000074   E582         MOV     A,DPL
   \   000076   C3           CLR     C
   \   000077   98           SUBB    A,R0
   \   000078   FC           MOV     R4,A
   \   000079   85..82       MOV     DPL,?XSP + 0
   \   00007C   85..83       MOV     DPH,?XSP + 1
   \   00007F   AA82         MOV     R2,DPL
   \   000081   AB83         MOV     R3,DPH
   \   000083   7920         MOV     R1,#0x20
   \   000085   12....       LCALL   ??GwCoord_SendFrame?relay
    164          }
   \                     ??zb_net_mark_offline_0:
   \   000088   7410         MOV     A,#0x10
   \   00008A                REQUIRE ?Subroutine3
   \   00008A                ; // Fall through to label ?Subroutine3

   \                                 In  segment BANKED_CODE, align 1, keep-with-next
   \                     ?Subroutine3:
   \   000000   12....       LCALL   ?DEALLOC_XSTACK8
   \   000003   7F02         MOV     R7,#0x2
   \   000005   02....       LJMP    ?BANKED_LEAVE_XDATA
    165          

   \                                 In  segment BANKED_CODE, align 1, keep-with-next
    166          int8 zb_net_send_onoff(uint16 nodeid, uint8 ep, uint8 onoff)
   \                     zb_net_send_onoff:
    167          {
   \   000000   74F4         MOV     A,#-0xc
   \   000002   12....       LCALL   ?BANKED_ENTER_XDATA
   \   000005                ; Saved register size: 12
   \   000005                ; Auto size: 15
   \   000005   74F1         MOV     A,#-0xf
   \   000007   12....       LCALL   ?ALLOC_XSTACK8
   \   00000A   EA           MOV     A,R2
   \   00000B   FE           MOV     R6,A
   \   00000C   EB           MOV     A,R3
   \   00000D   FF           MOV     R7,A
   \   00000E   89..         MOV     ?V0 + 2,R1
   \   000010   8C..         MOV     ?V0 + 3,R4
    168              /* 构造 ZCL 帧：FC=0x01(cluster spec, no mfg), seq, cmd(0x00 Off / 0x01 On).
    169               * 通过 AF_DataRequest 直接下发。
    170               */
    171              afAddrType_t dst;
    172              uint8 zcl_buf[3];
    173              static uint8 s_zcl_seq = 0;
    174              uint8 rc;
    175              endPointDesc_t *ep_desc;
    176          
    177              osal_memset(&dst, 0, sizeof(dst));
   \   000012                ; Setup parameters for call to function osal_memset
   \   000012   7C0C         MOV     R4,#0xc
   \   000014   7D00         MOV     R5,#0x0
   \   000016   7900         MOV     R1,#0x0
   \   000018   7403         MOV     A,#0x3
   \   00001A   12....       LCALL   ?XSTACK_DISP0_8
   \   00001D   AA82         MOV     R2,DPL
   \   00001F   AB83         MOV     R3,DPH
   \   000021   12....       LCALL   ??osal_memset?relay
    178              dst.addrMode = (afAddrMode_t)Addr16Bit;
   \   000024   740B         MOV     A,#0xb
   \   000026   12....       LCALL   ?XSTACK_DISP0_8
   \   000029   7402         MOV     A,#0x2
   \   00002B   F0           MOVX    @DPTR,A
    179              dst.addr.shortAddr = nodeid;
   \   00002C   04           INC     A
   \   00002D   12....       LCALL   ?XSTACK_DISP0_8
   \   000030   EE           MOV     A,R6
   \   000031   F0           MOVX    @DPTR,A
   \   000032   A3           INC     DPTR
   \   000033   EF           MOV     A,R7
   \   000034   F0           MOVX    @DPTR,A
    180              dst.endPoint = ep;
   \   000035   740C         MOV     A,#0xc
   \   000037   12....       LCALL   ?XSTACK_DISP0_8
   \   00003A   E5..         MOV     A,?V0 + 2
   \   00003C   12....       LCALL   ?Subroutine6 & 0xFFFF
    181          
    182              zcl_buf[0] = 0x01;                              /* Frame Control: cluster-spec */
   \                     ??CrossCallReturnLabel_5:
   \   00003F   7401         MOV     A,#0x1
   \   000041   F0           MOVX    @DPTR,A
    183              zcl_buf[1] = ++s_zcl_seq;
   \   000042   90....       MOV     DPTR,#??s_zcl_seq
   \   000045   E0           MOVX    A,@DPTR
   \   000046   04           INC     A
   \   000047   F0           MOVX    @DPTR,A
   \   000048   C0E0         PUSH    A
   \   00004A   7401         MOV     A,#0x1
   \   00004C   12....       LCALL   ?XSTACK_DISP0_8
   \   00004F   D0E0         POP     A
   \   000051   F0           MOVX    @DPTR,A
    184              zcl_buf[2] = (onoff ? 0x01 : 0x00);             /* ZCL OnOff cmd */
   \   000052   E5..         MOV     A,?V0 + 3
   \   000054   6009         JZ      ??zb_net_send_onoff_0
   \   000056   7402         MOV     A,#0x2
   \   000058   12....       LCALL   ?XSTACK_DISP0_8
   \   00005B   7401         MOV     A,#0x1
   \   00005D   8006         SJMP    ??zb_net_send_onoff_1
   \                     ??zb_net_send_onoff_0:
   \   00005F   7402         MOV     A,#0x2
   \   000061   12....       LCALL   ?XSTACK_DISP0_8
   \   000064   E4           CLR     A
   \                     ??zb_net_send_onoff_1:
   \   000065   F0           MOVX    @DPTR,A
    185          
    186              ep_desc = afFindEndPointDesc(GWCOORD_ENDPOINT);
   \   000066                ; Setup parameters for call to function afFindEndPointDesc
   \   000066   7901         MOV     R1,#0x1
   \   000068   12....       LCALL   ??afFindEndPointDesc?relay
   \   00006B   8A..         MOV     ?V0 + 0,R2
   \   00006D   8B..         MOV     ?V0 + 1,R3
   \   00006F   AC..         MOV     R4,?V0 + 0
   \   000071   AD..         MOV     R5,?V0 + 1
    187              if (ep_desc == 0) return (int8)RC_ERR_PARAM;
   \   000073   EC           MOV     A,R4
   \   000074   4D           ORL     A,R5
   \   000075   6050         JZ      ??zb_net_send_onoff_2
    188          
    189              rc = AF_DataRequest(&dst, ep_desc, ZCL_CLU_ONOFF,
    190                                  sizeof(zcl_buf), zcl_buf,
    191                                  &s_zcl_seq, AF_DISCV_ROUTE, AF_DEFAULT_RADIUS);
    192              return (rc == afStatus_SUCCESS) ? 0 : (int8)-1;
   \   000077                ; Setup parameters for call to function AF_DataRequest
   \   000077   75..1E       MOV     ?V0 + 0,#0x1e
   \   00007A   78..         MOV     R0,#?V0 + 0
   \   00007C   12....       LCALL   ?PUSH_XSTACK_I_ONE
   \   00007F   75....       MOV     ?V0 + 0,#??s_zcl_seq & 0xff
   \   000082   75....       MOV     ?V0 + 1,#(??s_zcl_seq >> 8) & 0xff
   \   000085   78..         MOV     R0,#?V0 + 0
   \   000087   12....       LCALL   ?PUSH_XSTACK_I_TWO
   \   00008A   7403         MOV     A,#0x3
   \   00008C   12....       LCALL   ?XSTACK_DISP0_8
   \   00008F   8582..       MOV     ?V0 + 0,DPL
   \   000092   8583..       MOV     ?V0 + 1,DPH
   \   000095   78..         MOV     R0,#?V0 + 0
   \   000097   12....       LCALL   ?PUSH_XSTACK_I_TWO
   \   00009A   75..03       MOV     ?V0 + 0,#0x3
   \   00009D   75..00       MOV     ?V0 + 1,#0x0
   \   0000A0   78..         MOV     R0,#?V0 + 0
   \   0000A2   12....       LCALL   ?PUSH_XSTACK_I_TWO
   \   0000A5   75..06       MOV     ?V0 + 0,#0x6
   \   0000A8   78..         MOV     R0,#?V0 + 0
   \   0000AA   12....       LCALL   ?PUSH_XSTACK_I_TWO
   \   0000AD   7920         MOV     R1,#0x20
   \   0000AF   740C         MOV     A,#0xc
   \   0000B1   12....       LCALL   ?XSTACK_DISP0_8
   \   0000B4   AA82         MOV     R2,DPL
   \   0000B6   AB83         MOV     R3,DPH
   \   0000B8   12....       LCALL   ??AF_DataRequest?relay
   \   0000BB   7409         MOV     A,#0x9
   \   0000BD   12....       LCALL   ?DEALLOC_XSTACK8
   \   0000C0   E9           MOV     A,R1
   \   0000C1   7004         JNZ     ??zb_net_send_onoff_2
   \   0000C3   7900         MOV     R1,#0x0
   \   0000C5   8002         SJMP    ??zb_net_send_onoff_3
   \                     ??zb_net_send_onoff_2:
   \   0000C7   79FF         MOV     R1,#-0x1
   \                     ??zb_net_send_onoff_3:
   \   0000C9   740F         MOV     A,#0xf
   \   0000CB   12....       LCALL   ?DEALLOC_XSTACK8
   \   0000CE   7F04         MOV     R7,#0x4
   \   0000D0   02....       LJMP    ?BANKED_LEAVE_XDATA
    193          }

   \                                 In  segment XDATA_Z, align 1, keep-with-next
   \                     ??s_zcl_seq:
   \   000000                DS 1
   \   000001                REQUIRE __INIT_XDATA_Z
    194          

   \                                 In  segment BANKED_CODE, align 1, keep-with-next
    195          void zb_net_on_state(uint8 state, uint16 panid, uint8 channel)
   \                     zb_net_on_state:
    196          {
   \   000000   74F6         MOV     A,#-0xa
   \   000002   12....       LCALL   ?BANKED_ENTER_XDATA
   \   000005                ; Saved register size: 10
   \   000005                ; Auto size: 5
   \   000005   74FB         MOV     A,#-0x5
   \   000007   12....       LCALL   ?ALLOC_XSTACK8
   \   00000A   89..         MOV     ?V0 + 1,R1
   \   00000C   EA           MOV     A,R2
   \   00000D   FE           MOV     R6,A
   \   00000E   EB           MOV     A,R3
   \   00000F   FF           MOV     R7,A
   \   000010   8C..         MOV     ?V0 + 0,R4
    197              uint8 payload[5];
    198              s_dev_state = state;
   \   000012   E9           MOV     A,R1
   \   000013   90....       MOV     DPTR,#s_dev_state
   \   000016   F0           MOVX    @DPTR,A
    199              s_panid = panid;
   \   000017   90....       MOV     DPTR,#s_panid
   \   00001A   EE           MOV     A,R6
   \   00001B   F0           MOVX    @DPTR,A
   \   00001C   A3           INC     DPTR
   \   00001D   EF           MOV     A,R7
   \   00001E   F0           MOVX    @DPTR,A
    200              s_channel = channel;
   \   00001F   EC           MOV     A,R4
   \   000020   90....       MOV     DPTR,#s_channel
   \   000023   12....       LCALL   ?Subroutine6 & 0xFFFF
    201          
    202              payload[0] = state;
   \                     ??CrossCallReturnLabel_6:
   \   000026   E9           MOV     A,R1
   \   000027   F0           MOVX    @DPTR,A
    203              payload[1] = channel;
   \   000028   7401         MOV     A,#0x1
   \   00002A   12....       LCALL   ?XSTACK_DISP0_8
   \   00002D   EC           MOV     A,R4
   \   00002E   F0           MOVX    @DPTR,A
    204              payload[2] = (uint8)(panid & 0xFF);
   \   00002F   7402         MOV     A,#0x2
   \   000031   12....       LCALL   ?XSTACK_DISP0_8
   \   000034   EA           MOV     A,R2
   \   000035   F0           MOVX    @DPTR,A
    205              payload[3] = (uint8)(panid >> 8);
   \   000036   7403         MOV     A,#0x3
   \   000038   12....       LCALL   ?XSTACK_DISP0_8
   \   00003B   EB           MOV     A,R3
   \   00003C   F0           MOVX    @DPTR,A
    206              payload[4] = s_node_cnt;
   \   00003D   90....       MOV     DPTR,#s_node_cnt
   \   000040   E0           MOVX    A,@DPTR
   \   000041   C0E0         PUSH    A
   \   000043   7404         MOV     A,#0x4
   \   000045   12....       LCALL   ?XSTACK_DISP0_8
   \   000048   D0E0         POP     A
   \   00004A   F0           MOVX    @DPTR,A
    207              (void)GwCoord_SendFrame(CMD_ZB_NET_STATUS, payload, sizeof(payload));
   \   00004B                ; Setup parameters for call to function GwCoord_SendFrame
   \   00004B   7C05         MOV     R4,#0x5
   \   00004D   85..82       MOV     DPL,?XSP + 0
   \   000050   85..83       MOV     DPH,?XSP + 1
   \   000053   AA82         MOV     R2,DPL
   \   000055   AB83         MOV     R3,DPH
   \   000057   7902         MOV     R1,#0x2
   \   000059   12....       LCALL   ??GwCoord_SendFrame?relay
    208          
    209              /* Coord 成功起网 → 固化 PANID */
    210              if (state == DEV_ZB_COORD) {
   \   00005C   7409         MOV     A,#0x9
   \   00005E   65..         XRL     A,?V0 + 1
   \   000060   7014         JNZ     ??zb_net_on_state_0
    211                  (void)nv_save_u16(NV_ID_PANID, panid);
   \   000062                ; Setup parameters for call to function nv_save_u16
   \   000062   EE           MOV     A,R6
   \   000063   FC           MOV     R4,A
   \   000064   EF           MOV     A,R7
   \   000065   FD           MOV     R5,A
   \   000066   7A01         MOV     R2,#0x1
   \   000068   7BF0         MOV     R3,#-0x10
   \   00006A   12....       LCALL   ??nv_save_u16?relay
    212                  (void)nv_save_u8 (NV_ID_CHANNEL, channel);
   \   00006D                ; Setup parameters for call to function nv_save_u8
   \   00006D   A9..         MOV     R1,?V0 + 0
   \   00006F   7A02         MOV     R2,#0x2
   \   000071   7BF0         MOV     R3,#-0x10
   \   000073   12....       LCALL   ??nv_save_u8?relay
    213              }
    214          }
   \                     ??zb_net_on_state_0:
   \   000076   7405         MOV     A,#0x5
   \   000078   02....       LJMP    ?Subroutine3 & 0xFFFF
    215          

   \                                 In  segment BANKED_CODE, align 1, keep-with-next
    216          void zb_net_get_status(uint8 *state, uint8 *channel, uint16 *panid, uint8 *joined_n)
   \                     zb_net_get_status:
    217          {
   \   000000   74F7         MOV     A,#-0x9
   \   000002   12....       LCALL   ?BANKED_ENTER_XDATA
   \   000005                ; Saved register size: 9
   \   000005                ; Auto size: 0
   \   000005   7409         MOV     A,#0x9
   \   000007   12....       LCALL   ?XSTACK_DISP0_8
   \   00000A   E0           MOVX    A,@DPTR
   \   00000B   F8           MOV     R0,A
   \   00000C   A3           INC     DPTR
   \   00000D   E0           MOVX    A,@DPTR
   \   00000E   F9           MOV     R1,A
   \   00000F   740B         MOV     A,#0xb
   \   000011   12....       LCALL   ?XSTACK_DISP0_8
   \   000014   E0           MOVX    A,@DPTR
   \   000015   FE           MOV     R6,A
   \   000016   A3           INC     DPTR
   \   000017   E0           MOVX    A,@DPTR
   \   000018   FF           MOV     R7,A
    218              if (state)    *state    = s_dev_state;
   \   000019   EA           MOV     A,R2
   \   00001A   4B           ORL     A,R3
   \   00001B   6009         JZ      ??zb_net_get_status_0
   \   00001D   90....       MOV     DPTR,#s_dev_state
   \   000020   E0           MOVX    A,@DPTR
   \   000021   8A82         MOV     DPL,R2
   \   000023   8B83         MOV     DPH,R3
   \   000025   F0           MOVX    @DPTR,A
    219              if (channel)  *channel  = s_channel;
   \                     ??zb_net_get_status_0:
   \   000026   EC           MOV     A,R4
   \   000027   4D           ORL     A,R5
   \   000028   6009         JZ      ??zb_net_get_status_1
   \   00002A   90....       MOV     DPTR,#s_channel
   \   00002D   E0           MOVX    A,@DPTR
   \   00002E   8C82         MOV     DPL,R4
   \   000030   8D83         MOV     DPH,R5
   \   000032   F0           MOVX    @DPTR,A
    220              if (panid)    *panid    = s_panid;
   \                     ??zb_net_get_status_1:
   \   000033   E8           MOV     A,R0
   \   000034   49           ORL     A,R1
   \   000035   6011         JZ      ??zb_net_get_status_2
   \   000037   90....       MOV     DPTR,#s_panid
   \   00003A   E0           MOVX    A,@DPTR
   \   00003B   FA           MOV     R2,A
   \   00003C   A3           INC     DPTR
   \   00003D   E0           MOVX    A,@DPTR
   \   00003E   FB           MOV     R3,A
   \   00003F   8882         MOV     DPL,R0
   \   000041   8983         MOV     DPH,R1
   \   000043   EA           MOV     A,R2
   \   000044   F0           MOVX    @DPTR,A
   \   000045   A3           INC     DPTR
   \   000046   EB           MOV     A,R3
   \   000047   F0           MOVX    @DPTR,A
    221              if (joined_n) *joined_n = s_node_cnt;
   \                     ??zb_net_get_status_2:
   \   000048   EE           MOV     A,R6
   \   000049   4F           ORL     A,R7
   \   00004A   6009         JZ      ??zb_net_get_status_3
   \   00004C   90....       MOV     DPTR,#s_node_cnt
   \   00004F   E0           MOVX    A,@DPTR
   \   000050   8E82         MOV     DPL,R6
   \   000052   8F83         MOV     DPH,R7
   \   000054   F0           MOVX    @DPTR,A
    222          }
   \                     ??zb_net_get_status_3:
   \   000055   02....       LJMP    ?Subroutine2 & 0xFFFF

   \                                 In  segment XDATA_ID, align 1, keep-with-next
   \                     `?<Initializer for s_panid>`:
   \   000000   FFFF         DW 65535

   \                                 In  segment XDATA_ID, align 1, keep-with-next
   \                     `?<Initializer for s_channel>`:
   \   000000   0F           DB 15

   \                                 In  segment XDATA_ROM_C, align 1
   \                     __Constant_3e8:
   \   000000   E8030000     DD 1000

   \                                 In  segment XDATA_ROM_C, align 1
   \                     __Constant_bf21:
   \   000000   21BF0000     DD 48929

   \                                 In  segment BANK_RELAYS, align 1
   \                     ??find_slot?relay:
   \   000000   12....       LCALL   ?BDISPATCH
   \   000003   ......       DC24    find_slot

   \                                 In  segment BANK_RELAYS, align 1
   \                     ??alloc_slot?relay:
   \   000000   12....       LCALL   ?BDISPATCH
   \   000003   ......       DC24    alloc_slot

   \                                 In  segment BANK_RELAYS, align 1
   \                     ??zb_net_init?relay:
   \   000000   12....       LCALL   ?BDISPATCH
   \   000003   ......       DC24    zb_net_init

   \                                 In  segment BANK_RELAYS, align 1
   \                     ??zb_net_tick?relay:
   \   000000   12....       LCALL   ?BDISPATCH
   \   000003   ......       DC24    zb_net_tick

   \                                 In  segment BANK_RELAYS, align 1
   \                     ??zb_net_allow_join?relay:
   \   000000   12....       LCALL   ?BDISPATCH
   \   000003   ......       DC24    zb_net_allow_join

   \                                 In  segment BANK_RELAYS, align 1
   \                     ??zb_net_find?relay:
   \   000000   12....       LCALL   ?BDISPATCH
   \   000003   ......       DC24    zb_net_find

   \                                 In  segment BANK_RELAYS, align 1
   \                     ??zb_net_touch?relay:
   \   000000   12....       LCALL   ?BDISPATCH
   \   000003   ......       DC24    zb_net_touch

   \                                 In  segment BANK_RELAYS, align 1
   \                     ??zb_net_count?relay:
   \   000000   12....       LCALL   ?BDISPATCH
   \   000003   ......       DC24    zb_net_count

   \                                 In  segment BANK_RELAYS, align 1
   \                     ??zb_net_at?relay:
   \   000000   12....       LCALL   ?BDISPATCH
   \   000003   ......       DC24    zb_net_at

   \                                 In  segment BANK_RELAYS, align 1
   \                     ??zb_net_mark_offline?relay:
   \   000000   12....       LCALL   ?BDISPATCH
   \   000003   ......       DC24    zb_net_mark_offline

   \                                 In  segment BANK_RELAYS, align 1
   \                     ??zb_net_send_onoff?relay:
   \   000000   12....       LCALL   ?BDISPATCH
   \   000003   ......       DC24    zb_net_send_onoff

   \                                 In  segment BANK_RELAYS, align 1
   \                     ??zb_net_on_state?relay:
   \   000000   12....       LCALL   ?BDISPATCH
   \   000003   ......       DC24    zb_net_on_state

   \                                 In  segment BANK_RELAYS, align 1
   \                     ??zb_net_get_status?relay:
   \   000000   12....       LCALL   ?BDISPATCH
   \   000003   ......       DC24    zb_net_get_status

   Maximum stack usage in bytes:

     Function                       ISTACK PSTACK XSTACK
     --------                       ------ ------ ------
     alloc_slot                         0      0     32
       -> osal_memset                   0      0     32
       -> osal_memset                   0      0     32
     find_slot                          2      0     26
     zb_net_allow_join                  0      0      9
       -> NLME_PermitJoiningRequest     0      0     18
       -> NLME_PermitJoiningRequest     0      0     18
       -> NLME_PermitJoiningRequest     0      0     18
     zb_net_at                          2      0      0
     zb_net_count                       2      0      0
     zb_net_find                        2      0      0
       -> find_slot                     4      0      0
     zb_net_get_status                  1      0     13
     zb_net_init                        2      0      3
       -> osal_memset                   4      0      6
       -> nv_load_u16                   4      0      6
       -> nv_load_u8                    4      0      6
       -> osal_GetSystemClock           4      0      6
     zb_net_mark_offline                1      0     46
       -> find_slot                     0      0     52
       -> GwCoord_SendFrame             0      0     52
     zb_net_on_state                    1      0     15
       -> GwCoord_SendFrame             0      0     30
       -> nv_save_u16                   0      0     30
       -> nv_save_u8                    0      0     30
     zb_net_send_onoff                  1      0     36
       -> osal_memset                   0      0     54
       -> afFindEndPointDesc            0      0     54
       -> AF_DataRequest                0      0     72
     zb_net_tick                        0      0     20
       -> NLME_PermitJoiningRequest     0      0     40
       -> zb_net_mark_offline           0      0     40
     zb_net_touch                       1      0     20
       -> find_slot                     0      0     32
       -> alloc_slot                    0      0     32
       -> osal_memcpy                   0      0     38
       -> osal_GetSystemClock           0      0     32


   Segment part sizes:

     Function/Label               Bytes
     --------------               -----
     s_nodes                       304
     s_node_cnt                      1
     s_dev_state                     1
     s_panid                         2
     s_channel                       1
     s_allow_join_rem_s              1
     s_last_tick_ms                  4
     find_slot                      55
     ?Subroutine5                   12
     ?Subroutine0                    7
     alloc_slot                    148
     ?Subroutine1                    5
     ?Subroutine4                    6
     ?Subroutine7                   11
     zb_net_init                   151
     ?Subroutine6                    8
     zb_net_tick                   211
     zb_net_allow_join              45
     ?Subroutine2                    5
     zb_net_find                     7
     zb_net_touch                  192
     zb_net_count                   12
     zb_net_at                      39
     zb_net_mark_offline           138
     ?Subroutine3                    8
     zb_net_send_onoff             211
     s_zcl_seq                       1
     zb_net_on_state               123
     zb_net_get_status              88
     ?<Initializer for s_panid>      2
     ?<Initializer for s_channel>    1
     __Constant_3e8                  4
     __Constant_bf21                 4
     ??find_slot?relay               6
     ??alloc_slot?relay              6
     ??zb_net_init?relay             6
     ??zb_net_tick?relay             6
     ??zb_net_allow_join?relay       6
     ??zb_net_find?relay             6
     ??zb_net_touch?relay            6
     ??zb_net_count?relay            6
     ??zb_net_at?relay               6
     ??zb_net_mark_offline?relay     6
     ??zb_net_send_onoff?relay       6
     ??zb_net_on_state?relay         6
     ??zb_net_get_status?relay       6

 
 1 482 bytes in segment BANKED_CODE
    78 bytes in segment BANK_RELAYS
     3 bytes in segment XDATA_I
     3 bytes in segment XDATA_ID
     8 bytes in segment XDATA_ROM_C
   312 bytes in segment XDATA_Z
 
 1 563 bytes of CODE  memory
     0 bytes of CONST memory (+ 8 bytes shared)
   315 bytes of XDATA memory

Errors: none
Warnings: 1
