///////////////////////////////////////////////////////////////////////////////
//                                                                            /
// IAR C/C++ Compiler V8.10.3.10338/W32 for 8051        21/Apr/2026  20:42:54 /
// Copyright 2004-2011 IAR Systems AB.                                        /
//                                                                            /
//    Core               =  plain                                             /
//    Code model         =  banked                                            /
//    Data model         =  large                                             /
//    Calling convention =  xdata reentrant                                   /
//    Constant location  =  data                                              /
//    Dptr setup         =  1,16                                              /
//    Source file        =  D:\ZNJJ\ZStack-CC2530-2.5.1a\Projects\zstack\Samp /
//                          les\GwCoord\Source\cmd_map.c                      /
//    Command line       =  -f D:\ZNJJ\ZStack-CC2530-2.5.1a\Projects\zstack\S /
//                          amples\GwCoord\CC2530DB\..\..\..\Tools\CC2530DB\f /
//                          8wCoord.cfg (-DCPU32MHZ -DROOT=__near_func        /
//                          -DMAC_CFG_APP_PENDING_QUEUE=TRUE                  /
//                          -DMAC_CFG_TX_DATA_MAX=5 -DMAC_CFG_TX_MAX=8        /
//                          -DMAC_CFG_RX_MAX=5 -DZDO_COORDINATOR -DRTR_NWK)   /
//                          -f D:\ZNJJ\ZStack-CC2530-2.5.1a\Projects\zstack\S /
//                          amples\GwCoord\CC2530DB\..\..\..\Tools\CC2530DB\f /
//                          8wConfig.cfg (-DZIGBEEPRO -DSECURE=0              /
//                          -DZG_SECURE_DYNAMIC=0 -DREFLECTOR                 /
//                          -DDEFAULT_CHANLIST=0x00000800                     /
//                          -DZDAPP_CONFIG_PAN_ID=0xFFFF                      /
//                          -DNWK_START_DELAY=100 -DEXTENDED_JOINING_RANDOM_M /
//                          ASK=0x007F -DBEACON_REQUEST_DELAY=100             /
//                          -DBEACON_REQ_DELAY_MASK=0x00FF                    /
//                          -DLINK_STATUS_JITTER_MASK=0x007F                  /
//                          -DROUTE_EXPIRY_TIME=30 -DAPSC_ACK_WAIT_DURATION_P /
//                          OLLED=3000 -DNWK_INDIRECT_MSG_TIMEOUT=7           /
//                          -DMAX_RREQ_ENTRIES=8 -DAPSC_MAX_FRAME_RETRIES=3   /
//                          -DNWK_MAX_DATA_RETRIES=2                          /
//                          -DMAX_POLL_FAILURE_RETRIES=2 -DMAX_BCAST=9        /
//                          -DAPS_MAX_GROUPS=16 -DMAX_RTG_ENTRIES=40          /
//                          -DNWK_MAX_BINDING_ENTRIES=4                       /
//                          -DMAX_BINDING_CLUSTER_IDS=4                       /
//                          "-DDEFAULT_KEY={0x01, 0x03, 0x05, 0x07, 0x09,     /
//                          0x0B, 0x0D, 0x0F, 0x00, 0x02, 0x04, 0x06, 0x08,   /
//                          0x0A, 0x0C, 0x0D}" -DMAC_MAX_FRAME_SIZE=116       /
//                          -DZDNWKMGR_MIN_TRANSMISSIONS=20 "-DCONST=const    /
//                          __code" -DGENERIC=__generic                       /
//                          -DRFD_RCVC_ALWAYS_ON=FALSE -DPOLL_RATE=200        /
//                          -DQUEUED_POLL_RATE=50 -DRESPONSE_POLL_RATE=50     /
//                          -DREJOIN_POLL_RATE=440)                           /
//                          D:\ZNJJ\ZStack-CC2530-2.5.1a\Projects\zstack\Samp /
//                          les\GwCoord\Source\cmd_map.c -D HAL_UART=TRUE -D  /
//                          HAL_LCD=FALSE -lC D:\ZNJJ\ZStack-CC2530-2.5.1a\Pr /
//                          ojects\zstack\Samples\GwCoord\CC2530DB\Coordinato /
//                          rEB\List\ -lA D:\ZNJJ\ZStack-CC2530-2.5.1a\Projec /
//                          ts\zstack\Samples\GwCoord\CC2530DB\CoordinatorEB\ /
//                          List\ --diag_suppress Pe001,Pa010 -o              /
//                          D:\ZNJJ\ZStack-CC2530-2.5.1a\Projects\zstack\Samp /
//                          les\GwCoord\CC2530DB\CoordinatorEB\Obj\ -e        /
//                          --no_code_motion --debug --core=plain             /
//                          --dptr=16,1 --data_model=large                    /
//                          --code_model=banked --calling_convention=xdata_re /
//                          entrant --place_constants=data --nr_virtual_regs  /
//                          16 -I D:\ZNJJ\ZStack-CC2530-2.5.1a\Projects\zstac /
//                          k\Samples\GwCoord\CC2530DB\ -I                    /
//                          D:\ZNJJ\ZStack-CC2530-2.5.1a\Projects\zstack\Samp /
//                          les\GwCoord\CC2530DB\..\Source\ -I                /
//                          D:\ZNJJ\ZStack-CC2530-2.5.1a\Projects\zstack\Samp /
//                          les\GwCoord\CC2530DB\..\..\..\ZMain\TI2530DB\ -I  /
//                          D:\ZNJJ\ZStack-CC2530-2.5.1a\Projects\zstack\Samp /
//                          les\GwCoord\CC2530DB\..\..\..\..\..\Components\ha /
//                          l\include\ -I D:\ZNJJ\ZStack-CC2530-2.5.1a\Projec /
//                          ts\zstack\Samples\GwCoord\CC2530DB\..\..\..\..\.. /
//                          \Components\hal\target\CC2530EB\ -I               /
//                          D:\ZNJJ\ZStack-CC2530-2.5.1a\Projects\zstack\Samp /
//                          les\GwCoord\CC2530DB\..\..\..\..\..\Components\ma /
//                          c\include\ -I D:\ZNJJ\ZStack-CC2530-2.5.1a\Projec /
//                          ts\zstack\Samples\GwCoord\CC2530DB\..\..\..\..\.. /
//                          \Components\mac\high_level\ -I                    /
//                          D:\ZNJJ\ZStack-CC2530-2.5.1a\Projects\zstack\Samp /
//                          les\GwCoord\CC2530DB\..\..\..\..\..\Components\ma /
//                          c\low_level\srf04\ -I D:\ZNJJ\ZStack-CC2530-2.5.1 /
//                          a\Projects\zstack\Samples\GwCoord\CC2530DB\..\..\ /
//                          ..\..\..\Components\mac\low_level\srf04\single_ch /
//                          ip\ -I D:\ZNJJ\ZStack-CC2530-2.5.1a\Projects\zsta /
//                          ck\Samples\GwCoord\CC2530DB\..\..\..\..\..\Compon /
//                          ents\mt\ -I D:\ZNJJ\ZStack-CC2530-2.5.1a\Projects /
//                          \zstack\Samples\GwCoord\CC2530DB\..\..\..\..\..\C /
//                          omponents\osal\include\ -I                        /
//                          D:\ZNJJ\ZStack-CC2530-2.5.1a\Projects\zstack\Samp /
//                          les\GwCoord\CC2530DB\..\..\..\..\..\Components\se /
//                          rvices\saddr\ -I D:\ZNJJ\ZStack-CC2530-2.5.1a\Pro /
//                          jects\zstack\Samples\GwCoord\CC2530DB\..\..\..\.. /
//                          \..\Components\services\sdata\ -I                 /
//                          D:\ZNJJ\ZStack-CC2530-2.5.1a\Projects\zstack\Samp /
//                          les\GwCoord\CC2530DB\..\..\..\..\..\Components\st /
//                          ack\af\ -I D:\ZNJJ\ZStack-CC2530-2.5.1a\Projects\ /
//                          zstack\Samples\GwCoord\CC2530DB\..\..\..\..\..\Co /
//                          mponents\stack\nwk\ -I D:\ZNJJ\ZStack-CC2530-2.5. /
//                          1a\Projects\zstack\Samples\GwCoord\CC2530DB\..\.. /
//                          \..\..\..\Components\stack\sapi\ -I               /
//                          D:\ZNJJ\ZStack-CC2530-2.5.1a\Projects\zstack\Samp /
//                          les\GwCoord\CC2530DB\..\..\..\..\..\Components\st /
//                          ack\sec\ -I D:\ZNJJ\ZStack-CC2530-2.5.1a\Projects /
//                          \zstack\Samples\GwCoord\CC2530DB\..\..\..\..\..\C /
//                          omponents\stack\sys\ -I                           /
//                          D:\ZNJJ\ZStack-CC2530-2.5.1a\Projects\zstack\Samp /
//                          les\GwCoord\CC2530DB\..\..\..\..\..\Components\st /
//                          ack\zdo\ -I D:\ZNJJ\ZStack-CC2530-2.5.1a\Projects /
//                          \zstack\Samples\GwCoord\CC2530DB\..\..\..\..\..\C /
//                          omponents\zmac\ -I D:\ZNJJ\ZStack-CC2530-2.5.1a\P /
//                          rojects\zstack\Samples\GwCoord\CC2530DB\..\..\..\ /
//                          ..\..\Components\zmac\f8w\ -Ohz                   /
//                          --require_prototypes                              /
//    List file          =  D:\ZNJJ\ZStack-CC2530-2.5.1a\Projects\zstack\Samp /
//                          les\GwCoord\CC2530DB\CoordinatorEB\List\cmd_map.s /
//                          51                                                /
//                                                                            /
//                                                                            /
///////////////////////////////////////////////////////////////////////////////

        NAME cmd_map

        RTMODEL "__SystemLibrary", "CLib"
        RTMODEL "__calling_convention", "xdata_reentrant"
        RTMODEL "__code_model", "banked"
        RTMODEL "__core", "plain"
        RTMODEL "__data_model", "large"
        RTMODEL "__dptr_size", "16"
        RTMODEL "__extended_stack", "disabled"
        RTMODEL "__location_for_constants", "data"
        RTMODEL "__number_of_dptrs", "1"
        RTMODEL "__rt_version", "1"

        RSEG DOVERLAY:DATA:NOROOT(0)
        RSEG IOVERLAY:IDATA:NOROOT(0)
        RSEG ISTACK:IDATA:NOROOT(0)
        RSEG PSTACK:XDATA:NOROOT(0)
        RSEG XSTACK:XDATA:NOROOT(0)

        EXTERN ?BANKED_ENTER_XDATA
        EXTERN ?BANKED_LEAVE_XDATA
        EXTERN ?BDISPATCH
        EXTERN ?V0

        PUBLIC ??cmd_map_dispatch?relay
        FUNCTION ??cmd_map_dispatch?relay,0203H
        FUNCTION ??do_cmd?relay,0203H
        PUBLIC cmd_map_dispatch
        FUNCTION cmd_map_dispatch,021203H
        ARGFRAME XSTACK, 0, STACK
        LOCFRAME XSTACK, 10, STACK
        FUNCTION do_cmd,021203H
        ARGFRAME XSTACK, 10, STACK
        ARGFRAME IOVERLAY, 0, STATIC
        ARGFRAME DOVERLAY, 0, STATIC
        LOCFRAME XSTACK, 15, STACK
        
        CFI Names cfiNames0
        CFI StackFrame CFA_SP SP IDATA
        CFI StackFrame CFA_PSP16 PSP16 XDATA
        CFI StackFrame CFA_XSP16 XSP16 XDATA
        CFI StaticOverlayFrame CFA_IOVERLAY IOVERLAY
        CFI StaticOverlayFrame CFA_DOVERLAY DOVERLAY
        CFI Resource `PSW.CY`:1, `B.BR0`:1, `B.BR1`:1, `B.BR2`:1, `B.BR3`:1
        CFI Resource `B.BR4`:1, `B.BR5`:1, `B.BR6`:1, `B.BR7`:1, `VB.BR8`:1
        CFI Resource `VB.BR9`:1, `VB.BR10`:1, `VB.BR11`:1, `VB.BR12`:1
        CFI Resource `VB.BR13`:1, `VB.BR14`:1, `VB.BR15`:1, VB:8, B:8, A:8
        CFI Resource PSW:8, DPL0:8, DPH0:8, R0:8, R1:8, R2:8, R3:8, R4:8, R5:8
        CFI Resource R6:8, R7:8, V0:8, V1:8, V2:8, V3:8, V4:8, V5:8, V6:8, V7:8
        CFI Resource V8:8, V9:8, V10:8, V11:8, V12:8, V13:8, V14:8, V15:8, SP:8
        CFI Resource PSPH:8, PSPL:8, PSP16:16, XSPH:8, XSPL:8, XSP16:16
        CFI VirtualResource ?RET:24
        CFI Resource ?BRET_EXT:8
        CFI VirtualResource ?RET_HIGH:8, ?RET_LOW:8
        CFI ResourceParts PSP16 PSPH, PSPL
        CFI ResourceParts XSP16 XSPH, XSPL
        CFI ResourceParts ?RET ?BRET_EXT, ?RET_HIGH, ?RET_LOW
        CFI EndNames cfiNames0
        
        CFI Common cfiCommon0 Using cfiNames0
        CFI CodeAlign 1
        CFI DataAlign -1
        CFI ReturnAddress ?RET CODE
        CFI CFA_DOVERLAY Used
        CFI CFA_IOVERLAY Used
        CFI CFA_SP SP+-3
        CFI CFA_PSP16 PSP16+0
        CFI CFA_XSP16 XSP16+0
        CFI `PSW.CY` SameValue
        CFI `B.BR0` SameValue
        CFI `B.BR1` SameValue
        CFI `B.BR2` SameValue
        CFI `B.BR3` SameValue
        CFI `B.BR4` SameValue
        CFI `B.BR5` SameValue
        CFI `B.BR6` SameValue
        CFI `B.BR7` SameValue
        CFI `VB.BR8` SameValue
        CFI `VB.BR9` SameValue
        CFI `VB.BR10` SameValue
        CFI `VB.BR11` SameValue
        CFI `VB.BR12` SameValue
        CFI `VB.BR13` SameValue
        CFI `VB.BR14` SameValue
        CFI `VB.BR15` SameValue
        CFI VB SameValue
        CFI B Undefined
        CFI A Undefined
        CFI PSW SameValue
        CFI DPL0 SameValue
        CFI DPH0 SameValue
        CFI R0 Undefined
        CFI R1 Undefined
        CFI R2 Undefined
        CFI R3 Undefined
        CFI R4 Undefined
        CFI R5 Undefined
        CFI R6 SameValue
        CFI R7 SameValue
        CFI V0 SameValue
        CFI V1 SameValue
        CFI V2 SameValue
        CFI V3 SameValue
        CFI V4 SameValue
        CFI V5 SameValue
        CFI V6 SameValue
        CFI V7 SameValue
        CFI V8 SameValue
        CFI V9 SameValue
        CFI V10 SameValue
        CFI V11 SameValue
        CFI V12 SameValue
        CFI V13 SameValue
        CFI V14 SameValue
        CFI V15 SameValue
        CFI PSPH Undefined
        CFI PSPL Undefined
        CFI XSPH Undefined
        CFI XSPL Undefined
        CFI ?RET Concat
        CFI ?BRET_EXT Frame(CFA_SP, 3)
        CFI ?RET_HIGH Frame(CFA_SP, 2)
        CFI ?RET_LOW Frame(CFA_SP, 1)
        CFI EndCommon cfiCommon0
        
GwCoord_SendErr     SYMBOL "GwCoord_SendErr"
zb_net_send_onoff   SYMBOL "zb_net_send_onoff"
GwCoord_SendFrame   SYMBOL "GwCoord_SendFrame"
zb_net_allow_join   SYMBOL "zb_net_allow_join"
GwCoord_SendNetStatus SYMBOL "GwCoord_SendNetStatus"
zb_net_count        SYMBOL "zb_net_count"
zb_net_at           SYMBOL "zb_net_at"
GwCoord_SendNodeInfo SYMBOL "GwCoord_SendNodeInfo"
??GwCoord_SendErr?relay SYMBOL "?relay", GwCoord_SendErr
??GwCoord_SendFrame?relay SYMBOL "?relay", GwCoord_SendFrame
??GwCoord_SendNetStatus?relay SYMBOL "?relay", GwCoord_SendNetStatus
??GwCoord_SendNodeInfo?relay SYMBOL "?relay", GwCoord_SendNodeInfo
??zb_net_allow_join?relay SYMBOL "?relay", zb_net_allow_join
??zb_net_at?relay   SYMBOL "?relay", zb_net_at
??zb_net_count?relay SYMBOL "?relay", zb_net_count
??zb_net_send_onoff?relay SYMBOL "?relay", zb_net_send_onoff
cmd_map_dispatch    SYMBOL "cmd_map_dispatch"
??cmd_map_dispatch?relay SYMBOL "?relay", cmd_map_dispatch

        EXTERN GwCoord_SendErr
        FUNCTION GwCoord_SendErr,0202H
        ARGFRAME ISTACK, 0, STACK
        ARGFRAME PSTACK, 0, STACK
        ARGFRAME XSTACK, 15, STACK
        ARGFRAME IOVERLAY, 0, STATIC
        ARGFRAME DOVERLAY, 0, STATIC
        EXTERN zb_net_send_onoff
        FUNCTION zb_net_send_onoff,0202H
        ARGFRAME ISTACK, 0, STACK
        ARGFRAME PSTACK, 0, STACK
        ARGFRAME XSTACK, 15, STACK
        ARGFRAME IOVERLAY, 0, STATIC
        ARGFRAME DOVERLAY, 0, STATIC
        EXTERN GwCoord_SendFrame
        FUNCTION GwCoord_SendFrame,0202H
        ARGFRAME ISTACK, 0, STACK
        ARGFRAME PSTACK, 0, STACK
        ARGFRAME XSTACK, 10, STACK
        ARGFRAME IOVERLAY, 0, STATIC
        ARGFRAME DOVERLAY, 0, STATIC
        EXTERN zb_net_allow_join
        FUNCTION zb_net_allow_join,0202H
        ARGFRAME ISTACK, 0, STACK
        ARGFRAME PSTACK, 0, STACK
        ARGFRAME XSTACK, 10, STACK
        ARGFRAME IOVERLAY, 0, STATIC
        ARGFRAME DOVERLAY, 0, STATIC
        EXTERN GwCoord_SendNetStatus
        FUNCTION GwCoord_SendNetStatus,0202H
        ARGFRAME ISTACK, 0, STACK
        ARGFRAME PSTACK, 0, STACK
        ARGFRAME XSTACK, 10, STACK
        ARGFRAME IOVERLAY, 0, STATIC
        ARGFRAME DOVERLAY, 0, STATIC
        EXTERN zb_net_count
        FUNCTION zb_net_count,0202H
        ARGFRAME ISTACK, 0, STACK
        ARGFRAME PSTACK, 0, STACK
        ARGFRAME XSTACK, 10, STACK
        ARGFRAME IOVERLAY, 0, STATIC
        ARGFRAME DOVERLAY, 0, STATIC
        EXTERN zb_net_at
        FUNCTION zb_net_at,0202H
        ARGFRAME ISTACK, 0, STACK
        ARGFRAME PSTACK, 0, STACK
        ARGFRAME XSTACK, 10, STACK
        ARGFRAME IOVERLAY, 0, STATIC
        ARGFRAME DOVERLAY, 0, STATIC
        EXTERN GwCoord_SendNodeInfo
        FUNCTION GwCoord_SendNodeInfo,0202H
        ARGFRAME ISTACK, 0, STACK
        ARGFRAME PSTACK, 0, STACK
        ARGFRAME XSTACK, 10, STACK
        ARGFRAME IOVERLAY, 0, STATIC
        ARGFRAME DOVERLAY, 0, STATIC
        EXTERN ??GwCoord_SendErr?relay
        FUNCTION ??GwCoord_SendErr?relay,00H
        EXTERN ??GwCoord_SendFrame?relay
        FUNCTION ??GwCoord_SendFrame?relay,00H
        EXTERN ??GwCoord_SendNetStatus?relay
        FUNCTION ??GwCoord_SendNetStatus?relay,00H
        EXTERN ??GwCoord_SendNodeInfo?relay
        FUNCTION ??GwCoord_SendNodeInfo?relay,00H
        EXTERN ??zb_net_allow_join?relay
        FUNCTION ??zb_net_allow_join?relay,00H
        EXTERN ??zb_net_at?relay
        FUNCTION ??zb_net_at?relay,00H
        EXTERN ??zb_net_count?relay
        FUNCTION ??zb_net_count?relay,00H
        EXTERN ??zb_net_send_onoff?relay
        FUNCTION ??zb_net_send_onoff?relay,00H

// D:\ZNJJ\ZStack-CC2530-2.5.1a\Projects\zstack\Samples\GwCoord\Source\cmd_map.c
//    1 /*
//    2  * Dispatch inbound UART commands from STM32 to coordinator services.
//    3  */
//    4 
//    5 #include "cmd_map.h"
//    6 #include "gw_coord.h"
//    7 #include "zb_net.h"
//    8 
//    9 static void do_ping(const frame_t *f)
//   10 {
//   11     (void)f;
//   12     (void)GwCoord_SendFrame(CMD_ZB_PING, 0, 0);
//   13 }
//   14 
//   15 static void do_allow_join(const frame_t *f)
//   16 {
//   17     if (f->plen < 1u) {
//   18         GwCoord_SendErr(ERRC_BAD_FRAME, CMD_ZB_ALLOW_JOIN);
//   19         return;
//   20     }
//   21     zb_net_allow_join(f->payload[0]);
//   22     GwCoord_SendNetStatus();
//   23 }
//   24 
//   25 static void do_list_nodes(const frame_t *f)
//   26 {
//   27     uint8 i;
//   28     uint8 cnt;
//   29     const zb_node_t *n;
//   30 
//   31     (void)f;
//   32     cnt = zb_net_count();
//   33     for (i = 0; i < cnt; ++i) {
//   34         n = zb_net_at(i);
//   35         if (n != 0) {
//   36             GwCoord_SendNodeInfo(n);
//   37         }
//   38     }
//   39     if (cnt == 0u) {
//   40         GwCoord_SendNetStatus();
//   41     }
//   42 }
//   43 

        RSEG BANKED_CODE:CODE:NOROOT(0)
//   44 static void do_cmd(const frame_t *f)
do_cmd:
        CFI Block cfiBlock0 Using cfiCommon0
        CFI Function do_cmd
        CODE
//   45 {
        FUNCALL do_cmd, GwCoord_SendErr
        LOCFRAME ISTACK, 0, STACK
        LOCFRAME PSTACK, 0, STACK
        LOCFRAME XSTACK, 15, STACK
        LOCFRAME IOVERLAY, 0, STATIC
        LOCFRAME DOVERLAY, 0, STATIC
        ARGFRAME ISTACK, 0, STACK
        ARGFRAME PSTACK, 0, STACK
        ARGFRAME XSTACK, 15, STACK
        ARGFRAME IOVERLAY, 0, STATIC
        ARGFRAME DOVERLAY, 0, STATIC
        FUNCALL do_cmd, zb_net_send_onoff
        LOCFRAME ISTACK, 0, STACK
        LOCFRAME PSTACK, 0, STACK
        LOCFRAME XSTACK, 15, STACK
        LOCFRAME IOVERLAY, 0, STATIC
        LOCFRAME DOVERLAY, 0, STATIC
        ARGFRAME ISTACK, 0, STACK
        ARGFRAME PSTACK, 0, STACK
        ARGFRAME XSTACK, 15, STACK
        ARGFRAME IOVERLAY, 0, STATIC
        ARGFRAME DOVERLAY, 0, STATIC
        FUNCALL do_cmd, GwCoord_SendErr
        LOCFRAME ISTACK, 0, STACK
        LOCFRAME PSTACK, 0, STACK
        LOCFRAME XSTACK, 15, STACK
        LOCFRAME IOVERLAY, 0, STATIC
        LOCFRAME DOVERLAY, 0, STATIC
        ARGFRAME ISTACK, 0, STACK
        ARGFRAME PSTACK, 0, STACK
        ARGFRAME XSTACK, 15, STACK
        ARGFRAME IOVERLAY, 0, STATIC
        ARGFRAME DOVERLAY, 0, STATIC
        FUNCALL do_cmd, GwCoord_SendErr
        LOCFRAME ISTACK, 0, STACK
        LOCFRAME PSTACK, 0, STACK
        LOCFRAME XSTACK, 15, STACK
        LOCFRAME IOVERLAY, 0, STATIC
        LOCFRAME DOVERLAY, 0, STATIC
        ARGFRAME ISTACK, 0, STACK
        ARGFRAME PSTACK, 0, STACK
        ARGFRAME XSTACK, 15, STACK
        ARGFRAME IOVERLAY, 0, STATIC
        ARGFRAME DOVERLAY, 0, STATIC
        MOV     A,#-0xf
        LCALL   ?BANKED_ENTER_XDATA
        CFI DPH0 load(1, XDATA, add(CFA_XSP16, literal(-1)))
        CFI DPL0 load(1, XDATA, add(CFA_XSP16, literal(-2)))
        CFI ?BRET_EXT load(1, XDATA, add(CFA_XSP16, literal(-3)))
        CFI ?RET_HIGH load(1, XDATA, add(CFA_XSP16, literal(-4)))
        CFI ?RET_LOW load(1, XDATA, add(CFA_XSP16, literal(-5)))
        CFI R7 load(1, XDATA, add(CFA_XSP16, literal(-6)))
        CFI V6 load(1, XDATA, add(CFA_XSP16, literal(-7)))
        CFI V5 load(1, XDATA, add(CFA_XSP16, literal(-8)))
        CFI V4 load(1, XDATA, add(CFA_XSP16, literal(-9)))
        CFI V3 load(1, XDATA, add(CFA_XSP16, literal(-10)))
        CFI V2 load(1, XDATA, add(CFA_XSP16, literal(-11)))
        CFI V1 load(1, XDATA, add(CFA_XSP16, literal(-12)))
        CFI V0 load(1, XDATA, add(CFA_XSP16, literal(-13)))
        CFI VB load(1, XDATA, add(CFA_XSP16, literal(-14)))
        CFI R6 load(1, XDATA, add(CFA_XSP16, literal(-15)))
        CFI CFA_SP SP+0
        CFI CFA_XSP16 add(XSP16, 15)
        ; Saved register size: 15
        ; Auto size: 0
        MOV     A,R2
        MOV     R0,A
        MOV     A,R3
        MOV     R1,A
//   46     uint16 nodeid;
//   47     uint8 ep;
//   48     uint16 cluster;
//   49     uint8 dtype;
//   50     uint8 vlen;
//   51     const uint8 *val;
//   52 
//   53     if (f->plen < 7u) {
        MOV     DPL,R0
        MOV     DPH,R1
        INC     DPTR
        MOVX    A,@DPTR
        CLR     C
        SUBB    A,#0x7
        JNC     ??do_cmd_0
//   54         GwCoord_SendErr(ERRC_BAD_FRAME, CMD_ZB_CMD);
??do_cmd_1:
        ; Setup parameters for call to function GwCoord_SendErr
        MOV     R2,#0x21
        MOV     R1,#0x20
        LJMP    ??do_cmd_2 & 0xFFFF
//   55         return;
//   56     }
//   57 
//   58     nodeid  = (uint16)f->payload[0] | ((uint16)f->payload[1] << 8);
??do_cmd_0:
        MOV     DPL,R0
        MOV     DPH,R1
        INC     DPTR
        INC     DPTR
        MOVX    A,@DPTR
        MOV     R4,A
        MOV     DPL,R0
        MOV     DPH,R1
        INC     DPTR
        INC     DPTR
        INC     DPTR
        MOVX    A,@DPTR
        MOV     R3,A
        MOV     A,R4
        MOV     R2,A
//   59     ep      = f->payload[2];
        MOV     DPL,R0
        MOV     DPH,R1
        INC     DPTR
        INC     DPTR
        INC     DPTR
        INC     DPTR
        MOVX    A,@DPTR
        MOV     ?V0 + 2,A
//   60     cluster = (uint16)f->payload[3] | ((uint16)f->payload[4] << 8);
//   61     dtype   = f->payload[5];
        MOV     DPL,R0
        MOV     DPH,R1
        INC     DPTR
        INC     DPTR
        INC     DPTR
        INC     DPTR
        INC     DPTR
        INC     DPTR
        INC     DPTR
        MOVX    A,@DPTR
        MOV     ?V0 + 3,A
//   62     vlen    = f->payload[6];
        MOV     DPL,R0
        MOV     DPH,R1
        INC     DPTR
        INC     DPTR
        INC     DPTR
        INC     DPTR
        INC     DPTR
        INC     DPTR
        INC     DPTR
        INC     DPTR
        MOVX    A,@DPTR
        MOV     ?V0 + 6,A
//   63     val     = &f->payload[7];
        MOV     A,R0
        ADD     A,#0x9
        MOV     R4,A
        MOV     A,R1
        ADDC    A,#0x0
        MOV     R5,A
//   64     if ((uint16)(7u + vlen) > f->plen) {
        MOV     DPL,R0
        MOV     DPH,R1
        INC     DPTR
        MOVX    A,@DPTR
        MOV     ?V0 + 4,A
        MOV     ?V0 + 0,?V0 + 6
        MOV     A,?V0 + 0
        ADD     A,#0x7
        MOV     R6,A
        CLR     A
        ADDC    A,#0x0
        MOV     R7,A
        MOV     A,?V0 + 4
        SUBB    A,R6
        CLR     A
        SUBB    A,R7
        JC      ??do_cmd_1
//   65         GwCoord_SendErr(ERRC_BAD_FRAME, CMD_ZB_CMD);
//   66         return;
//   67     }
//   68 
//   69     if (cluster == ZCL_CLU_ONOFF && dtype == DTYPE_BOOL && vlen == 1u) {
        MOV     DPL,R0
        MOV     DPH,R1
        INC     DPTR
        INC     DPTR
        INC     DPTR
        INC     DPTR
        INC     DPTR
        MOVX    A,@DPTR
        MOV     R6,A
        MOV     DPL,R0
        MOV     DPH,R1
        INC     DPTR
        INC     DPTR
        INC     DPTR
        INC     DPTR
        INC     DPTR
        INC     DPTR
        MOVX    A,@DPTR
        MOV     R1,A
        MOV     A,R6
        MOV     R0,A
        MOV     A,#0x6
        XRL     A,R0
        JNZ     ??do_cmd_3
        MOV     A,R1
??do_cmd_3:
        JNZ     ??do_cmd_4
        MOV     A,#0x1
        XRL     A,?V0 + 3
        JNZ     ??do_cmd_4
        MOV     A,#0x1
        XRL     A,?V0 + 6
        JNZ     ??do_cmd_4
//   70         if (zb_net_send_onoff(nodeid, ep, val[0]) != 0) {
        ; Setup parameters for call to function zb_net_send_onoff
        MOV     DPL,R4
        MOV     DPH,R5
        MOVX    A,@DPTR
        MOV     R4,A
        MOV     R1,?V0 + 2
        LCALL   ??zb_net_send_onoff?relay
        MOV     A,R1
        JZ      ??do_cmd_5
//   71             GwCoord_SendErr(ERRC_SEND_FAIL, CMD_ZB_CMD);
        ; Setup parameters for call to function GwCoord_SendErr
        MOV     R2,#0x21
        MOV     R1,#0x10
        SJMP    ??do_cmd_2
//   72         }
//   73     } else {
//   74         GwCoord_SendErr(ERRC_UNKNOWN, CMD_ZB_CMD);
??do_cmd_4:
        ; Setup parameters for call to function GwCoord_SendErr
        MOV     R2,#0x21
        MOV     R1,#0x7f
??do_cmd_2:
        LCALL   ??GwCoord_SendErr?relay
??do_cmd_5:
        MOV     R7,#0x7
        LJMP    ?BANKED_LEAVE_XDATA
        CFI EndBlock cfiBlock0
//   75     }
//   76 }
//   77 

        RSEG BANKED_CODE:CODE:NOROOT(0)
//   78 void cmd_map_dispatch(const frame_t *f)
cmd_map_dispatch:
        CFI Block cfiBlock1 Using cfiCommon0
        CFI Function cmd_map_dispatch
        CODE
//   79 {
        FUNCALL cmd_map_dispatch, GwCoord_SendFrame
        LOCFRAME ISTACK, 0, STACK
        LOCFRAME PSTACK, 0, STACK
        LOCFRAME XSTACK, 10, STACK
        LOCFRAME IOVERLAY, 0, STATIC
        LOCFRAME DOVERLAY, 0, STATIC
        ARGFRAME ISTACK, 0, STACK
        ARGFRAME PSTACK, 0, STACK
        ARGFRAME XSTACK, 10, STACK
        ARGFRAME IOVERLAY, 0, STATIC
        ARGFRAME DOVERLAY, 0, STATIC
        FUNCALL cmd_map_dispatch, GwCoord_SendErr
        LOCFRAME ISTACK, 0, STACK
        LOCFRAME PSTACK, 0, STACK
        LOCFRAME XSTACK, 10, STACK
        LOCFRAME IOVERLAY, 0, STATIC
        LOCFRAME DOVERLAY, 0, STATIC
        ARGFRAME ISTACK, 0, STACK
        ARGFRAME PSTACK, 0, STACK
        ARGFRAME XSTACK, 10, STACK
        ARGFRAME IOVERLAY, 0, STATIC
        ARGFRAME DOVERLAY, 0, STATIC
        FUNCALL cmd_map_dispatch, zb_net_allow_join
        LOCFRAME ISTACK, 0, STACK
        LOCFRAME PSTACK, 0, STACK
        LOCFRAME XSTACK, 10, STACK
        LOCFRAME IOVERLAY, 0, STATIC
        LOCFRAME DOVERLAY, 0, STATIC
        ARGFRAME ISTACK, 0, STACK
        ARGFRAME PSTACK, 0, STACK
        ARGFRAME XSTACK, 10, STACK
        ARGFRAME IOVERLAY, 0, STATIC
        ARGFRAME DOVERLAY, 0, STATIC
        FUNCALL cmd_map_dispatch, GwCoord_SendNetStatus
        LOCFRAME ISTACK, 0, STACK
        LOCFRAME PSTACK, 0, STACK
        LOCFRAME XSTACK, 10, STACK
        LOCFRAME IOVERLAY, 0, STATIC
        LOCFRAME DOVERLAY, 0, STATIC
        ARGFRAME ISTACK, 0, STACK
        ARGFRAME PSTACK, 0, STACK
        ARGFRAME XSTACK, 10, STACK
        ARGFRAME IOVERLAY, 0, STATIC
        ARGFRAME DOVERLAY, 0, STATIC
        FUNCALL cmd_map_dispatch, zb_net_count
        LOCFRAME ISTACK, 0, STACK
        LOCFRAME PSTACK, 0, STACK
        LOCFRAME XSTACK, 10, STACK
        LOCFRAME IOVERLAY, 0, STATIC
        LOCFRAME DOVERLAY, 0, STATIC
        ARGFRAME ISTACK, 0, STACK
        ARGFRAME PSTACK, 0, STACK
        ARGFRAME XSTACK, 10, STACK
        ARGFRAME IOVERLAY, 0, STATIC
        ARGFRAME DOVERLAY, 0, STATIC
        FUNCALL cmd_map_dispatch, zb_net_at
        LOCFRAME ISTACK, 0, STACK
        LOCFRAME PSTACK, 0, STACK
        LOCFRAME XSTACK, 10, STACK
        LOCFRAME IOVERLAY, 0, STATIC
        LOCFRAME DOVERLAY, 0, STATIC
        ARGFRAME ISTACK, 0, STACK
        ARGFRAME PSTACK, 0, STACK
        ARGFRAME XSTACK, 10, STACK
        ARGFRAME IOVERLAY, 0, STATIC
        ARGFRAME DOVERLAY, 0, STATIC
        FUNCALL cmd_map_dispatch, GwCoord_SendNodeInfo
        LOCFRAME ISTACK, 0, STACK
        LOCFRAME PSTACK, 0, STACK
        LOCFRAME XSTACK, 10, STACK
        LOCFRAME IOVERLAY, 0, STATIC
        LOCFRAME DOVERLAY, 0, STATIC
        ARGFRAME ISTACK, 0, STACK
        ARGFRAME PSTACK, 0, STACK
        ARGFRAME XSTACK, 10, STACK
        ARGFRAME IOVERLAY, 0, STATIC
        ARGFRAME DOVERLAY, 0, STATIC
        FUNCALL cmd_map_dispatch, GwCoord_SendNetStatus
        LOCFRAME ISTACK, 0, STACK
        LOCFRAME PSTACK, 0, STACK
        LOCFRAME XSTACK, 10, STACK
        LOCFRAME IOVERLAY, 0, STATIC
        LOCFRAME DOVERLAY, 0, STATIC
        ARGFRAME ISTACK, 0, STACK
        ARGFRAME PSTACK, 0, STACK
        ARGFRAME XSTACK, 10, STACK
        ARGFRAME IOVERLAY, 0, STATIC
        ARGFRAME DOVERLAY, 0, STATIC
        FUNCALL cmd_map_dispatch, do_cmd
        LOCFRAME ISTACK, 0, STACK
        LOCFRAME PSTACK, 0, STACK
        LOCFRAME XSTACK, 10, STACK
        LOCFRAME IOVERLAY, 0, STATIC
        LOCFRAME DOVERLAY, 0, STATIC
        ARGFRAME ISTACK, 0, STACK
        ARGFRAME PSTACK, 0, STACK
        ARGFRAME XSTACK, 10, STACK
        ARGFRAME IOVERLAY, 0, STATIC
        ARGFRAME DOVERLAY, 0, STATIC
        FUNCALL cmd_map_dispatch, GwCoord_SendErr
        LOCFRAME ISTACK, 0, STACK
        LOCFRAME PSTACK, 0, STACK
        LOCFRAME XSTACK, 10, STACK
        LOCFRAME IOVERLAY, 0, STATIC
        LOCFRAME DOVERLAY, 0, STATIC
        ARGFRAME ISTACK, 0, STACK
        ARGFRAME PSTACK, 0, STACK
        ARGFRAME XSTACK, 10, STACK
        ARGFRAME IOVERLAY, 0, STATIC
        ARGFRAME DOVERLAY, 0, STATIC
        MOV     A,#-0xa
        LCALL   ?BANKED_ENTER_XDATA
        CFI DPH0 load(1, XDATA, add(CFA_XSP16, literal(-1)))
        CFI DPL0 load(1, XDATA, add(CFA_XSP16, literal(-2)))
        CFI ?BRET_EXT load(1, XDATA, add(CFA_XSP16, literal(-3)))
        CFI ?RET_HIGH load(1, XDATA, add(CFA_XSP16, literal(-4)))
        CFI ?RET_LOW load(1, XDATA, add(CFA_XSP16, literal(-5)))
        CFI R7 load(1, XDATA, add(CFA_XSP16, literal(-6)))
        CFI V1 load(1, XDATA, add(CFA_XSP16, literal(-7)))
        CFI V0 load(1, XDATA, add(CFA_XSP16, literal(-8)))
        CFI VB load(1, XDATA, add(CFA_XSP16, literal(-9)))
        CFI R6 load(1, XDATA, add(CFA_XSP16, literal(-10)))
        CFI CFA_SP SP+0
        CFI CFA_XSP16 add(XSP16, 10)
        ; Saved register size: 10
        ; Auto size: 0
//   80     switch (f->cmd) {
        MOV     DPL,R2
        MOV     DPH,R3
        MOVX    A,@DPTR
        DEC     A
        JZ      ??cmd_map_dispatch_0
        ADD     A,#-0xf
        JZ      ??cmd_map_dispatch_1
        DEC     A
        JZ      ??cmd_map_dispatch_2
        ADD     A,#-0x10
        JZ      ??cmd_map_dispatch_3
        SJMP    ??cmd_map_dispatch_4
//   81     case CMD_ZB_PING:
//   82         do_ping(f);
??cmd_map_dispatch_0:
        ; Setup parameters for call to function GwCoord_SendFrame
        MOV     R4,#0x0
        MOV     R2,#0x0
        MOV     R3,#0x0
        MOV     R1,#0x1
        LCALL   ??GwCoord_SendFrame?relay
//   83         break;
        SJMP    ??cmd_map_dispatch_5
//   84     case CMD_ZB_ALLOW_JOIN:
//   85         do_allow_join(f);
??cmd_map_dispatch_1:
        INC     DPTR
        MOVX    A,@DPTR
        JNZ     ??cmd_map_dispatch_6
        ; Setup parameters for call to function GwCoord_SendErr
        MOV     R2,#0x10
        MOV     R1,#0x20
        SJMP    ??cmd_map_dispatch_7
??cmd_map_dispatch_6:
        ; Setup parameters for call to function zb_net_allow_join
        MOV     DPL,R2
        MOV     DPH,R3
        INC     DPTR
        INC     DPTR
        MOVX    A,@DPTR
        MOV     R1,A
        LCALL   ??zb_net_allow_join?relay
        ; Setup parameters for call to function GwCoord_SendNetStatus
??cmd_map_dispatch_8:
        LCALL   ??GwCoord_SendNetStatus?relay
        SJMP    ??cmd_map_dispatch_5
//   86         break;
//   87     case CMD_ZB_LIST_NODES:
//   88         do_list_nodes(f);
??cmd_map_dispatch_2:
        ; Setup parameters for call to function zb_net_count
        LCALL   ??zb_net_count?relay
        MOV     A,R1
        MOV     R7,A
        MOV     R6,#0x0
        SJMP    ??cmd_map_dispatch_9
??cmd_map_dispatch_10:
        ; Setup parameters for call to function zb_net_at
        MOV     A,R6
        MOV     R1,A
        LCALL   ??zb_net_at?relay
        MOV     A,R2
        ORL     A,R3
        JZ      ??cmd_map_dispatch_11
        ; Setup parameters for call to function GwCoord_SendNodeInfo
        LCALL   ??GwCoord_SendNodeInfo?relay
??cmd_map_dispatch_11:
        INC     R6
??cmd_map_dispatch_9:
        MOV     A,R6
        CLR     C
        SUBB    A,R7
        JC      ??cmd_map_dispatch_10
        MOV     A,R7
        JNZ     ??cmd_map_dispatch_5
        ; Setup parameters for call to function GwCoord_SendNetStatus
        SJMP    ??cmd_map_dispatch_8
//   89         break;
//   90     case CMD_ZB_CMD:
//   91         do_cmd(f);
??cmd_map_dispatch_3:
        ; Setup parameters for call to function do_cmd
        LCALL   ??do_cmd?relay
//   92         break;
        SJMP    ??cmd_map_dispatch_5
//   93     default:
//   94         GwCoord_SendErr(ERRC_UNKNOWN, f->cmd);
??cmd_map_dispatch_4:
        ; Setup parameters for call to function GwCoord_SendErr
        MOVX    A,@DPTR
        MOV     R2,A
        MOV     R1,#0x7f
??cmd_map_dispatch_7:
        LCALL   ??GwCoord_SendErr?relay
//   95         break;
//   96     }
//   97 }
??cmd_map_dispatch_5:
        MOV     R7,#0x2
        LJMP    ?BANKED_LEAVE_XDATA
        CFI EndBlock cfiBlock1

        RSEG BANK_RELAYS:CODE:REORDER:NOROOT(0)
??do_cmd?relay:
        LCALL   ?BDISPATCH
        DATA
        DC24    do_cmd

        RSEG BANK_RELAYS:CODE:REORDER:NOROOT(0)
??cmd_map_dispatch?relay:
        LCALL   ?BDISPATCH
        DATA
        DC24    cmd_map_dispatch

        END
// 
// 312 bytes in segment BANKED_CODE
//  12 bytes in segment BANK_RELAYS
// 
// 324 bytes of CODE memory
//
//Errors: none
//Warnings: 1
