###############################################################################
#                                                                             #
# IAR C/C++ Compiler V8.10.3.10338/W32 for 8051         20/Apr/2026  15:53:28 #
# Copyright 2004-2011 IAR Systems AB.                                         #
#                                                                             #
#    Core               =  plain                                              #
#    Code model         =  banked                                             #
#    Data model         =  large                                              #
#    Calling convention =  xdata reentrant                                    #
#    Constant location  =  data                                               #
#    Dptr setup         =  1,16                                               #
#    Source file        =  D:\ZNJJ\ZStack-CC2530-2.5.1a\Projects\zstack\Sampl #
#                          es\GwCoord\Source\frame.c                          #
#    Command line       =  -f D:\ZNJJ\ZStack-CC2530-2.5.1a\Projects\zstack\Sa #
#                          mples\GwCoord\CC2530DB\..\..\..\Tools\CC2530DB\f8w #
#                          Coord.cfg (-DCPU32MHZ -DROOT=__near_func           #
#                          -DMAC_CFG_APP_PENDING_QUEUE=TRUE                   #
#                          -DMAC_CFG_TX_DATA_MAX=5 -DMAC_CFG_TX_MAX=8         #
#                          -DMAC_CFG_RX_MAX=5 -DZDO_COORDINATOR -DRTR_NWK)    #
#                          -f D:\ZNJJ\ZStack-CC2530-2.5.1a\Projects\zstack\Sa #
#                          mples\GwCoord\CC2530DB\..\..\..\Tools\CC2530DB\f8w #
#                          Config.cfg (-DZIGBEEPRO -DSECURE=0                 #
#                          -DZG_SECURE_DYNAMIC=0 -DREFLECTOR                  #
#                          -DDEFAULT_CHANLIST=0x00000800                      #
#                          -DZDAPP_CONFIG_PAN_ID=0xFFFF                       #
#                          -DNWK_START_DELAY=100 -DEXTENDED_JOINING_RANDOM_MA #
#                          SK=0x007F -DBEACON_REQUEST_DELAY=100               #
#                          -DBEACON_REQ_DELAY_MASK=0x00FF                     #
#                          -DLINK_STATUS_JITTER_MASK=0x007F                   #
#                          -DROUTE_EXPIRY_TIME=30 -DAPSC_ACK_WAIT_DURATION_PO #
#                          LLED=3000 -DNWK_INDIRECT_MSG_TIMEOUT=7             #
#                          -DMAX_RREQ_ENTRIES=8 -DAPSC_MAX_FRAME_RETRIES=3    #
#                          -DNWK_MAX_DATA_RETRIES=2                           #
#                          -DMAX_POLL_FAILURE_RETRIES=2 -DMAX_BCAST=9         #
#                          -DAPS_MAX_GROUPS=16 -DMAX_RTG_ENTRIES=40           #
#                          -DNWK_MAX_BINDING_ENTRIES=4                        #
#                          -DMAX_BINDING_CLUSTER_IDS=4 "-DDEFAULT_KEY={0x01,  #
#                          0x03, 0x05, 0x07, 0x09, 0x0B, 0x0D, 0x0F, 0x00,    #
#                          0x02, 0x04, 0x06, 0x08, 0x0A, 0x0C, 0x0D}"         #
#                          -DMAC_MAX_FRAME_SIZE=116                           #
#                          -DZDNWKMGR_MIN_TRANSMISSIONS=20 "-DCONST=const     #
#                          __code" -DGENERIC=__generic                        #
#                          -DRFD_RCVC_ALWAYS_ON=FALSE -DPOLL_RATE=1000        #
#                          -DQUEUED_POLL_RATE=100 -DRESPONSE_POLL_RATE=100)   #
#                          -DREJOIN_POLL_RATE=440 D:\ZNJJ\ZStack-CC2530-2.5.1 #
#                          a\Projects\zstack\Samples\GwCoord\Source\frame.c   #
#                          -D HAL_UART=TRUE -D HAL_LCD=FALSE -lC              #
#                          D:\ZNJJ\ZStack-CC2530-2.5.1a\Projects\zstack\Sampl #
#                          es\GwCoord\CC2530DB\CoordinatorEB\List\ -lA        #
#                          D:\ZNJJ\ZStack-CC2530-2.5.1a\Projects\zstack\Sampl #
#                          es\GwCoord\CC2530DB\CoordinatorEB\List\            #
#                          --diag_suppress Pe001,Pa010 -o                     #
#                          D:\ZNJJ\ZStack-CC2530-2.5.1a\Projects\zstack\Sampl #
#                          es\GwCoord\CC2530DB\CoordinatorEB\Obj\ -e          #
#                          --no_code_motion --debug --core=plain --dptr=16,1  #
#                          --data_model=large --code_model=banked             #
#                          --calling_convention=xdata_reentrant               #
#                          --place_constants=data --nr_virtual_regs 16 -I     #
#                          D:\ZNJJ\ZStack-CC2530-2.5.1a\Projects\zstack\Sampl #
#                          es\GwCoord\CC2530DB\ -I D:\ZNJJ\ZStack-CC2530-2.5. #
#                          1a\Projects\zstack\Samples\GwCoord\CC2530DB\..\Sou #
#                          rce\ -I D:\ZNJJ\ZStack-CC2530-2.5.1a\Projects\zsta #
#                          ck\Samples\GwCoord\CC2530DB\..\..\..\ZMain\TI2530D #
#                          B\ -I D:\ZNJJ\ZStack-CC2530-2.5.1a\Projects\zstack #
#                          \Samples\GwCoord\CC2530DB\..\..\..\..\..\Component #
#                          s\hal\include\ -I D:\ZNJJ\ZStack-CC2530-2.5.1a\Pro #
#                          jects\zstack\Samples\GwCoord\CC2530DB\..\..\..\..\ #
#                          ..\Components\hal\target\CC2530EB\ -I              #
#                          D:\ZNJJ\ZStack-CC2530-2.5.1a\Projects\zstack\Sampl #
#                          es\GwCoord\CC2530DB\..\..\..\..\..\Components\mac\ #
#                          include\ -I D:\ZNJJ\ZStack-CC2530-2.5.1a\Projects\ #
#                          zstack\Samples\GwCoord\CC2530DB\..\..\..\..\..\Com #
#                          ponents\mac\high_level\ -I                         #
#                          D:\ZNJJ\ZStack-CC2530-2.5.1a\Projects\zstack\Sampl #
#                          es\GwCoord\CC2530DB\..\..\..\..\..\Components\mac\ #
#                          low_level\srf04\ -I D:\ZNJJ\ZStack-CC2530-2.5.1a\P #
#                          rojects\zstack\Samples\GwCoord\CC2530DB\..\..\..\. #
#                          .\..\Components\mac\low_level\srf04\single_chip\   #
#                          -I D:\ZNJJ\ZStack-CC2530-2.5.1a\Projects\zstack\Sa #
#                          mples\GwCoord\CC2530DB\..\..\..\..\..\Components\m #
#                          t\ -I D:\ZNJJ\ZStack-CC2530-2.5.1a\Projects\zstack #
#                          \Samples\GwCoord\CC2530DB\..\..\..\..\..\Component #
#                          s\osal\include\ -I D:\ZNJJ\ZStack-CC2530-2.5.1a\Pr #
#                          ojects\zstack\Samples\GwCoord\CC2530DB\..\..\..\.. #
#                          \..\Components\services\saddr\ -I                  #
#                          D:\ZNJJ\ZStack-CC2530-2.5.1a\Projects\zstack\Sampl #
#                          es\GwCoord\CC2530DB\..\..\..\..\..\Components\serv #
#                          ices\sdata\ -I D:\ZNJJ\ZStack-CC2530-2.5.1a\Projec #
#                          ts\zstack\Samples\GwCoord\CC2530DB\..\..\..\..\..\ #
#                          Components\stack\af\ -I D:\ZNJJ\ZStack-CC2530-2.5. #
#                          1a\Projects\zstack\Samples\GwCoord\CC2530DB\..\..\ #
#                          ..\..\..\Components\stack\nwk\ -I                  #
#                          D:\ZNJJ\ZStack-CC2530-2.5.1a\Projects\zstack\Sampl #
#                          es\GwCoord\CC2530DB\..\..\..\..\..\Components\stac #
#                          k\sapi\ -I D:\ZNJJ\ZStack-CC2530-2.5.1a\Projects\z #
#                          stack\Samples\GwCoord\CC2530DB\..\..\..\..\..\Comp #
#                          onents\stack\sec\ -I D:\ZNJJ\ZStack-CC2530-2.5.1a\ #
#                          Projects\zstack\Samples\GwCoord\CC2530DB\..\..\..\ #
#                          ..\..\Components\stack\sys\ -I                     #
#                          D:\ZNJJ\ZStack-CC2530-2.5.1a\Projects\zstack\Sampl #
#                          es\GwCoord\CC2530DB\..\..\..\..\..\Components\stac #
#                          k\zdo\ -I D:\ZNJJ\ZStack-CC2530-2.5.1a\Projects\zs #
#                          tack\Samples\GwCoord\CC2530DB\..\..\..\..\..\Compo #
#                          nents\zmac\ -I D:\ZNJJ\ZStack-CC2530-2.5.1a\Projec #
#                          ts\zstack\Samples\GwCoord\CC2530DB\..\..\..\..\..\ #
#                          Components\zmac\f8w\ -Ohz --require_prototypes     #
#    List file          =  D:\ZNJJ\ZStack-CC2530-2.5.1a\Projects\zstack\Sampl #
#                          es\GwCoord\CC2530DB\CoordinatorEB\List\frame.lst   #
#    Object file        =  D:\ZNJJ\ZStack-CC2530-2.5.1a\Projects\zstack\Sampl #
#                          es\GwCoord\CC2530DB\CoordinatorEB\Obj\frame.r51    #
#                                                                             #
#                                                                             #
###############################################################################

D:\ZNJJ\ZStack-CC2530-2.5.1a\Projects\zstack\Samples\GwCoord\Source\frame.c
      1          /*
                  ^
Warning[Pa050]: non-native end of line sequence detected (this diagnostic is
          only issued once)
      2           * UART 帧编解码（CC2530 侧，与 STM32 App/proto/frame.c 同源）。
      3           * 协议：AA 55 LEN CMD PAYLOAD CRC8-ITU(0x07,init=0x00) 0D。
      4           * 小端、无流控、字节间隔 >20ms 复位解析。
      5           */
      6          
      7          #include "frame.h"
      8          
      9          /* CRC8-ITU 查表，放 CODE 段（flash） */

   \                                 In  segment CODE_C, align 1
     10          static const uint8 CODE_QUAL CRC8_ITU_TAB[256] = {
   \                     CRC8_ITU_TAB:
   \   000000   00           DB 0
   \   000001   07           DB 7
   \   000002   0E           DB 14
   \   000003   09           DB 9
   \   000004   1C           DB 28
   \   000005   1B           DB 27
   \   000006   12           DB 18
   \   000007   15           DB 21
   \   000008   38           DB 56
   \   000009   3F           DB 63
   \   00000A   36           DB 54
   \   00000B   31           DB 49
   \   00000C   24           DB 36
   \   00000D   23           DB 35
   \   00000E   2A           DB 42
   \   00000F   2D           DB 45
   \   000010   70           DB 112
   \   000011   77           DB 119
   \   000012   7E           DB 126
   \   000013   79           DB 121
   \   000014   6C           DB 108
   \   000015   6B           DB 107
   \   000016   62           DB 98
   \   000017   65           DB 101
   \   000018   48           DB 72
   \   000019   4F           DB 79
   \   00001A   46           DB 70
   \   00001B   41           DB 65
   \   00001C   54           DB 84
   \   00001D   53           DB 83
   \   00001E   5A           DB 90
   \   00001F   5D           DB 93
   \   000020   E0           DB 224
   \   000021   E7           DB 231
   \   000022   EE           DB 238
   \   000023   E9           DB 233
   \   000024   FC           DB 252
   \   000025   FB           DB 251
   \   000026   F2           DB 242
   \   000027   F5           DB 245
   \   000028   D8           DB 216
   \   000029   DF           DB 223
   \   00002A   D6           DB 214
   \   00002B   D1           DB 209
   \   00002C   C4           DB 196
   \   00002D   C3           DB 195
   \   00002E   CA           DB 202
   \   00002F   CD           DB 205
   \   000030   90           DB 144
   \   000031   97           DB 151
   \   000032   9E           DB 158
   \   000033   99           DB 153
   \   000034   8C           DB 140
   \   000035   8B           DB 139
   \   000036   82           DB 130
   \   000037   85           DB 133
   \   000038   A8           DB 168
   \   000039   AF           DB 175
   \   00003A   A6           DB 166
   \   00003B   A1           DB 161
   \   00003C   B4           DB 180
   \   00003D   B3           DB 179
   \   00003E   BA           DB 186
   \   00003F   BD           DB 189
   \   000040   C7           DB 199
   \   000041   C0           DB 192
   \   000042   C9           DB 201
   \   000043   CE           DB 206
   \   000044   DB           DB 219
   \   000045   DC           DB 220
   \   000046   D5           DB 213
   \   000047   D2           DB 210
   \   000048   FF           DB 255
   \   000049   F8           DB 248
   \   00004A   F1           DB 241
   \   00004B   F6           DB 246
   \   00004C   E3           DB 227
   \   00004D   E4           DB 228
   \   00004E   ED           DB 237
   \   00004F   EA           DB 234
   \   000050   B7           DB 183
   \   000051   B0           DB 176
   \   000052   B9           DB 185
   \   000053   BE           DB 190
   \   000054   AB           DB 171
   \   000055   AC           DB 172
   \   000056   A5           DB 165
   \   000057   A2           DB 162
   \   000058   8F           DB 143
   \   000059   88           DB 136
   \   00005A   81           DB 129
   \   00005B   86           DB 134
   \   00005C   93           DB 147
   \   00005D   94           DB 148
   \   00005E   9D           DB 157
   \   00005F   9A           DB 154
   \   000060   27           DB 39
   \   000061   20           DB 32
   \   000062   29           DB 41
   \   000063   2E           DB 46
   \   000064   3B           DB 59
   \   000065   3C           DB 60
   \   000066   35           DB 53
   \   000067   32           DB 50
   \   000068   1F           DB 31
   \   000069   18           DB 24
   \   00006A   11           DB 17
   \   00006B   16           DB 22
   \   00006C   03           DB 3
   \   00006D   04           DB 4
   \   00006E   0D           DB 13
   \   00006F   0A           DB 10
   \   000070   57           DB 87
   \   000071   50           DB 80
   \   000072   59           DB 89
   \   000073   5E           DB 94
   \   000074   4B           DB 75
   \   000075   4C           DB 76
   \   000076   45           DB 69
   \   000077   42           DB 66
   \   000078   6F           DB 111
   \   000079   68           DB 104
   \   00007A   61           DB 97
   \   00007B   66           DB 102
   \   00007C   73           DB 115
   \   00007D   74           DB 116
   \   00007E   7D           DB 125
   \   00007F   7A           DB 122
   \   000080   89           DB 137
   \   000081   8E           DB 142
   \   000082   87           DB 135
   \   000083   80           DB 128
   \   000084   95           DB 149
   \   000085   92           DB 146
   \   000086   9B           DB 155
   \   000087   9C           DB 156
   \   000088   B1           DB 177
   \   000089   B6           DB 182
   \   00008A   BF           DB 191
   \   00008B   B8           DB 184
   \   00008C   AD           DB 173
   \   00008D   AA           DB 170
   \   00008E   A3           DB 163
   \   00008F   A4           DB 164
   \   000090   F9           DB 249
   \   000091   FE           DB 254
   \   000092   F7           DB 247
   \   000093   F0           DB 240
   \   000094   E5           DB 229
   \   000095   E2           DB 226
   \   000096   EB           DB 235
   \   000097   EC           DB 236
   \   000098   C1           DB 193
   \   000099   C6           DB 198
   \   00009A   CF           DB 207
   \   00009B   C8           DB 200
   \   00009C   DD           DB 221
   \   00009D   DA           DB 218
   \   00009E   D3           DB 211
   \   00009F   D4           DB 212
   \   0000A0   69           DB 105
   \   0000A1   6E           DB 110
   \   0000A2   67           DB 103
   \   0000A3   60           DB 96
   \   0000A4   75           DB 117
   \   0000A5   72           DB 114
   \   0000A6   7B           DB 123
   \   0000A7   7C           DB 124
   \   0000A8   51           DB 81
   \   0000A9   56           DB 86
   \   0000AA   5F           DB 95
   \   0000AB   58           DB 88
   \   0000AC   4D           DB 77
   \   0000AD   4A           DB 74
   \   0000AE   43           DB 67
   \   0000AF   44           DB 68
   \   0000B0   19           DB 25
   \   0000B1   1E           DB 30
   \   0000B2   17           DB 23
   \   0000B3   10           DB 16
   \   0000B4   05           DB 5
   \   0000B5   02           DB 2
   \   0000B6   0B           DB 11
   \   0000B7   0C           DB 12
   \   0000B8   21           DB 33
   \   0000B9   26           DB 38
   \   0000BA   2F           DB 47
   \   0000BB   28           DB 40
   \   0000BC   3D           DB 61
   \   0000BD   3A           DB 58
   \   0000BE   33           DB 51
   \   0000BF   34           DB 52
   \   0000C0   4E           DB 78
   \   0000C1   49           DB 73
   \   0000C2   40           DB 64
   \   0000C3   47           DB 71
   \   0000C4   52           DB 82
   \   0000C5   55           DB 85
   \   0000C6   5C           DB 92
   \   0000C7   5B           DB 91
   \   0000C8   76           DB 118
   \   0000C9   71           DB 113
   \   0000CA   78           DB 120
   \   0000CB   7F           DB 127
   \   0000CC   6A           DB 106
   \   0000CD   6D           DB 109
   \   0000CE   64           DB 100
   \   0000CF   63           DB 99
   \   0000D0   3E           DB 62
   \   0000D1   39           DB 57
   \   0000D2   30           DB 48
   \   0000D3   37           DB 55
   \   0000D4   22           DB 34
   \   0000D5   25           DB 37
   \   0000D6   2C           DB 44
   \   0000D7   2B           DB 43
   \   0000D8   06           DB 6
   \   0000D9   01           DB 1
   \   0000DA   08           DB 8
   \   0000DB   0F           DB 15
   \   0000DC   1A           DB 26
   \   0000DD   1D           DB 29
   \   0000DE   14           DB 20
   \   0000DF   13           DB 19
   \   0000E0   AE           DB 174
   \   0000E1   A9           DB 169
   \   0000E2   A0           DB 160
   \   0000E3   A7           DB 167
   \   0000E4   B2           DB 178
   \   0000E5   B5           DB 181
   \   0000E6   BC           DB 188
   \   0000E7   BB           DB 187
   \   0000E8   96           DB 150
   \   0000E9   91           DB 145
   \   0000EA   98           DB 152
   \   0000EB   9F           DB 159
   \   0000EC   8A           DB 138
   \   0000ED   8D           DB 141
   \   0000EE   84           DB 132
   \   0000EF   83           DB 131
   \   0000F0   DE           DB 222
   \   0000F1   D9           DB 217
   \   0000F2   D0           DB 208
   \   0000F3   D7           DB 215
   \   0000F4   C2           DB 194
   \   0000F5   C5           DB 197
   \   0000F6   CC           DB 204
   \   0000F7   CB           DB 203
   \   0000F8   E6           DB 230
   \   0000F9   E1           DB 225
   \   0000FA   E8           DB 232
   \   0000FB   EF           DB 239
   \   0000FC   FA           DB 250
   \   0000FD   FD           DB 253
   \   0000FE   F4           DB 244
   \   0000FF   F3           DB 243
     11              0x00,0x07,0x0E,0x09,0x1C,0x1B,0x12,0x15,0x38,0x3F,0x36,0x31,0x24,0x23,0x2A,0x2D,
     12              0x70,0x77,0x7E,0x79,0x6C,0x6B,0x62,0x65,0x48,0x4F,0x46,0x41,0x54,0x53,0x5A,0x5D,
     13              0xE0,0xE7,0xEE,0xE9,0xFC,0xFB,0xF2,0xF5,0xD8,0xDF,0xD6,0xD1,0xC4,0xC3,0xCA,0xCD,
     14              0x90,0x97,0x9E,0x99,0x8C,0x8B,0x82,0x85,0xA8,0xAF,0xA6,0xA1,0xB4,0xB3,0xBA,0xBD,
     15              0xC7,0xC0,0xC9,0xCE,0xDB,0xDC,0xD5,0xD2,0xFF,0xF8,0xF1,0xF6,0xE3,0xE4,0xED,0xEA,
     16              0xB7,0xB0,0xB9,0xBE,0xAB,0xAC,0xA5,0xA2,0x8F,0x88,0x81,0x86,0x93,0x94,0x9D,0x9A,
     17              0x27,0x20,0x29,0x2E,0x3B,0x3C,0x35,0x32,0x1F,0x18,0x11,0x16,0x03,0x04,0x0D,0x0A,
     18              0x57,0x50,0x59,0x5E,0x4B,0x4C,0x45,0x42,0x6F,0x68,0x61,0x66,0x73,0x74,0x7D,0x7A,
     19              0x89,0x8E,0x87,0x80,0x95,0x92,0x9B,0x9C,0xB1,0xB6,0xBF,0xB8,0xAD,0xAA,0xA3,0xA4,
     20              0xF9,0xFE,0xF7,0xF0,0xE5,0xE2,0xEB,0xEC,0xC1,0xC6,0xCF,0xC8,0xDD,0xDA,0xD3,0xD4,
     21              0x69,0x6E,0x67,0x60,0x75,0x72,0x7B,0x7C,0x51,0x56,0x5F,0x58,0x4D,0x4A,0x43,0x44,
     22              0x19,0x1E,0x17,0x10,0x05,0x02,0x0B,0x0C,0x21,0x26,0x2F,0x28,0x3D,0x3A,0x33,0x34,
     23              0x4E,0x49,0x40,0x47,0x52,0x55,0x5C,0x5B,0x76,0x71,0x78,0x7F,0x6A,0x6D,0x64,0x63,
     24              0x3E,0x39,0x30,0x37,0x22,0x25,0x2C,0x2B,0x06,0x01,0x08,0x0F,0x1A,0x1D,0x14,0x13,
     25              0xAE,0xA9,0xA0,0xA7,0xB2,0xB5,0xBC,0xBB,0x96,0x91,0x98,0x9F,0x8A,0x8D,0x84,0x83,
     26              0xDE,0xD9,0xD0,0xD7,0xC2,0xC5,0xCC,0xCB,0xE6,0xE1,0xE8,0xEF,0xFA,0xFD,0xF4,0xF3
     27          };
     28          

   \                                 In  segment BANKED_CODE, align 1, keep-with-next
     29          uint8 crc8_itu(const uint8 *data, uint16 n)
   \                     crc8_itu:
     30          {
   \   000000   74F6         MOV     A,#-0xa
   \   000002   12....       LCALL   ?BANKED_ENTER_XDATA
   \   000005                ; Saved register size: 10
   \   000005                ; Auto size: 0
     31              uint8  c = 0x00;
   \   000005   7900         MOV     R1,#0x0
     32              uint16 i;
     33              for (i = 0; i < n; ++i) {
   \   000007   7E00         MOV     R6,#0x0
   \   000009   7F00         MOV     R7,#0x0
   \   00000B   8025         SJMP    ??crc8_itu_0
     34                  c = CRC8_ITU_TAB[c ^ data[i]];
   \                     ??crc8_itu_1:
   \   00000D   89..         MOV     ?V0 + 0,R1
   \   00000F   EA           MOV     A,R2
   \   000010   2E           ADD     A,R6
   \   000011   F582         MOV     DPL,A
   \   000013   EB           MOV     A,R3
   \   000014   3F           ADDC    A,R7
   \   000015   F583         MOV     DPH,A
   \   000017   E0           MOVX    A,@DPTR
   \   000018   F8           MOV     R0,A
   \   000019   E5..         MOV     A,?V0 + 0
   \   00001B   68           XRL     A,R0
   \   00001C   F8           MOV     R0,A
   \   00001D   74..         MOV     A,#CRC8_ITU_TAB & 0xff
   \   00001F   28           ADD     A,R0
   \   000020   F582         MOV     DPL,A
   \   000022   74..         MOV     A,#(CRC8_ITU_TAB >> 8) & 0xff
   \   000024   12....       LCALL   ??Subroutine11_0 & 0xFFFF
     35              }
   \                     ??CrossCallReturnLabel_20:
   \   000027   E4           CLR     A
   \   000028   93           MOVC    A,@A+DPTR
   \   000029   F9           MOV     R1,A
   \   00002A   EE           MOV     A,R6
   \   00002B   2401         ADD     A,#0x1
   \   00002D   0E           INC     R6
   \   00002E   EF           MOV     A,R7
   \   00002F   3400         ADDC    A,#0x0
   \   000031   FF           MOV     R7,A
   \                     ??crc8_itu_0:
   \   000032   C3           CLR     C
   \   000033   EE           MOV     A,R6
   \   000034   9C           SUBB    A,R4
   \   000035   EF           MOV     A,R7
   \   000036   9D           SUBB    A,R5
   \   000037   40D4         JC      ??crc8_itu_1
     36              return c;
   \   000039   7F02         MOV     R7,#0x2
   \   00003B   02....       LJMP    ?BANKED_LEAVE_XDATA
     37          }

   \                                 In  segment BANKED_CODE, align 1, keep-with-next
   \                     ??Subroutine11_0:
   \   000000   3400         ADDC    A,#0x0
   \   000002   F583         MOV     DPH,A
   \   000004   22           RET
     38          

   \                                 In  segment BANKED_CODE, align 1, keep-with-next
     39          void frame_parser_init(frame_parser_t XDATA_QUAL *p)
   \                     frame_parser_init:
     40          {
   \   000000   74F7         MOV     A,#-0x9
   \   000002   12....       LCALL   ?BANKED_ENTER_XDATA
   \   000005                ; Saved register size: 9
   \   000005                ; Auto size: 0
   \   000005   EA           MOV     A,R2
   \   000006   F8           MOV     R0,A
   \   000007   EB           MOV     A,R3
   \   000008   F9           MOV     R1,A
     41              p->st = FP_S_SOF1;
   \   000009   8882         MOV     DPL,R0
   \   00000B   8983         MOV     DPH,R1
   \   00000D   E4           CLR     A
   \   00000E   F0           MOVX    @DPTR,A
     42              p->len = 0;
   \   00000F   A3           INC     DPTR
   \   000010   F0           MOVX    @DPTR,A
     43              p->body_read = 0;
   \   000011   8882         MOV     DPL,R0
   \   000013   8983         MOV     DPH,R1
   \   000015   A3           INC     DPTR
   \   000016   A3           INC     DPTR
   \   000017   12....       LCALL   ?Subroutine7 & 0xFFFF
     44              p->crc_calc = 0;
   \                     ??CrossCallReturnLabel_8:
   \   00001A   F0           MOVX    @DPTR,A
     45              p->last_byte_ms = 0;
   \   00001B   90....       MOV     DPTR,#__Constant_0
   \   00001E   12....       LCALL   ?XLOAD_R2345
   \   000021   8882         MOV     DPL,R0
   \   000023   8983         MOV     DPH,R1
   \   000025   A3           INC     DPTR
   \   000026   A3           INC     DPTR
   \   000027   A3           INC     DPTR
   \   000028   A3           INC     DPTR
   \   000029   12....       LCALL   ?XSTORE_R2345
     46              p->acc.cmd = 0;
   \   00002C   8882         MOV     DPL,R0
   \   00002E   8983         MOV     DPH,R1
   \   000030   A3           INC     DPTR
   \   000031   A3           INC     DPTR
   \   000032   A3           INC     DPTR
   \   000033   A3           INC     DPTR
   \   000034   A3           INC     DPTR
   \   000035   A3           INC     DPTR
   \   000036   A3           INC     DPTR
   \   000037   A3           INC     DPTR
   \   000038   E4           CLR     A
   \   000039   12....       LCALL   ?Subroutine7 & 0xFFFF
     47              p->acc.plen = 0;
   \                     ??CrossCallReturnLabel_9:
   \   00003C   A3           INC     DPTR
   \   00003D   A3           INC     DPTR
   \   00003E   A3           INC     DPTR
   \   00003F   A3           INC     DPTR
   \   000040   A3           INC     DPTR
   \   000041   A3           INC     DPTR
   \   000042   F0           MOVX    @DPTR,A
     48              p->frame_err = 0;
   \   000043   90....       MOV     DPTR,#__Constant_0
   \   000046   12....       LCALL   ?XLOAD_R2345
   \   000049   E8           MOV     A,R0
   \   00004A   244A         ADD     A,#0x4a
   \   00004C   12....       LCALL   ?Subroutine6 & 0xFFFF
   \                     ??CrossCallReturnLabel_23:
   \   00004F   12....       LCALL   ?XSTORE_R2345
     49              p->crc_err = 0;
   \   000052   90....       MOV     DPTR,#__Constant_0
   \   000055   12....       LCALL   ?XLOAD_R2345
   \   000058   E8           MOV     A,R0
   \   000059   244E         ADD     A,#0x4e
   \   00005B   12....       LCALL   ?Subroutine6 & 0xFFFF
   \                     ??CrossCallReturnLabel_24:
   \   00005E   12....       LCALL   ?XSTORE_R2345
     50              p->ok_cnt = 0;
   \   000061   90....       MOV     DPTR,#__Constant_0
   \   000064   12....       LCALL   ?XLOAD_R2345
   \   000067   E8           MOV     A,R0
   \   000068   2452         ADD     A,#0x52
   \   00006A   12....       LCALL   ?Subroutine6 & 0xFFFF
   \                     ??CrossCallReturnLabel_25:
   \   00006D   12....       LCALL   ?XSTORE_R2345
     51          }
   \   000070   7F01         MOV     R7,#0x1
   \   000072   02....       LJMP    ?BANKED_LEAVE_XDATA

   \                                 In  segment BANKED_CODE, align 1, keep-with-next
   \                     ?Subroutine7:
   \   000000   F0           MOVX    @DPTR,A
   \   000001   8882         MOV     DPL,R0
   \   000003   8983         MOV     DPH,R1
   \   000005   A3           INC     DPTR
   \   000006   A3           INC     DPTR
   \   000007   A3           INC     DPTR
   \   000008   22           RET

   \                                 In  segment BANKED_CODE, align 1, keep-with-next
   \                     ?Subroutine6:
   \   000000   F582         MOV     DPL,A
   \   000002   E9           MOV     A,R1
   \   000003                REQUIRE ??Subroutine11_0
   \   000003                ; // Fall through to label ??Subroutine11_0
     52          

   \                                 In  segment BANKED_CODE, align 1, keep-with-next
     53          static void parser_soft_reset(frame_parser_t XDATA_QUAL *p)
   \                     parser_soft_reset:
     54          {
   \   000000   C082         PUSH    DPL
   \   000002   C083         PUSH    DPH
   \   000004                ; Saved register size: 2
   \   000004                ; Auto size: 0
     55              p->st = FP_S_SOF1;
   \   000004   8A82         MOV     DPL,R2
   \   000006   8B83         MOV     DPH,R3
   \   000008   E4           CLR     A
   \   000009   F0           MOVX    @DPTR,A
     56              p->body_read = 0;
   \   00000A   A3           INC     DPTR
   \   00000B   A3           INC     DPTR
   \   00000C   12....       LCALL   ?Subroutine8 & 0xFFFF
     57              p->crc_calc = 0;
   \                     ??CrossCallReturnLabel_10:
   \   00000F   F0           MOVX    @DPTR,A
     58              p->len = 0;
   \   000010   8A82         MOV     DPL,R2
   \   000012   8B83         MOV     DPH,R3
   \   000014   A3           INC     DPTR
   \   000015   F0           MOVX    @DPTR,A
     59          }
   \   000016   D083         POP     DPH
   \   000018   D082         POP     DPL
   \   00001A   02....       LJMP    ?BRET

   \                                 In  segment BANKED_CODE, align 1, keep-with-next
   \                     ?Subroutine8:
   \   000000   F0           MOVX    @DPTR,A
   \   000001   8A82         MOV     DPL,R2
   \   000003   8B83         MOV     DPH,R3
   \   000005   A3           INC     DPTR
   \   000006   A3           INC     DPTR
   \   000007   A3           INC     DPTR
   \   000008   22           RET
     60          

   \                                 In  segment BANKED_CODE, align 1, keep-with-next
     61          int8 frame_parser_feed(frame_parser_t XDATA_QUAL *p, uint8 b,
   \                     frame_parser_feed:
     62                                 uint32 now_ms, frame_t XDATA_QUAL *out)
     63          {
   \   000000   74EC         MOV     A,#-0x14
   \   000002   12....       LCALL   ?BANKED_ENTER_XDATA
   \   000005                ; Saved register size: 20
   \   000005                ; Auto size: 1
   \   000005   74FF         MOV     A,#-0x1
   \   000007   12....       LCALL   ?ALLOC_XSTACK8
   \   00000A   EA           MOV     A,R2
   \   00000B   FE           MOV     R6,A
   \   00000C   EB           MOV     A,R3
   \   00000D   FF           MOV     R7,A
   \   00000E   89..         MOV     ?V0 + 4,R1
   \   000010   8C..         MOV     ?V0 + 6,R4
   \   000012   8D..         MOV     ?V0 + 7,R5
   \   000014   7415         MOV     A,#0x15
   \   000016   12....       LCALL   ?XSTACK_DISP0_8
   \   000019   78..         MOV     R0,#?V0 + 8
   \   00001B   12....       LCALL   ?L_MOV_X
     64              if (p->st != FP_S_SOF1 && (now_ms - p->last_byte_ms) > FRAME_IDLE_MS) {
   \   00001E   8E82         MOV     DPL,R6
   \   000020   8F83         MOV     DPH,R7
   \   000022   E0           MOVX    A,@DPTR
   \   000023   602B         JZ      ??frame_parser_feed_0
   \   000025   85....       MOV     ?V0 + 0,?V0 + 8
   \   000028   85....       MOV     ?V0 + 1,?V0 + 9
   \   00002B   85....       MOV     ?V0 + 2,?V0 + 10
   \   00002E   85....       MOV     ?V0 + 3,?V0 + 11
   \   000031   A3           INC     DPTR
   \   000032   A3           INC     DPTR
   \   000033   A3           INC     DPTR
   \   000034   A3           INC     DPTR
   \   000035   78..         MOV     R0,#?V0 + 0
   \   000037   12....       LCALL   ?L_SUB_X
   \   00003A   90....       MOV     DPTR,#__Constant_15
   \   00003D   78..         MOV     R0,#?V0 + 0
   \   00003F   12....       LCALL   ?UL_GE_X
   \   000042   500C         JNC     ??frame_parser_feed_0
     65                  parser_soft_reset(p);
   \   000044                ; Setup parameters for call to function parser_soft_reset
   \   000044   12....       LCALL   ??Subroutine10_0 & 0xFFFF
     66                  p->frame_err++;
     67              }
   \                     ??CrossCallReturnLabel_19:
   \   000047   12....       LCALL   ?L_MOV_X
   \   00004A   12....       LCALL   ?Subroutine2 & 0xFFFF
   \                     ??CrossCallReturnLabel_14:
   \   00004D   12....       LCALL   ?L_ADD_TO_X
     68              p->last_byte_ms = now_ms;
   \                     ??frame_parser_feed_0:
   \   000050   8E82         MOV     DPL,R6
   \   000052   8F83         MOV     DPH,R7
   \   000054   A3           INC     DPTR
   \   000055   A3           INC     DPTR
   \   000056   A3           INC     DPTR
   \   000057   A3           INC     DPTR
   \   000058   78..         MOV     R0,#?V0 + 8
   \   00005A   12....       LCALL   ?L_MOV_TO_X
     69          
     70              switch (p->st) {
   \   00005D   8E82         MOV     DPL,R6
   \   00005F   8F83         MOV     DPH,R7
   \   000061   E0           MOVX    A,@DPTR
   \   000062   601E         JZ      ??frame_parser_feed_1
   \   000064   14           DEC     A
   \   000065   6029         JZ      ??frame_parser_feed_2
   \   000067   14           DEC     A
   \   000068   6045         JZ      ??frame_parser_feed_3
   \   00006A   14           DEC     A
   \   00006B   6067         JZ      ??frame_parser_feed_4
   \   00006D   14           DEC     A
   \   00006E   7003         JNZ     $+5
   \   000070   02....       LJMP    ??frame_parser_feed_5 & 0xFFFF
   \   000073   14           DEC     A
   \   000074   7003         JNZ     $+5
   \   000076   02....       LJMP    ??frame_parser_feed_6 & 0xFFFF
   \   000079   14           DEC     A
   \   00007A   7003         JNZ     $+5
   \   00007C   02....       LJMP    ??frame_parser_feed_7 & 0xFFFF
   \   00007F   02....       LJMP    ??frame_parser_feed_8 & 0xFFFF
     71              case FP_S_SOF1:
     72                  if (b == FRAME_SOF1) { p->st = FP_S_SOF2; }
   \                     ??frame_parser_feed_1:
   \   000082   74AA         MOV     A,#-0x56
   \   000084   65..         XRL     A,?V0 + 4
   \   000086   7003         JNZ     ??frame_parser_feed_9
   \   000088   7401         MOV     A,#0x1
   \                     ??frame_parser_feed_10:
   \   00008A   F0           MOVX    @DPTR,A
     73                  return 0;
   \                     ??frame_parser_feed_9:
   \   00008B   7900         MOV     R1,#0x0
   \   00008D   02....       LJMP    ??frame_parser_feed_11 & 0xFFFF
     74          
     75              case FP_S_SOF2:
     76                  if (b == FRAME_SOF2) {
   \                     ??frame_parser_feed_2:
   \   000090   7455         MOV     A,#0x55
   \   000092   65..         XRL     A,?V0 + 4
   \   000094   7004         JNZ     ??frame_parser_feed_12
     77                      p->st = FP_S_LEN;
   \   000096   7402         MOV     A,#0x2
   \   000098   80F0         SJMP    ??frame_parser_feed_10
     78                  } else if (b == FRAME_SOF1) {
   \                     ??frame_parser_feed_12:
   \   00009A   74AA         MOV     A,#-0x56
   \   00009C   65..         XRL     A,?V0 + 4
   \   00009E   60EB         JZ      ??frame_parser_feed_9
     79                      /* 容忍 AA AA 55 */
     80                  } else {
     81                      parser_soft_reset(p);
   \                     ??frame_parser_feed_13:
   \   0000A0                ; Setup parameters for call to function parser_soft_reset
   \   0000A0   12....       LCALL   ?Subroutine1 & 0xFFFF
     82                      p->frame_err++;
   \                     ??CrossCallReturnLabel_16:
   \   0000A3   12....       LCALL   ?L_MOV_X
   \   0000A6   12....       LCALL   ?Subroutine2 & 0xFFFF
   \                     ??CrossCallReturnLabel_15:
   \   0000A9   12....       LCALL   ?L_ADD_TO_X
     83                      return (int8)RC_ERR_BAD_FRAME;
   \   0000AC   02....       LJMP    ??frame_parser_feed_14 & 0xFFFF
     84                  }
     85                  return 0;
     86          
     87              case FP_S_LEN:
     88                  if (b < FRAME_LEN_MIN || b > FRAME_LEN_MAX) {
   \                     ??frame_parser_feed_3:
   \   0000AF   E5..         MOV     A,?V0 + 4
   \   0000B1   60ED         JZ      ??frame_parser_feed_13
   \   0000B3   C3           CLR     C
   \   0000B4   9442         SUBB    A,#0x42
   \   0000B6   50E8         JNC     ??frame_parser_feed_13
     89                      parser_soft_reset(p);
     90                      p->frame_err++;
     91                      return (int8)RC_ERR_BAD_FRAME;
     92                  }
     93                  p->len = b;
   \   0000B8   A3           INC     DPTR
   \   0000B9   E5..         MOV     A,?V0 + 4
   \   0000BB   F0           MOVX    @DPTR,A
     94                  p->crc_calc = 0;
   \   0000BC   8E82         MOV     DPL,R6
   \   0000BE   8F83         MOV     DPH,R7
   \   0000C0   A3           INC     DPTR
   \   0000C1   A3           INC     DPTR
   \   0000C2   A3           INC     DPTR
   \   0000C3   E4           CLR     A
   \   0000C4   F0           MOVX    @DPTR,A
     95                  p->body_read = 0;
   \   0000C5   8E82         MOV     DPL,R6
   \   0000C7   8F83         MOV     DPH,R7
   \   0000C9   A3           INC     DPTR
   \   0000CA   A3           INC     DPTR
   \   0000CB   F0           MOVX    @DPTR,A
     96                  p->st = FP_S_CMD;
   \   0000CC   8E82         MOV     DPL,R6
   \   0000CE   8F83         MOV     DPH,R7
   \   0000D0   7403         MOV     A,#0x3
   \   0000D2   80B6         SJMP    ??frame_parser_feed_10
     97                  return 0;
     98          
     99              case FP_S_CMD:
    100                  p->acc.cmd = b;
   \                     ??frame_parser_feed_4:
   \   0000D4   A3           INC     DPTR
   \   0000D5   A3           INC     DPTR
   \   0000D6   A3           INC     DPTR
   \   0000D7   A3           INC     DPTR
   \   0000D8   A3           INC     DPTR
   \   0000D9   A3           INC     DPTR
   \   0000DA   A3           INC     DPTR
   \   0000DB   A3           INC     DPTR
   \   0000DC   E5..         MOV     A,?V0 + 4
   \   0000DE   12....       LCALL   ?Subroutine0 & 0xFFFF
    101                  p->crc_calc = CRC8_ITU_TAB[p->crc_calc ^ b];
   \                     ??CrossCallReturnLabel_0:
   \   0000E1   FA           MOV     R2,A
   \   0000E2   74..         MOV     A,#CRC8_ITU_TAB & 0xff
   \   0000E4   2A           ADD     A,R2
   \   0000E5   12....       LCALL   ?Subroutine3 & 0xFFFF
    102                  p->acc.plen = (uint8)(p->len - 1);
   \                     ??CrossCallReturnLabel_2:
   \   0000E8   EE           MOV     A,R6
   \   0000E9   2409         ADD     A,#0x9
   \   0000EB   F8           MOV     R0,A
   \   0000EC   EF           MOV     A,R7
   \   0000ED   3400         ADDC    A,#0x0
   \   0000EF   F9           MOV     R1,A
   \   0000F0   8E82         MOV     DPL,R6
   \   0000F2   8F83         MOV     DPH,R7
   \   0000F4   A3           INC     DPTR
   \   0000F5   E0           MOVX    A,@DPTR
   \   0000F6   14           DEC     A
   \   0000F7   8882         MOV     DPL,R0
   \   0000F9   8983         MOV     DPH,R1
   \   0000FB   F0           MOVX    @DPTR,A
    103                  p->st = (p->acc.plen == 0) ? FP_S_CRC : FP_S_BODY;
   \   0000FC   85..82       MOV     DPL,?XSP + 0
   \   0000FF   85..83       MOV     DPH,?XSP + 1
   \   000102   7004         JNZ     ??frame_parser_feed_15
   \   000104   7405         MOV     A,#0x5
   \   000106   8002         SJMP    ??frame_parser_feed_16
   \                     ??frame_parser_feed_15:
   \   000108   7404         MOV     A,#0x4
   \                     ??frame_parser_feed_16:
   \   00010A   F0           MOVX    @DPTR,A
   \   00010B   E0           MOVX    A,@DPTR
   \   00010C   8E82         MOV     DPL,R6
   \   00010E   8F83         MOV     DPH,R7
   \   000110   02....       LJMP    ??frame_parser_feed_10 & 0xFFFF
    104                  return 0;
    105          
    106              case FP_S_BODY:
    107                  p->acc.payload[p->body_read++] = b;
   \                     ??frame_parser_feed_5:
   \   000113   EE           MOV     A,R6
   \   000114   2402         ADD     A,#0x2
   \   000116   F8           MOV     R0,A
   \   000117   EF           MOV     A,R7
   \   000118   3400         ADDC    A,#0x0
   \   00011A   F9           MOV     R1,A
   \   00011B   E8           MOV     A,R0
   \   00011C   FA           MOV     R2,A
   \   00011D   E9           MOV     A,R1
   \   00011E   FB           MOV     R3,A
   \   00011F   8A82         MOV     DPL,R2
   \   000121   8B83         MOV     DPH,R3
   \   000123   E0           MOVX    A,@DPTR
   \   000124   F8           MOV     R0,A
   \   000125   EE           MOV     A,R6
   \   000126   28           ADD     A,R0
   \   000127   F582         MOV     DPL,A
   \   000129   EF           MOV     A,R7
   \   00012A   12....       LCALL   ?Subroutine5 & 0xFFFF
   \                     ??CrossCallReturnLabel_6:
   \   00012D   A3           INC     DPTR
   \   00012E   A3           INC     DPTR
   \   00012F   A3           INC     DPTR
   \   000130   A3           INC     DPTR
   \   000131   A3           INC     DPTR
   \   000132   A3           INC     DPTR
   \   000133   E5..         MOV     A,?V0 + 4
   \   000135   F0           MOVX    @DPTR,A
   \   000136   8A82         MOV     DPL,R2
   \   000138   8B83         MOV     DPH,R3
   \   00013A   E0           MOVX    A,@DPTR
   \   00013B   04           INC     A
   \   00013C   12....       LCALL   ?Subroutine0 & 0xFFFF
    108                  p->crc_calc = CRC8_ITU_TAB[p->crc_calc ^ b];
   \                     ??CrossCallReturnLabel_1:
   \   00013F   FC           MOV     R4,A
   \   000140   74..         MOV     A,#CRC8_ITU_TAB & 0xff
   \   000142   2C           ADD     A,R4
   \   000143   12....       LCALL   ?Subroutine3 & 0xFFFF
    109                  if (p->body_read >= p->acc.plen) {
   \                     ??CrossCallReturnLabel_3:
   \   000146   8E82         MOV     DPL,R6
   \   000148   8F83         MOV     DPH,R7
   \   00014A   A3           INC     DPTR
   \   00014B   A3           INC     DPTR
   \   00014C   A3           INC     DPTR
   \   00014D   A3           INC     DPTR
   \   00014E   A3           INC     DPTR
   \   00014F   A3           INC     DPTR
   \   000150   A3           INC     DPTR
   \   000151   A3           INC     DPTR
   \   000152   A3           INC     DPTR
   \   000153   E0           MOVX    A,@DPTR
   \   000154   F8           MOV     R0,A
   \   000155   8A82         MOV     DPL,R2
   \   000157   8B83         MOV     DPH,R3
   \   000159   E0           MOVX    A,@DPTR
   \   00015A   C3           CLR     C
   \   00015B   98           SUBB    A,R0
   \   00015C   5003         JNC     $+5
   \   00015E   02....       LJMP    ??frame_parser_feed_9 & 0xFFFF
    110                      p->st = FP_S_CRC;
   \   000161   8E82         MOV     DPL,R6
   \   000163   8F83         MOV     DPH,R7
   \   000165   7405         MOV     A,#0x5
   \   000167   02....       LJMP    ??frame_parser_feed_10 & 0xFFFF
    111                  }
    112                  return 0;
    113          
    114              case FP_S_CRC:
    115                  if (b != p->crc_calc) {
   \                     ??frame_parser_feed_6:
   \   00016A   A3           INC     DPTR
   \   00016B   A3           INC     DPTR
   \   00016C   A3           INC     DPTR
   \   00016D   E0           MOVX    A,@DPTR
   \   00016E   65..         XRL     A,?V0 + 4
   \   000170   6013         JZ      ??frame_parser_feed_17
    116                      parser_soft_reset(p);
   \   000172                ; Setup parameters for call to function parser_soft_reset
   \   000172   12....       LCALL   ?Subroutine1 & 0xFFFF
    117                      p->crc_err++;
   \                     ??CrossCallReturnLabel_17:
   \   000175   12....       LCALL   ?L_MOV_X
   \   000178   EE           MOV     A,R6
   \   000179   244E         ADD     A,#0x4e
   \   00017B   12....       LCALL   ??Subroutine9_0 & 0xFFFF
   \                     ??CrossCallReturnLabel_12:
   \   00017E   12....       LCALL   ?L_ADD_TO_X
    118                      return (int8)RC_ERR_BAD_CRC;
   \   000181   79FA         MOV     R1,#-0x6
   \   000183   803F         SJMP    ??frame_parser_feed_11
    119                  }
    120                  p->st = FP_S_EOF;
   \                     ??frame_parser_feed_17:
   \   000185   8E82         MOV     DPL,R6
   \   000187   8F83         MOV     DPH,R7
   \   000189   7406         MOV     A,#0x6
   \   00018B   02....       LJMP    ??frame_parser_feed_10 & 0xFFFF
    121                  return 0;
    122          
    123              case FP_S_EOF:
    124                  if (b == FRAME_EOF) {
   \                     ??frame_parser_feed_7:
   \   00018E   740D         MOV     A,#0xd
   \   000190   65..         XRL     A,?V0 + 4
   \   000192   6003         JZ      $+5
   \   000194   02....       LJMP    ??frame_parser_feed_13 & 0xFFFF
    125                      *out = p->acc;
   \   000197   A3           INC     DPTR
   \   000198   A3           INC     DPTR
   \   000199   A3           INC     DPTR
   \   00019A   A3           INC     DPTR
   \   00019B   A3           INC     DPTR
   \   00019C   A3           INC     DPTR
   \   00019D   A3           INC     DPTR
   \   00019E   A3           INC     DPTR
   \   00019F   AC..         MOV     R4,?V0 + 6
   \   0001A1   AD..         MOV     R5,?V0 + 7
   \   0001A3   7442         MOV     A,#0x42
   \   0001A5   12....       LCALL   ?MOVE_LONG8_XDATA_XDATA
    126                      parser_soft_reset(p);
   \   0001A8                ; Setup parameters for call to function parser_soft_reset
   \   0001A8   12....       LCALL   ?Subroutine1 & 0xFFFF
    127                      p->ok_cnt++;
   \                     ??CrossCallReturnLabel_18:
   \   0001AB   12....       LCALL   ?L_MOV_X
   \   0001AE   EE           MOV     A,R6
   \   0001AF   2452         ADD     A,#0x52
   \   0001B1   12....       LCALL   ??Subroutine9_0 & 0xFFFF
   \                     ??CrossCallReturnLabel_13:
   \   0001B4   12....       LCALL   ?L_ADD_TO_X
    128                      return 1;
   \   0001B7   7901         MOV     R1,#0x1
   \   0001B9   8009         SJMP    ??frame_parser_feed_11
    129                  } else {
    130                      parser_soft_reset(p);
    131                      p->frame_err++;
    132                      return (int8)RC_ERR_BAD_FRAME;
    133                  }
    134          
    135              default:
    136                  parser_soft_reset(p);
   \                     ??frame_parser_feed_8:
   \   0001BB                ; Setup parameters for call to function parser_soft_reset
   \   0001BB   EE           MOV     A,R6
   \   0001BC   FA           MOV     R2,A
   \   0001BD   EF           MOV     A,R7
   \   0001BE   FB           MOV     R3,A
   \   0001BF   12....       LCALL   ??parser_soft_reset?relay
    137                  return (int8)RC_ERR_BAD_FRAME;
   \                     ??frame_parser_feed_14:
   \   0001C2   79FB         MOV     R1,#-0x5
   \                     ??frame_parser_feed_11:
   \   0001C4   7401         MOV     A,#0x1
   \   0001C6   12....       LCALL   ?DEALLOC_XSTACK8
   \   0001C9   7F0C         MOV     R7,#0xc
   \   0001CB   02....       LJMP    ?BANKED_LEAVE_XDATA
    138              }
    139          }

   \                                 In  segment BANKED_CODE, align 1, keep-with-next
   \                     ?Subroutine3:
   \   000000   F582         MOV     DPL,A
   \   000002   74..         MOV     A,#(CRC8_ITU_TAB >> 8) & 0xff
   \   000004   3400         ADDC    A,#0x0
   \   000006   F583         MOV     DPH,A
   \   000008   E4           CLR     A
   \   000009   93           MOVC    A,@A+DPTR
   \   00000A   8882         MOV     DPL,R0
   \   00000C   8983         MOV     DPH,R1
   \   00000E   F0           MOVX    @DPTR,A
   \   00000F   22           RET

   \                                 In  segment BANKED_CODE, align 1, keep-with-next
   \                     ?Subroutine2:
   \   000000   EE           MOV     A,R6
   \   000001   244A         ADD     A,#0x4a
   \   000003                REQUIRE ??Subroutine9_0
   \   000003                ; // Fall through to label ??Subroutine9_0

   \                                 In  segment BANKED_CODE, align 1, keep-with-next
   \                     ??Subroutine9_0:
   \   000000   F582         MOV     DPL,A
   \   000002   EF           MOV     A,R7
   \   000003   3400         ADDC    A,#0x0
   \   000005   F583         MOV     DPH,A
   \   000007   78..         MOV     R0,#?V0 + 0
   \   000009   22           RET

   \                                 In  segment BANKED_CODE, align 1, keep-with-next
   \                     ?Subroutine1:
   \   000000   EE           MOV     A,R6
   \   000001   FA           MOV     R2,A
   \   000002   EF           MOV     A,R7
   \   000003   FB           MOV     R3,A
   \   000004                REQUIRE ??Subroutine10_0
   \   000004                ; // Fall through to label ??Subroutine10_0

   \                                 In  segment BANKED_CODE, align 1, keep-with-next
   \                     ??Subroutine10_0:
   \   000000   12....       LCALL   ??parser_soft_reset?relay
   \   000003   90....       MOV     DPTR,#__Constant_1
   \   000006   78..         MOV     R0,#?V0 + 0
   \   000008   22           RET

   \                                 In  segment BANKED_CODE, align 1, keep-with-next
   \                     ?Subroutine0:
   \   000000   F0           MOVX    @DPTR,A
   \   000001   EE           MOV     A,R6
   \   000002   2403         ADD     A,#0x3
   \   000004   F8           MOV     R0,A
   \   000005   EF           MOV     A,R7
   \   000006   3400         ADDC    A,#0x0
   \   000008   F9           MOV     R1,A
   \   000009   8882         MOV     DPL,R0
   \   00000B   8983         MOV     DPH,R1
   \   00000D   E0           MOVX    A,@DPTR
   \   00000E   85....       MOV     ?V0 + 0,?V0 + 4
   \   000011   65..         XRL     A,?V0 + 0
   \   000013   22           RET

   \                                 In  segment BANKED_CODE, align 1, keep-with-next
   \                     ?Subroutine5:
   \   000000   3400         ADDC    A,#0x0
   \   000002   F583         MOV     DPH,A
   \   000004   A3           INC     DPTR
   \   000005   A3           INC     DPTR
   \   000006   A3           INC     DPTR
   \   000007   A3           INC     DPTR
   \   000008   22           RET
    140          

   \                                 In  segment BANKED_CODE, align 1, keep-with-next
    141          int16 frame_encode(uint8 cmd, const uint8 *payload, uint8 plen,
   \                     frame_encode:
    142                             uint8 *out_buf, uint16 buf_size)
    143          {
   \   000000   74F1         MOV     A,#-0xf
   \   000002   12....       LCALL   ?BANKED_ENTER_XDATA
   \   000005                ; Saved register size: 15
   \   000005                ; Auto size: 0
   \   000005   89..         MOV     ?V0 + 2,R1
   \   000007   8C..         MOV     ?V0 + 3,R4
   \   000009   740F         MOV     A,#0xf
   \   00000B   12....       LCALL   ?XSTACK_DISP0_8
   \   00000E   E0           MOVX    A,@DPTR
   \   00000F   FC           MOV     R4,A
   \   000010   A3           INC     DPTR
   \   000011   E0           MOVX    A,@DPTR
   \   000012   FD           MOV     R5,A
   \   000013   7411         MOV     A,#0x11
   \   000015   12....       LCALL   ?XSTACK_DISP0_8
   \   000018   E0           MOVX    A,@DPTR
   \   000019   FE           MOV     R6,A
   \   00001A   A3           INC     DPTR
   \   00001B   E0           MOVX    A,@DPTR
   \   00001C   FF           MOV     R7,A
    144              uint16 total;
    145              uint8  crc;
    146              uint8  i;
    147          
    148              if (out_buf == 0) return (int16)RC_ERR_PARAM;
   \   00001D   EC           MOV     A,R4
   \   00001E   4D           ORL     A,R5
   \   00001F   7007         JNZ     ??frame_encode_0
   \                     ??frame_encode_1:
   \   000021   7AFF         MOV     R2,#-0x1
   \                     ??frame_encode_2:
   \   000023   7BFF         MOV     R3,#-0x1
   \   000025   02....       LJMP    ??frame_encode_3 & 0xFFFF
    149              if (plen > FRAME_PAYLOAD_MAX) return (int16)RC_ERR_PARAM;
   \                     ??frame_encode_0:
   \   000028   E5..         MOV     A,?V0 + 3
   \   00002A   C3           CLR     C
   \   00002B   9441         SUBB    A,#0x41
   \   00002D   50F2         JNC     ??frame_encode_1
    150              if (plen > 0 && payload == 0) return (int16)RC_ERR_PARAM;
   \   00002F   E5..         MOV     A,?V0 + 3
   \   000031   6004         JZ      ??frame_encode_4
   \   000033   EA           MOV     A,R2
   \   000034   4B           ORL     A,R3
   \   000035   60EA         JZ      ??frame_encode_1
    151          
    152              total = (uint16)(2 + 1 + 1 + plen + 1 + 1);
   \                     ??frame_encode_4:
   \   000037   85....       MOV     ?V0 + 0,?V0 + 3
   \   00003A   E5..         MOV     A,?V0 + 0
   \   00003C   2406         ADD     A,#0x6
   \   00003E   F8           MOV     R0,A
   \   00003F   E4           CLR     A
   \   000040   3400         ADDC    A,#0x0
   \   000042   F9           MOV     R1,A
    153              if (buf_size < total) return (int16)RC_ERR_NO_SPACE;
   \   000043   EE           MOV     A,R6
   \   000044   98           SUBB    A,R0
   \   000045   EF           MOV     A,R7
   \   000046   99           SUBB    A,R1
   \   000047   5004         JNC     ??frame_encode_5
   \   000049   7AFC         MOV     R2,#-0x4
   \   00004B   80D6         SJMP    ??frame_encode_2
    154          
    155              out_buf[0] = FRAME_SOF1;
   \                     ??frame_encode_5:
   \   00004D   8C82         MOV     DPL,R4
   \   00004F   8D83         MOV     DPH,R5
   \   000051   74AA         MOV     A,#-0x56
   \   000053   F0           MOVX    @DPTR,A
    156              out_buf[1] = FRAME_SOF2;
   \   000054   A3           INC     DPTR
   \   000055   7455         MOV     A,#0x55
   \   000057   F0           MOVX    @DPTR,A
    157              out_buf[2] = (uint8)(1 + plen);
   \   000058   7401         MOV     A,#0x1
   \   00005A   25..         ADD     A,?V0 + 3
   \   00005C   8C82         MOV     DPL,R4
   \   00005E   8D83         MOV     DPH,R5
   \   000060   A3           INC     DPTR
   \   000061   A3           INC     DPTR
   \   000062   F0           MOVX    @DPTR,A
    158              out_buf[3] = cmd;
   \   000063   8C82         MOV     DPL,R4
   \   000065   8D83         MOV     DPH,R5
   \   000067   A3           INC     DPTR
   \   000068   A3           INC     DPTR
   \   000069   A3           INC     DPTR
   \   00006A   E5..         MOV     A,?V0 + 2
   \   00006C   F0           MOVX    @DPTR,A
    159              for (i = 0; i < plen; ++i) {
   \   00006D   75..00       MOV     ?V0 + 6,#0x0
   \   000070   801D         SJMP    ??frame_encode_6
    160                  out_buf[4 + i] = payload[i];
   \                     ??frame_encode_7:
   \   000072   85..82       MOV     DPL,?V0 + 6
   \   000075   AE82         MOV     R6,DPL
   \   000077   EA           MOV     A,R2
   \   000078   2E           ADD     A,R6
   \   000079   F582         MOV     DPL,A
   \   00007B   EB           MOV     A,R3
   \   00007C   12....       LCALL   ??Subroutine11_0 & 0xFFFF
    161              }
   \                     ??CrossCallReturnLabel_21:
   \   00007F   E0           MOVX    A,@DPTR
   \   000080   C0E0         PUSH    A
   \   000082   EC           MOV     A,R4
   \   000083   2E           ADD     A,R6
   \   000084   F582         MOV     DPL,A
   \   000086   ED           MOV     A,R5
   \   000087   12....       LCALL   ?Subroutine5 & 0xFFFF
   \                     ??CrossCallReturnLabel_7:
   \   00008A   D0E0         POP     A
   \   00008C   F0           MOVX    @DPTR,A
   \   00008D   05..         INC     ?V0 + 6
   \                     ??frame_encode_6:
   \   00008F   E5..         MOV     A,?V0 + 6
   \   000091   C3           CLR     C
   \   000092   95..         SUBB    A,?V0 + 3
   \   000094   40DC         JC      ??frame_encode_7
    162              crc = 0x00;
    163              crc = CRC8_ITU_TAB[crc ^ cmd];
   \   000096   85....       MOV     ?V0 + 0,?V0 + 2
   \   000099   74..         MOV     A,#CRC8_ITU_TAB & 0xff
   \   00009B   25..         ADD     A,?V0 + 0
   \   00009D   12....       LCALL   ?Subroutine4 & 0xFFFF
    164              for (i = 0; i < plen; ++i) {
   \                     ??CrossCallReturnLabel_4:
   \   0000A0   75..00       MOV     ?V0 + 6,#0x0
   \   0000A3   801A         SJMP    ??frame_encode_8
    165                  crc = CRC8_ITU_TAB[crc ^ payload[i]];
   \                     ??frame_encode_9:
   \   0000A5   85....       MOV     ?V0 + 0,?V0 + 6
   \   0000A8   EA           MOV     A,R2
   \   0000A9   25..         ADD     A,?V0 + 0
   \   0000AB   F582         MOV     DPL,A
   \   0000AD   EB           MOV     A,R3
   \   0000AE   12....       LCALL   ??Subroutine11_0 & 0xFFFF
    166              }
   \                     ??CrossCallReturnLabel_22:
   \   0000B1   E0           MOVX    A,@DPTR
   \   0000B2   FE           MOV     R6,A
   \   0000B3   E5..         MOV     A,?V0 + 4
   \   0000B5   6E           XRL     A,R6
   \   0000B6   FE           MOV     R6,A
   \   0000B7   74..         MOV     A,#CRC8_ITU_TAB & 0xff
   \   0000B9   2E           ADD     A,R6
   \   0000BA   12....       LCALL   ?Subroutine4 & 0xFFFF
   \                     ??CrossCallReturnLabel_5:
   \   0000BD   05..         INC     ?V0 + 6
   \                     ??frame_encode_8:
   \   0000BF   E5..         MOV     A,?V0 + 6
   \   0000C1   C3           CLR     C
   \   0000C2   95..         SUBB    A,?V0 + 3
   \   0000C4   40DF         JC      ??frame_encode_9
   \   0000C6   85....       MOV     ?V0 + 0,?V0 + 3
   \   0000C9   EC           MOV     A,R4
   \   0000CA   25..         ADD     A,?V0 + 0
   \   0000CC   FA           MOV     R2,A
   \   0000CD   ED           MOV     A,R5
   \   0000CE   3400         ADDC    A,#0x0
   \   0000D0   FB           MOV     R3,A
   \   0000D1   8A82         MOV     DPL,R2
   \   0000D3   8B83         MOV     DPH,R3
   \   0000D5   A3           INC     DPTR
   \   0000D6   A3           INC     DPTR
   \   0000D7   A3           INC     DPTR
   \   0000D8   A3           INC     DPTR
   \   0000D9   E5..         MOV     A,?V0 + 4
   \   0000DB   12....       LCALL   ?Subroutine8 & 0xFFFF
    167              out_buf[4 + plen] = crc;
    168              out_buf[5 + plen] = FRAME_EOF;
   \                     ??CrossCallReturnLabel_11:
   \   0000DE   A3           INC     DPTR
   \   0000DF   A3           INC     DPTR
   \   0000E0   740D         MOV     A,#0xd
   \   0000E2   F0           MOVX    @DPTR,A
    169              return (int16)total;
   \   0000E3   E8           MOV     A,R0
   \   0000E4   FA           MOV     R2,A
   \   0000E5   E9           MOV     A,R1
   \   0000E6   FB           MOV     R3,A
   \                     ??frame_encode_3:
   \   0000E7   7F07         MOV     R7,#0x7
   \   0000E9   02....       LJMP    ?BANKED_LEAVE_XDATA
    170          }

   \                                 In  segment BANKED_CODE, align 1, keep-with-next
   \                     ?Subroutine4:
   \   000000   F582         MOV     DPL,A
   \   000002   74..         MOV     A,#(CRC8_ITU_TAB >> 8) & 0xff
   \   000004   3400         ADDC    A,#0x0
   \   000006   F583         MOV     DPH,A
   \   000008   E4           CLR     A
   \   000009   93           MOVC    A,@A+DPTR
   \   00000A   F5..         MOV     ?V0 + 4,A
   \   00000C   22           RET

   \                                 In  segment XDATA_I, align 1, keep-with-next
   \                     __Constant_0:
   \   000000                DS 4
   \   000004                REQUIRE `?<Initializer for __Constant_0>`
   \   000004                REQUIRE __INIT_XDATA_I

   \                                 In  segment XDATA_ID, align 1, keep-with-next
   \                     `?<Initializer for __Constant_0>`:
   \   000000   00000000     DD 0

   \                                 In  segment XDATA_I, align 1, keep-with-next
   \                     __Constant_15:
   \   000000                DS 4
   \   000004                REQUIRE `?<Initializer for __Constant_15>`
   \   000004                REQUIRE __INIT_XDATA_I

   \                                 In  segment XDATA_ID, align 1, keep-with-next
   \                     `?<Initializer for __Constant_15>`:
   \   000000   15000000     DD 21

   \                                 In  segment XDATA_I, align 1, keep-with-next
   \                     __Constant_1:
   \   000000                DS 4
   \   000004                REQUIRE `?<Initializer for __Constant_1>`
   \   000004                REQUIRE __INIT_XDATA_I

   \                                 In  segment XDATA_ID, align 1, keep-with-next
   \                     `?<Initializer for __Constant_1>`:
   \   000000   01000000     DD 1

   \                                 In  segment BANK_RELAYS, align 1
   \                     ??crc8_itu?relay:
   \   000000   12....       LCALL   ?BDISPATCH
   \   000003   ......       DC24    crc8_itu

   \                                 In  segment BANK_RELAYS, align 1
   \                     ??frame_parser_init?relay:
   \   000000   12....       LCALL   ?BDISPATCH
   \   000003   ......       DC24    frame_parser_init

   \                                 In  segment BANK_RELAYS, align 1
   \                     ??parser_soft_reset?relay:
   \   000000   12....       LCALL   ?BDISPATCH
   \   000003   ......       DC24    parser_soft_reset

   \                                 In  segment BANK_RELAYS, align 1
   \                     ??frame_parser_feed?relay:
   \   000000   12....       LCALL   ?BDISPATCH
   \   000003   ......       DC24    frame_parser_feed

   \                                 In  segment BANK_RELAYS, align 1
   \                     ??frame_encode?relay:
   \   000000   12....       LCALL   ?BDISPATCH
   \   000003   ......       DC24    frame_encode

   Maximum stack usage in bytes:

     Function               ISTACK PSTACK XSTACK
     --------               ------ ------ ------
     crc8_itu                   0      0     10
     frame_encode               1      0     19
     frame_parser_feed          1      0     25
       -> parser_soft_reset     0      0     42
       -> parser_soft_reset     0      0     42
       -> parser_soft_reset     0      0     42
       -> parser_soft_reset     0      0     42
       -> parser_soft_reset     0      0     42
     frame_parser_init          0      0      9
     parser_soft_reset          2      0     21


   Segment part sizes:

     Function/Label                   Bytes
     --------------                   -----
     CRC8_ITU_TAB                      256
     crc8_itu                           62
     ??Subroutine11_0                    5
     frame_parser_init                 117
     ?Subroutine7                        9
     ?Subroutine6                        3
     parser_soft_reset                  29
     ?Subroutine8                        9
     frame_parser_feed                 462
     ?Subroutine3                       16
     ?Subroutine2                        3
     ??Subroutine9_0                    10
     ?Subroutine1                        4
     ??Subroutine10_0                    9
     ?Subroutine0                       20
     ?Subroutine5                        9
     frame_encode                      236
     ?Subroutine4                       13
     __Constant_0                        4
     ?<Initializer for __Constant_0>     4
     __Constant_15                       4
     ?<Initializer for __Constant_15>    4
     __Constant_1                        4
     ?<Initializer for __Constant_1>     4
     ??crc8_itu?relay                    6
     ??frame_parser_init?relay           6
     ??parser_soft_reset?relay           6
     ??frame_parser_feed?relay           6
     ??frame_encode?relay                6

 
 1 016 bytes in segment BANKED_CODE
    30 bytes in segment BANK_RELAYS
   256 bytes in segment CODE_C
    12 bytes in segment XDATA_I
    12 bytes in segment XDATA_ID
 
 1 302 bytes of CODE  memory (+ 12 bytes shared)
     0 bytes of XDATA memory (+ 12 bytes shared)

Errors: none
Warnings: 1
