///////////////////////////////////////////////////////////////////////////////
//                                                                            /
// IAR C/C++ Compiler V8.10.3.10338/W32 for 8051        20/Apr/2026  19:41:53 /
// Copyright 2004-2011 IAR Systems AB.                                        /
//                                                                            /
//    Core               =  plain                                             /
//    Code model         =  banked                                            /
//    Data model         =  large                                             /
//    Calling convention =  xdata reentrant                                   /
//    Constant location  =  data                                              /
//    Dptr setup         =  1,16                                              /
//    Source file        =  D:\ZNJJ\ZStack-CC2530-2.5.1a\Projects\zstack\Samp /
//                          les\GwCoord\Source\gw_coord.c                     /
//    Command line       =  -f D:\ZNJJ\ZStack-CC2530-2.5.1a\Projects\zstack\S /
//                          amples\GwCoord\CC2530DB\..\..\..\Tools\CC2530DB\f /
//                          8wCoord.cfg (-DCPU32MHZ -DROOT=__near_func        /
//                          -DMAC_CFG_APP_PENDING_QUEUE=TRUE                  /
//                          -DMAC_CFG_TX_DATA_MAX=5 -DMAC_CFG_TX_MAX=8        /
//                          -DMAC_CFG_RX_MAX=5 -DZDO_COORDINATOR -DRTR_NWK)   /
//                          -f D:\ZNJJ\ZStack-CC2530-2.5.1a\Projects\zstack\S /
//                          amples\GwCoord\CC2530DB\..\..\..\Tools\CC2530DB\f /
//                          8wConfig.cfg (-DZIGBEEPRO -DSECURE=0              /
//                          -DZG_SECURE_DYNAMIC=0 -DREFLECTOR                 /
//                          -DDEFAULT_CHANLIST=0x00000800                     /
//                          -DZDAPP_CONFIG_PAN_ID=0xFFFF                      /
//                          -DNWK_START_DELAY=100 -DEXTENDED_JOINING_RANDOM_M /
//                          ASK=0x007F -DBEACON_REQUEST_DELAY=100             /
//                          -DBEACON_REQ_DELAY_MASK=0x00FF                    /
//                          -DLINK_STATUS_JITTER_MASK=0x007F                  /
//                          -DROUTE_EXPIRY_TIME=30 -DAPSC_ACK_WAIT_DURATION_P /
//                          OLLED=3000 -DNWK_INDIRECT_MSG_TIMEOUT=7           /
//                          -DMAX_RREQ_ENTRIES=8 -DAPSC_MAX_FRAME_RETRIES=3   /
//                          -DNWK_MAX_DATA_RETRIES=2                          /
//                          -DMAX_POLL_FAILURE_RETRIES=2 -DMAX_BCAST=9        /
//                          -DAPS_MAX_GROUPS=16 -DMAX_RTG_ENTRIES=40          /
//                          -DNWK_MAX_BINDING_ENTRIES=4                       /
//                          -DMAX_BINDING_CLUSTER_IDS=4                       /
//                          "-DDEFAULT_KEY={0x01, 0x03, 0x05, 0x07, 0x09,     /
//                          0x0B, 0x0D, 0x0F, 0x00, 0x02, 0x04, 0x06, 0x08,   /
//                          0x0A, 0x0C, 0x0D}" -DMAC_MAX_FRAME_SIZE=116       /
//                          -DZDNWKMGR_MIN_TRANSMISSIONS=20 "-DCONST=const    /
//                          __code" -DGENERIC=__generic                       /
//                          -DRFD_RCVC_ALWAYS_ON=FALSE -DPOLL_RATE=1000       /
//                          -DQUEUED_POLL_RATE=100 -DRESPONSE_POLL_RATE=100)  /
//                          -DREJOIN_POLL_RATE=440 D:\ZNJJ\ZStack-CC2530-2.5. /
//                          1a\Projects\zstack\Samples\GwCoord\Source\gw_coor /
//                          d.c -D HAL_UART=TRUE -D HAL_LCD=FALSE -lC         /
//                          D:\ZNJJ\ZStack-CC2530-2.5.1a\Projects\zstack\Samp /
//                          les\GwCoord\CC2530DB\CoordinatorEB\List\ -lA      /
//                          D:\ZNJJ\ZStack-CC2530-2.5.1a\Projects\zstack\Samp /
//                          les\GwCoord\CC2530DB\CoordinatorEB\List\          /
//                          --diag_suppress Pe001,Pa010 -o                    /
//                          D:\ZNJJ\ZStack-CC2530-2.5.1a\Projects\zstack\Samp /
//                          les\GwCoord\CC2530DB\CoordinatorEB\Obj\ -e        /
//                          --no_code_motion --debug --core=plain             /
//                          --dptr=16,1 --data_model=large                    /
//                          --code_model=banked --calling_convention=xdata_re /
//                          entrant --place_constants=data --nr_virtual_regs  /
//                          16 -I D:\ZNJJ\ZStack-CC2530-2.5.1a\Projects\zstac /
//                          k\Samples\GwCoord\CC2530DB\ -I                    /
//                          D:\ZNJJ\ZStack-CC2530-2.5.1a\Projects\zstack\Samp /
//                          les\GwCoord\CC2530DB\..\Source\ -I                /
//                          D:\ZNJJ\ZStack-CC2530-2.5.1a\Projects\zstack\Samp /
//                          les\GwCoord\CC2530DB\..\..\..\ZMain\TI2530DB\ -I  /
//                          D:\ZNJJ\ZStack-CC2530-2.5.1a\Projects\zstack\Samp /
//                          les\GwCoord\CC2530DB\..\..\..\..\..\Components\ha /
//                          l\include\ -I D:\ZNJJ\ZStack-CC2530-2.5.1a\Projec /
//                          ts\zstack\Samples\GwCoord\CC2530DB\..\..\..\..\.. /
//                          \Components\hal\target\CC2530EB\ -I               /
//                          D:\ZNJJ\ZStack-CC2530-2.5.1a\Projects\zstack\Samp /
//                          les\GwCoord\CC2530DB\..\..\..\..\..\Components\ma /
//                          c\include\ -I D:\ZNJJ\ZStack-CC2530-2.5.1a\Projec /
//                          ts\zstack\Samples\GwCoord\CC2530DB\..\..\..\..\.. /
//                          \Components\mac\high_level\ -I                    /
//                          D:\ZNJJ\ZStack-CC2530-2.5.1a\Projects\zstack\Samp /
//                          les\GwCoord\CC2530DB\..\..\..\..\..\Components\ma /
//                          c\low_level\srf04\ -I D:\ZNJJ\ZStack-CC2530-2.5.1 /
//                          a\Projects\zstack\Samples\GwCoord\CC2530DB\..\..\ /
//                          ..\..\..\Components\mac\low_level\srf04\single_ch /
//                          ip\ -I D:\ZNJJ\ZStack-CC2530-2.5.1a\Projects\zsta /
//                          ck\Samples\GwCoord\CC2530DB\..\..\..\..\..\Compon /
//                          ents\mt\ -I D:\ZNJJ\ZStack-CC2530-2.5.1a\Projects /
//                          \zstack\Samples\GwCoord\CC2530DB\..\..\..\..\..\C /
//                          omponents\osal\include\ -I                        /
//                          D:\ZNJJ\ZStack-CC2530-2.5.1a\Projects\zstack\Samp /
//                          les\GwCoord\CC2530DB\..\..\..\..\..\Components\se /
//                          rvices\saddr\ -I D:\ZNJJ\ZStack-CC2530-2.5.1a\Pro /
//                          jects\zstack\Samples\GwCoord\CC2530DB\..\..\..\.. /
//                          \..\Components\services\sdata\ -I                 /
//                          D:\ZNJJ\ZStack-CC2530-2.5.1a\Projects\zstack\Samp /
//                          les\GwCoord\CC2530DB\..\..\..\..\..\Components\st /
//                          ack\af\ -I D:\ZNJJ\ZStack-CC2530-2.5.1a\Projects\ /
//                          zstack\Samples\GwCoord\CC2530DB\..\..\..\..\..\Co /
//                          mponents\stack\nwk\ -I D:\ZNJJ\ZStack-CC2530-2.5. /
//                          1a\Projects\zstack\Samples\GwCoord\CC2530DB\..\.. /
//                          \..\..\..\Components\stack\sapi\ -I               /
//                          D:\ZNJJ\ZStack-CC2530-2.5.1a\Projects\zstack\Samp /
//                          les\GwCoord\CC2530DB\..\..\..\..\..\Components\st /
//                          ack\sec\ -I D:\ZNJJ\ZStack-CC2530-2.5.1a\Projects /
//                          \zstack\Samples\GwCoord\CC2530DB\..\..\..\..\..\C /
//                          omponents\stack\sys\ -I                           /
//                          D:\ZNJJ\ZStack-CC2530-2.5.1a\Projects\zstack\Samp /
//                          les\GwCoord\CC2530DB\..\..\..\..\..\Components\st /
//                          ack\zdo\ -I D:\ZNJJ\ZStack-CC2530-2.5.1a\Projects /
//                          \zstack\Samples\GwCoord\CC2530DB\..\..\..\..\..\C /
//                          omponents\zmac\ -I D:\ZNJJ\ZStack-CC2530-2.5.1a\P /
//                          rojects\zstack\Samples\GwCoord\CC2530DB\..\..\..\ /
//                          ..\..\Components\zmac\f8w\ -Ohz                   /
//                          --require_prototypes                              /
//    List file          =  D:\ZNJJ\ZStack-CC2530-2.5.1a\Projects\zstack\Samp /
//                          les\GwCoord\CC2530DB\CoordinatorEB\List\gw_coord. /
//                          s51                                               /
//                                                                            /
//                                                                            /
///////////////////////////////////////////////////////////////////////////////

        NAME gw_coord

        RTMODEL "__SystemLibrary", "CLib"
        RTMODEL "__calling_convention", "xdata_reentrant"
        RTMODEL "__code_model", "banked"
        RTMODEL "__core", "plain"
        RTMODEL "__data_model", "large"
        RTMODEL "__dptr_size", "16"
        RTMODEL "__extended_stack", "disabled"
        RTMODEL "__location_for_constants", "data"
        RTMODEL "__number_of_dptrs", "1"
        RTMODEL "__rt_version", "1"

        RSEG DOVERLAY:DATA:NOROOT(0)
        RSEG IOVERLAY:IDATA:NOROOT(0)
        RSEG ISTACK:IDATA:NOROOT(0)
        RSEG PSTACK:XDATA:NOROOT(0)
        RSEG XSTACK:XDATA:NOROOT(0)

        EXTERN ?ALLOC_XSTACK8
        EXTERN ?BANKED_ENTER_XDATA
        EXTERN ?BANKED_LEAVE_XDATA
        EXTERN ?BDISPATCH
        EXTERN ?BRET
        EXTERN ?DEALLOC_XSTACK8
        EXTERN ?L_MOV_X
        EXTERN ?L_SUB_X
        EXTERN ?POP_BIT_ISP
        EXTERN ?PUSH_XSTACK_I_ONE
        EXTERN ?PUSH_XSTACK_I_THREE
        EXTERN ?PUSH_XSTACK_I_TWO
        EXTERN ?UL_DIV_MOD
        EXTERN ?UL_GE_X
        EXTERN ?V0
        EXTERN ?XSP
        EXTERN ?XSTACK_DISP0_8
        EXTERN __INIT_XDATA_I
        EXTERN __INIT_XDATA_Z

        PUBLIC ??GwCoord_Init?relay
        FUNCTION ??GwCoord_Init?relay,0203H
        PUBLIC ??GwCoord_OnFrame?relay
        FUNCTION ??GwCoord_OnFrame?relay,0203H
        PUBLIC ??GwCoord_ProcessEvent?relay
        FUNCTION ??GwCoord_ProcessEvent?relay,0203H
        PUBLIC ??GwCoord_RefreshLocalDisplay?relay
        FUNCTION ??GwCoord_RefreshLocalDisplay?relay,0203H
        PUBLIC ??GwCoord_SendErr?relay
        FUNCTION ??GwCoord_SendErr?relay,0203H
        PUBLIC ??GwCoord_SendFrame?relay
        FUNCTION ??GwCoord_SendFrame?relay,0203H
        PUBLIC ??GwCoord_SendNetStatus?relay
        FUNCTION ??GwCoord_SendNetStatus?relay,0203H
        PUBLIC ??GwCoord_SendNodeInfo?relay
        FUNCTION ??GwCoord_SendNodeInfo?relay,0203H
        FUNCTION ??af_to_zb_report?relay,0203H
        PUBLIC GwCoord_Init
        FUNCTION GwCoord_Init,021203H
        ARGFRAME XSTACK, 0, STACK
        LOCFRAME XSTACK, 9, STACK
        PUBLIC GwCoord_OnFrame
        FUNCTION GwCoord_OnFrame,021203H
        ARGFRAME XSTACK, 0, STACK
        LOCFRAME XSTACK, 9, STACK
        PUBLIC GwCoord_ProcessEvent
        FUNCTION GwCoord_ProcessEvent,021203H
        ARGFRAME XSTACK, 0, STACK
        LOCFRAME XSTACK, 24, STACK
        PUBLIC GwCoord_RefreshLocalDisplay
        FUNCTION GwCoord_RefreshLocalDisplay,021203H
        ARGFRAME XSTACK, 0, STACK
        LOCFRAME ISTACK, 2, STACK
        PUBLIC GwCoord_SendErr
        FUNCTION GwCoord_SendErr,021203H
        ARGFRAME XSTACK, 23, STACK
        ARGFRAME IOVERLAY, 0, STATIC
        ARGFRAME DOVERLAY, 0, STATIC
        LOCFRAME ISTACK, 1, STACK
        LOCFRAME XSTACK, 11, STACK
        PUBLIC GwCoord_SendFrame
        FUNCTION GwCoord_SendFrame,021203H
        ARGFRAME XSTACK, 84, STACK
        ARGFRAME IOVERLAY, 0, STATIC
        ARGFRAME DOVERLAY, 0, STATIC
        LOCFRAME XSTACK, 14, STACK
        PUBLIC GwCoord_SendNetStatus
        FUNCTION GwCoord_SendNetStatus,021203H
        ARGFRAME XSTACK, 23, STACK
        ARGFRAME IOVERLAY, 0, STATIC
        ARGFRAME DOVERLAY, 0, STATIC
        LOCFRAME ISTACK, 1, STACK
        LOCFRAME XSTACK, 24, STACK
        PUBLIC GwCoord_SendNodeInfo
        FUNCTION GwCoord_SendNodeInfo,021203H
        ARGFRAME XSTACK, 84, STACK
        ARGFRAME IOVERLAY, 0, STATIC
        ARGFRAME DOVERLAY, 0, STATIC
        LOCFRAME ISTACK, 1, STACK
        LOCFRAME XSTACK, 24, STACK
        PUBLIC GwCoord_TaskID
        PUBWEAK __Constant_3e419
        PUBWEAK __Constant_3e8
        FUNCTION af_to_zb_report,021203H
        ARGFRAME XSTACK, 23, STACK
        ARGFRAME IOVERLAY, 0, STATIC
        ARGFRAME DOVERLAY, 0, STATIC
        LOCFRAME ISTACK, 1, STACK
        LOCFRAME XSTACK, 87, STACK
        
        CFI Names cfiNames0
        CFI StackFrame CFA_SP SP IDATA
        CFI StackFrame CFA_PSP16 PSP16 XDATA
        CFI StackFrame CFA_XSP16 XSP16 XDATA
        CFI StaticOverlayFrame CFA_IOVERLAY IOVERLAY
        CFI StaticOverlayFrame CFA_DOVERLAY DOVERLAY
        CFI Resource `PSW.CY`:1, `B.BR0`:1, `B.BR1`:1, `B.BR2`:1, `B.BR3`:1
        CFI Resource `B.BR4`:1, `B.BR5`:1, `B.BR6`:1, `B.BR7`:1, `VB.BR8`:1
        CFI Resource `VB.BR9`:1, `VB.BR10`:1, `VB.BR11`:1, `VB.BR12`:1
        CFI Resource `VB.BR13`:1, `VB.BR14`:1, `VB.BR15`:1, VB:8, B:8, A:8
        CFI Resource PSW:8, DPL0:8, DPH0:8, R0:8, R1:8, R2:8, R3:8, R4:8, R5:8
        CFI Resource R6:8, R7:8, V0:8, V1:8, V2:8, V3:8, V4:8, V5:8, V6:8, V7:8
        CFI Resource V8:8, V9:8, V10:8, V11:8, V12:8, V13:8, V14:8, V15:8, SP:8
        CFI Resource PSPH:8, PSPL:8, PSP16:16, XSPH:8, XSPL:8, XSP16:16
        CFI VirtualResource ?RET:24
        CFI Resource ?BRET_EXT:8
        CFI VirtualResource ?RET_HIGH:8, ?RET_LOW:8
        CFI ResourceParts PSP16 PSPH, PSPL
        CFI ResourceParts XSP16 XSPH, XSPL
        CFI ResourceParts ?RET ?BRET_EXT, ?RET_HIGH, ?RET_LOW
        CFI EndNames cfiNames0
        
        CFI Common cfiCommon0 Using cfiNames0
        CFI CodeAlign 1
        CFI DataAlign -1
        CFI ReturnAddress ?RET CODE
        CFI CFA_DOVERLAY Used
        CFI CFA_IOVERLAY Used
        CFI CFA_SP SP+-3
        CFI CFA_PSP16 PSP16+0
        CFI CFA_XSP16 XSP16+0
        CFI `PSW.CY` SameValue
        CFI `B.BR0` SameValue
        CFI `B.BR1` SameValue
        CFI `B.BR2` SameValue
        CFI `B.BR3` SameValue
        CFI `B.BR4` SameValue
        CFI `B.BR5` SameValue
        CFI `B.BR6` SameValue
        CFI `B.BR7` SameValue
        CFI `VB.BR8` SameValue
        CFI `VB.BR9` SameValue
        CFI `VB.BR10` SameValue
        CFI `VB.BR11` SameValue
        CFI `VB.BR12` SameValue
        CFI `VB.BR13` SameValue
        CFI `VB.BR14` SameValue
        CFI `VB.BR15` SameValue
        CFI VB SameValue
        CFI B Undefined
        CFI A Undefined
        CFI PSW SameValue
        CFI DPL0 SameValue
        CFI DPH0 SameValue
        CFI R0 Undefined
        CFI R1 Undefined
        CFI R2 Undefined
        CFI R3 Undefined
        CFI R4 Undefined
        CFI R5 Undefined
        CFI R6 SameValue
        CFI R7 SameValue
        CFI V0 SameValue
        CFI V1 SameValue
        CFI V2 SameValue
        CFI V3 SameValue
        CFI V4 SameValue
        CFI V5 SameValue
        CFI V6 SameValue
        CFI V7 SameValue
        CFI V8 SameValue
        CFI V9 SameValue
        CFI V10 SameValue
        CFI V11 SameValue
        CFI V12 SameValue
        CFI V13 SameValue
        CFI V14 SameValue
        CFI V15 SameValue
        CFI PSPH Undefined
        CFI PSPL Undefined
        CFI XSPH Undefined
        CFI XSPL Undefined
        CFI ?RET Concat
        CFI ?BRET_EXT Frame(CFA_SP, 3)
        CFI ?RET_HIGH Frame(CFA_SP, 2)
        CFI ?RET_LOW Frame(CFA_SP, 1)
        CFI EndCommon cfiCommon0
        
        
        CFI Common cfiCommon1 Using cfiNames0
        CFI CodeAlign 1
        CFI DataAlign -1
        CFI ReturnAddress ?RET CODE
        CFI CFA_DOVERLAY Used
        CFI CFA_IOVERLAY Used
        CFI CFA_SP SP+-2
        CFI CFA_PSP16 PSP16+0
        CFI CFA_XSP16 XSP16+0
        CFI `PSW.CY` SameValue
        CFI `B.BR0` SameValue
        CFI `B.BR1` SameValue
        CFI `B.BR2` SameValue
        CFI `B.BR3` SameValue
        CFI `B.BR4` SameValue
        CFI `B.BR5` SameValue
        CFI `B.BR6` SameValue
        CFI `B.BR7` SameValue
        CFI `VB.BR8` SameValue
        CFI `VB.BR9` SameValue
        CFI `VB.BR10` SameValue
        CFI `VB.BR11` SameValue
        CFI `VB.BR12` SameValue
        CFI `VB.BR13` SameValue
        CFI `VB.BR14` SameValue
        CFI `VB.BR15` SameValue
        CFI VB SameValue
        CFI B SameValue
        CFI A SameValue
        CFI PSW SameValue
        CFI DPL0 SameValue
        CFI DPH0 SameValue
        CFI R0 SameValue
        CFI R1 SameValue
        CFI R2 SameValue
        CFI R3 SameValue
        CFI R4 SameValue
        CFI R5 SameValue
        CFI R6 SameValue
        CFI R7 SameValue
        CFI V0 SameValue
        CFI V1 SameValue
        CFI V2 SameValue
        CFI V3 SameValue
        CFI V4 SameValue
        CFI V5 SameValue
        CFI V6 SameValue
        CFI V7 SameValue
        CFI V8 SameValue
        CFI V9 SameValue
        CFI V10 SameValue
        CFI V11 SameValue
        CFI V12 SameValue
        CFI V13 SameValue
        CFI V14 SameValue
        CFI V15 SameValue
        CFI PSPH Undefined
        CFI PSPL Undefined
        CFI XSPH Undefined
        CFI XSPL Undefined
        CFI ?RET Concat
        CFI ?BRET_EXT SameValue
        CFI ?RET_HIGH Frame(CFA_SP, 2)
        CFI ?RET_LOW Frame(CFA_SP, 1)
        CFI EndCommon cfiCommon1
        
frame_encode        SYMBOL "frame_encode"
uart_link_tx        SYMBOL "uart_link_tx"
osal_GetSystemClock SYMBOL "osal_GetSystemClock"
zb_net_get_status   SYMBOL "zb_net_get_status"
gw_oled_view_refresh SYMBOL "gw_oled_view_refresh"
HalLedSet           SYMBOL "HalLedSet"
cmd_map_dispatch    SYMBOL "cmd_map_dispatch"
afRegister          SYMBOL "afRegister"
ZDO_RegisterForZDOMsg SYMBOL "ZDO_RegisterForZDOMsg"
zb_net_init         SYMBOL "zb_net_init"
uart_link_init      SYMBOL "uart_link_init"
gw_oled_view_init   SYMBOL "gw_oled_view_init"
osal_start_reload_timer SYMBOL "osal_start_reload_timer"
uart_link_drain     SYMBOL "uart_link_drain"
osal_msg_deallocate SYMBOL "osal_msg_deallocate"
osal_msg_receive    SYMBOL "osal_msg_receive"
zb_net_on_state     SYMBOL "zb_net_on_state"
ZDO_ParseDeviceAnnce SYMBOL "ZDO_ParseDeviceAnnce"
zb_net_touch        SYMBOL "zb_net_touch"
zb_net_tick         SYMBOL "zb_net_tick"
zb_net_find         SYMBOL "zb_net_find"
osal_memcpy         SYMBOL "osal_memcpy"
??HalLedSet?relay   SYMBOL "?relay", HalLedSet
??ZDO_ParseDeviceAnnce?relay SYMBOL "?relay", ZDO_ParseDeviceAnnce
??ZDO_RegisterForZDOMsg?relay SYMBOL "?relay", ZDO_RegisterForZDOMsg
??afRegister?relay  SYMBOL "?relay", afRegister
??cmd_map_dispatch?relay SYMBOL "?relay", cmd_map_dispatch
??frame_encode?relay SYMBOL "?relay", frame_encode
??gw_oled_view_init?relay SYMBOL "?relay", gw_oled_view_init
??gw_oled_view_refresh?relay SYMBOL "?relay", gw_oled_view_refresh
??osal_GetSystemClock?relay SYMBOL "?relay", osal_GetSystemClock
??osal_memcpy?relay SYMBOL "?relay", osal_memcpy
??osal_msg_deallocate?relay SYMBOL "?relay", osal_msg_deallocate
??osal_msg_receive?relay SYMBOL "?relay", osal_msg_receive
??osal_start_reload_timer?relay SYMBOL "?relay", osal_start_reload_timer
??uart_link_drain?relay SYMBOL "?relay", uart_link_drain
??uart_link_init?relay SYMBOL "?relay", uart_link_init
??uart_link_tx?relay SYMBOL "?relay", uart_link_tx
??zb_net_find?relay SYMBOL "?relay", zb_net_find
??zb_net_get_status?relay SYMBOL "?relay", zb_net_get_status
??zb_net_init?relay SYMBOL "?relay", zb_net_init
??zb_net_on_state?relay SYMBOL "?relay", zb_net_on_state
??zb_net_tick?relay SYMBOL "?relay", zb_net_tick
??zb_net_touch?relay SYMBOL "?relay", zb_net_touch
GwCoord_Init        SYMBOL "GwCoord_Init"
??GwCoord_Init?relay SYMBOL "?relay", GwCoord_Init
GwCoord_OnFrame     SYMBOL "GwCoord_OnFrame"
??GwCoord_OnFrame?relay SYMBOL "?relay", GwCoord_OnFrame
GwCoord_ProcessEvent SYMBOL "GwCoord_ProcessEvent"
??GwCoord_ProcessEvent?relay SYMBOL "?relay", GwCoord_ProcessEvent
GwCoord_RefreshLocalDisplay SYMBOL "GwCoord_RefreshLocalDisplay"
??GwCoord_RefreshLocalDisplay?relay SYMBOL "?relay", GwCoord_RefreshLocalDisplay
GwCoord_SendErr     SYMBOL "GwCoord_SendErr"
??GwCoord_SendErr?relay SYMBOL "?relay", GwCoord_SendErr
GwCoord_SendFrame   SYMBOL "GwCoord_SendFrame"
??GwCoord_SendFrame?relay SYMBOL "?relay", GwCoord_SendFrame
GwCoord_SendNetStatus SYMBOL "GwCoord_SendNetStatus"
??GwCoord_SendNetStatus?relay SYMBOL "?relay", GwCoord_SendNetStatus
GwCoord_SendNodeInfo SYMBOL "GwCoord_SendNodeInfo"
??GwCoord_SendNodeInfo?relay SYMBOL "?relay", GwCoord_SendNodeInfo

        EXTERN frame_encode
        FUNCTION frame_encode,0202H
        ARGFRAME ISTACK, 0, STACK
        ARGFRAME PSTACK, 0, STACK
        ARGFRAME XSTACK, 14, STACK
        ARGFRAME IOVERLAY, 0, STATIC
        ARGFRAME DOVERLAY, 0, STATIC
        EXTERN uart_link_tx
        FUNCTION uart_link_tx,0202H
        ARGFRAME ISTACK, 0, STACK
        ARGFRAME PSTACK, 0, STACK
        ARGFRAME XSTACK, 10, STACK
        ARGFRAME IOVERLAY, 0, STATIC
        ARGFRAME DOVERLAY, 0, STATIC
        EXTERN osal_GetSystemClock
        FUNCTION osal_GetSystemClock,0202H
        ARGFRAME ISTACK, 0, STACK
        ARGFRAME PSTACK, 0, STACK
        ARGFRAME XSTACK, 24, STACK
        ARGFRAME IOVERLAY, 0, STATIC
        ARGFRAME DOVERLAY, 0, STATIC
        EXTERN zb_net_get_status
        FUNCTION zb_net_get_status,0202H
        ARGFRAME ISTACK, 0, STACK
        ARGFRAME PSTACK, 0, STACK
        ARGFRAME XSTACK, 24, STACK
        ARGFRAME IOVERLAY, 0, STATIC
        ARGFRAME DOVERLAY, 0, STATIC
        EXTERN gw_oled_view_refresh
        FUNCTION gw_oled_view_refresh,0202H
        ARGFRAME ISTACK, 2, STACK
        ARGFRAME PSTACK, 0, STACK
        ARGFRAME XSTACK, 84, STACK
        ARGFRAME IOVERLAY, 0, STATIC
        ARGFRAME DOVERLAY, 0, STATIC
        EXTERN HalLedSet
        FUNCTION HalLedSet,0202H
        ARGFRAME ISTACK, 0, STACK
        ARGFRAME PSTACK, 0, STACK
        ARGFRAME XSTACK, 23, STACK
        ARGFRAME IOVERLAY, 0, STATIC
        ARGFRAME DOVERLAY, 0, STATIC
        EXTERN cmd_map_dispatch
        FUNCTION cmd_map_dispatch,0202H
        ARGFRAME ISTACK, 0, STACK
        ARGFRAME PSTACK, 0, STACK
        ARGFRAME XSTACK, 9, STACK
        ARGFRAME IOVERLAY, 0, STATIC
        ARGFRAME DOVERLAY, 0, STATIC
        EXTERN afRegister
        FUNCTION afRegister,0202H
        ARGFRAME ISTACK, 0, STACK
        ARGFRAME PSTACK, 0, STACK
        ARGFRAME XSTACK, 9, STACK
        ARGFRAME IOVERLAY, 0, STATIC
        ARGFRAME DOVERLAY, 0, STATIC
        EXTERN ZDO_RegisterForZDOMsg
        FUNCTION ZDO_RegisterForZDOMsg,0202H
        ARGFRAME ISTACK, 0, STACK
        ARGFRAME PSTACK, 0, STACK
        ARGFRAME XSTACK, 9, STACK
        ARGFRAME IOVERLAY, 0, STATIC
        ARGFRAME DOVERLAY, 0, STATIC
        EXTERN zb_net_init
        FUNCTION zb_net_init,0202H
        ARGFRAME ISTACK, 0, STACK
        ARGFRAME PSTACK, 0, STACK
        ARGFRAME XSTACK, 9, STACK
        ARGFRAME IOVERLAY, 0, STATIC
        ARGFRAME DOVERLAY, 0, STATIC
        EXTERN uart_link_init
        FUNCTION uart_link_init,0202H
        ARGFRAME ISTACK, 0, STACK
        ARGFRAME PSTACK, 0, STACK
        ARGFRAME XSTACK, 9, STACK
        ARGFRAME IOVERLAY, 0, STATIC
        ARGFRAME DOVERLAY, 0, STATIC
        EXTERN gw_oled_view_init
        FUNCTION gw_oled_view_init,0202H
        ARGFRAME ISTACK, 0, STACK
        ARGFRAME PSTACK, 0, STACK
        ARGFRAME XSTACK, 9, STACK
        ARGFRAME IOVERLAY, 0, STATIC
        ARGFRAME DOVERLAY, 0, STATIC
        EXTERN osal_start_reload_timer
        FUNCTION osal_start_reload_timer,0202H
        ARGFRAME ISTACK, 0, STACK
        ARGFRAME PSTACK, 0, STACK
        ARGFRAME XSTACK, 9, STACK
        ARGFRAME IOVERLAY, 0, STATIC
        ARGFRAME DOVERLAY, 0, STATIC
        EXTERN uart_link_drain
        FUNCTION uart_link_drain,0202H
        ARGFRAME ISTACK, 0, STACK
        ARGFRAME PSTACK, 0, STACK
        ARGFRAME XSTACK, 23, STACK
        ARGFRAME IOVERLAY, 0, STATIC
        ARGFRAME DOVERLAY, 0, STATIC
        EXTERN osal_msg_deallocate
        FUNCTION osal_msg_deallocate,0202H
        ARGFRAME ISTACK, 0, STACK
        ARGFRAME PSTACK, 0, STACK
        ARGFRAME XSTACK, 23, STACK
        ARGFRAME IOVERLAY, 0, STATIC
        ARGFRAME DOVERLAY, 0, STATIC
        EXTERN osal_msg_receive
        FUNCTION osal_msg_receive,0202H
        ARGFRAME ISTACK, 0, STACK
        ARGFRAME PSTACK, 0, STACK
        ARGFRAME XSTACK, 23, STACK
        ARGFRAME IOVERLAY, 0, STATIC
        ARGFRAME DOVERLAY, 0, STATIC
        EXTERN zb_net_on_state
        FUNCTION zb_net_on_state,0202H
        ARGFRAME ISTACK, 0, STACK
        ARGFRAME PSTACK, 0, STACK
        ARGFRAME XSTACK, 23, STACK
        ARGFRAME IOVERLAY, 0, STATIC
        ARGFRAME DOVERLAY, 0, STATIC
        EXTERN ZDO_ParseDeviceAnnce
        FUNCTION ZDO_ParseDeviceAnnce,0202H
        ARGFRAME ISTACK, 0, STACK
        ARGFRAME PSTACK, 0, STACK
        ARGFRAME XSTACK, 23, STACK
        ARGFRAME IOVERLAY, 0, STATIC
        ARGFRAME DOVERLAY, 0, STATIC
        EXTERN zb_net_touch
        FUNCTION zb_net_touch,0202H
        ARGFRAME ISTACK, 0, STACK
        ARGFRAME PSTACK, 0, STACK
        ARGFRAME XSTACK, 85, STACK
        ARGFRAME IOVERLAY, 0, STATIC
        ARGFRAME DOVERLAY, 0, STATIC
        EXTERN zb_net_tick
        FUNCTION zb_net_tick,0202H
        ARGFRAME ISTACK, 0, STACK
        ARGFRAME PSTACK, 0, STACK
        ARGFRAME XSTACK, 23, STACK
        ARGFRAME IOVERLAY, 0, STATIC
        ARGFRAME DOVERLAY, 0, STATIC
        EXTERN zb_net_find
        FUNCTION zb_net_find,0202H
        ARGFRAME ISTACK, 0, STACK
        ARGFRAME PSTACK, 0, STACK
        ARGFRAME XSTACK, 84, STACK
        ARGFRAME IOVERLAY, 0, STATIC
        ARGFRAME DOVERLAY, 0, STATIC
        EXTERN osal_memcpy
        FUNCTION osal_memcpy,0202H
        ARGFRAME ISTACK, 0, STACK
        ARGFRAME PSTACK, 0, STACK
        ARGFRAME XSTACK, 87, STACK
        ARGFRAME IOVERLAY, 0, STATIC
        ARGFRAME DOVERLAY, 0, STATIC
        EXTERN ??HalLedSet?relay
        FUNCTION ??HalLedSet?relay,00H
        EXTERN ??ZDO_ParseDeviceAnnce?relay
        FUNCTION ??ZDO_ParseDeviceAnnce?relay,00H
        EXTERN ??ZDO_RegisterForZDOMsg?relay
        FUNCTION ??ZDO_RegisterForZDOMsg?relay,00H
        EXTERN ??afRegister?relay
        FUNCTION ??afRegister?relay,00H
        EXTERN ??cmd_map_dispatch?relay
        FUNCTION ??cmd_map_dispatch?relay,00H
        EXTERN ??frame_encode?relay
        FUNCTION ??frame_encode?relay,00H
        EXTERN ??gw_oled_view_init?relay
        FUNCTION ??gw_oled_view_init?relay,00H
        EXTERN ??gw_oled_view_refresh?relay
        FUNCTION ??gw_oled_view_refresh?relay,00H
        EXTERN ??osal_GetSystemClock?relay
        FUNCTION ??osal_GetSystemClock?relay,00H
        EXTERN ??osal_memcpy?relay
        FUNCTION ??osal_memcpy?relay,00H
        EXTERN ??osal_msg_deallocate?relay
        FUNCTION ??osal_msg_deallocate?relay,00H
        EXTERN ??osal_msg_receive?relay
        FUNCTION ??osal_msg_receive?relay,00H
        EXTERN ??osal_start_reload_timer?relay
        FUNCTION ??osal_start_reload_timer?relay,00H
        EXTERN ??uart_link_drain?relay
        FUNCTION ??uart_link_drain?relay,00H
        EXTERN ??uart_link_init?relay
        FUNCTION ??uart_link_init?relay,00H
        EXTERN ??uart_link_tx?relay
        FUNCTION ??uart_link_tx?relay,00H
        EXTERN ??zb_net_find?relay
        FUNCTION ??zb_net_find?relay,00H
        EXTERN ??zb_net_get_status?relay
        FUNCTION ??zb_net_get_status?relay,00H
        EXTERN ??zb_net_init?relay
        FUNCTION ??zb_net_init?relay,00H
        EXTERN ??zb_net_on_state?relay
        FUNCTION ??zb_net_on_state?relay,00H
        EXTERN ??zb_net_tick?relay
        FUNCTION ??zb_net_tick?relay,00H
        EXTERN ??zb_net_touch?relay
        FUNCTION ??zb_net_touch?relay,00H
        EXTERN _NIB
        EXTERN devState

// D:\ZNJJ\ZStack-CC2530-2.5.1a\Projects\zstack\Samples\GwCoord\Source\gw_coord.c
//    1 /*
//    2  * GwCoord task: coordinator endpoint, ZDO callbacks, AF report translation
//    3  * and local OLED refresh.
//    4  */
//    5 
//    6 #include "gw_coord.h"
//    7 #include "uart_link.h"
//    8 #include "cmd_map.h"
//    9 #include "zb_net.h"
//   10 #include "frame.h"
//   11 #include "gw_oled_view.h"
//   12 
//   13 #include "OSAL.h"
//   14 #include "OSAL_Timers.h"
//   15 #include "ZComDef.h"
//   16 #include "AF.h"
//   17 #include "ZDApp.h"
//   18 #include "ZDObject.h"
//   19 #include "ZDProfile.h"
//   20 #include "ZGlobals.h"
//   21 #include "hal_led.h"
//   22 

        RSEG XDATA_I:XDATA:NOROOT(0)
//   23 uint8 GwCoord_TaskID = 0xFF;
GwCoord_TaskID:
        DATA8
        DS 1
        REQUIRE `?<Initializer for GwCoord_TaskID>`
        REQUIRE __INIT_XDATA_I
//   24 

        RSEG XDATA_Z:XDATA:NOROOT(0)
        DATA8
//   25 static endPointDesc_t s_epDesc;
s_epDesc:
        DS 6
        REQUIRE __INIT_XDATA_Z

        RSEG XDATA_Z:XDATA:NOROOT(0)
        DATA8
//   26 static SimpleDescriptionFormat_t s_simpleDesc;
s_simpleDesc:
        DS 12
        REQUIRE __INIT_XDATA_Z

        RSEG XDATA_I:XDATA:NOROOT(0)
//   27 static cId_t XDATA_QUAL s_inClusters[GWCOORD_CLUSTERS_MAX] = {
s_inClusters:
        DATA8
        DS 8
        REQUIRE `?<Initializer for s_inClusters>`
        REQUIRE __INIT_XDATA_I
//   28     ZCL_CLU_TEMP, ZCL_CLU_HUM, ZCL_CLU_LUX, ZCL_CLU_ONOFF
//   29 };

        RSEG XDATA_I:XDATA:NOROOT(0)
//   30 static cId_t XDATA_QUAL s_outClusters[1] = { ZCL_CLU_ONOFF };
s_outClusters:
        DATA16
        DS 2
        REQUIRE `?<Initializer for s_outClusters>`
        REQUIRE __INIT_XDATA_I

        RSEG XDATA_I:XDATA:NOROOT(0)
        DATA32
__Constant_3e419:
        DS 4
        REQUIRE `?<Initializer for __Constant_3e419>`
        REQUIRE __INIT_XDATA_I

        RSEG XDATA_I:XDATA:NOROOT(0)
        DATA32
__Constant_3e8:
        DS 4
        REQUIRE `?<Initializer for __Constant_3e8>`
        REQUIRE __INIT_XDATA_I

        RSEG XDATA_Z:XDATA:NOROOT(0)
        DATA8
//   31 static uint8 s_tx_buf[FRAME_MAX];
s_tx_buf:
        DS 69
        REQUIRE __INIT_XDATA_Z
//   32 
//   33 static void on_af_incoming(afIncomingMSGPacket_t *pkt);
//   34 static void on_af_data_confirm(afDataConfirm_t *cfm);
//   35 static void on_zdo_state_change(uint8 state);
//   36 static void on_zdo_cb_msg(zdoIncomingMsg_t *inMsg);
//   37 static void af_to_zb_report(afIncomingMSGPacket_t *pkt);
//   38 static uint8 role_from_cluster(uint16 cluster);
//   39 static uint8 device_type_from_capabilities(uint8 cap);
//   40 

        RSEG BANKED_CODE:CODE:NOROOT(0)
//   41 int8 GwCoord_SendFrame(uint8 cmd, const uint8 *payload, uint8 plen)
GwCoord_SendFrame:
        CFI Block cfiBlock0 Using cfiCommon0
        CFI Function GwCoord_SendFrame
        CODE
//   42 {
        FUNCALL GwCoord_SendFrame, frame_encode
        LOCFRAME ISTACK, 0, STACK
        LOCFRAME PSTACK, 0, STACK
        LOCFRAME XSTACK, 14, STACK
        LOCFRAME IOVERLAY, 0, STATIC
        LOCFRAME DOVERLAY, 0, STATIC
        ARGFRAME ISTACK, 0, STACK
        ARGFRAME PSTACK, 0, STACK
        ARGFRAME XSTACK, 14, STACK
        ARGFRAME IOVERLAY, 0, STATIC
        ARGFRAME DOVERLAY, 0, STATIC
        FUNCALL GwCoord_SendFrame, uart_link_tx
        LOCFRAME ISTACK, 0, STACK
        LOCFRAME PSTACK, 0, STACK
        LOCFRAME XSTACK, 10, STACK
        LOCFRAME IOVERLAY, 0, STATIC
        LOCFRAME DOVERLAY, 0, STATIC
        ARGFRAME ISTACK, 0, STACK
        ARGFRAME PSTACK, 0, STACK
        ARGFRAME XSTACK, 10, STACK
        ARGFRAME IOVERLAY, 0, STATIC
        ARGFRAME DOVERLAY, 0, STATIC
        MOV     A,#-0xa
        LCALL   ?BANKED_ENTER_XDATA
        CFI DPH0 load(1, XDATA, add(CFA_XSP16, literal(-1)))
        CFI DPL0 load(1, XDATA, add(CFA_XSP16, literal(-2)))
        CFI ?BRET_EXT load(1, XDATA, add(CFA_XSP16, literal(-3)))
        CFI ?RET_HIGH load(1, XDATA, add(CFA_XSP16, literal(-4)))
        CFI ?RET_LOW load(1, XDATA, add(CFA_XSP16, literal(-5)))
        CFI R7 load(1, XDATA, add(CFA_XSP16, literal(-6)))
        CFI V1 load(1, XDATA, add(CFA_XSP16, literal(-7)))
        CFI V0 load(1, XDATA, add(CFA_XSP16, literal(-8)))
        CFI VB load(1, XDATA, add(CFA_XSP16, literal(-9)))
        CFI R6 load(1, XDATA, add(CFA_XSP16, literal(-10)))
        CFI CFA_SP SP+0
        CFI CFA_XSP16 add(XSP16, 10)
        ; Saved register size: 10
        ; Auto size: 0
//   43     int16 n;
//   44 
//   45     n = frame_encode(cmd, payload, plen, s_tx_buf, sizeof(s_tx_buf));
        ; Setup parameters for call to function frame_encode
        MOV     ?V0 + 0,#0x45
        MOV     ?V0 + 1,#0x0
        MOV     R0,#?V0 + 0
        LCALL   ?PUSH_XSTACK_I_TWO
        CFI CFA_XSP16 add(XSP16, 12)
        MOV     ?V0 + 0,#s_tx_buf & 0xff
        MOV     ?V0 + 1,#(s_tx_buf >> 8) & 0xff
        MOV     R0,#?V0 + 0
        LCALL   ?PUSH_XSTACK_I_TWO
        CFI CFA_XSP16 add(XSP16, 14)
        LCALL   ??frame_encode?relay
        MOV     A,#0x4
        LCALL   ?DEALLOC_XSTACK8
        CFI CFA_XSP16 add(XSP16, 10)
        MOV     ?V0 + 0,R2
        MOV     ?V0 + 1,R3
        MOV     R4,?V0 + 0
        MOV     R5,?V0 + 1
//   46     if (n <= 0) {
        CLR     C
        MOV     A,R4
        SUBB    A,#0x1
        MOV     A,R5
        SUBB    A,#0x0
        MOV     C,0xD0 /* PSW */.2
        XRL     A,PSW
        RLC     A
        JNC     ??GwCoord_SendFrame_0
//   47         return (int8)n;
        MOV     A,R4
        MOV     R1,A
        SJMP    ??GwCoord_SendFrame_1
//   48     }
//   49     return uart_link_tx(s_tx_buf, (uint16)n);
??GwCoord_SendFrame_0:
        ; Setup parameters for call to function uart_link_tx
        MOV     R2,#s_tx_buf & 0xff
        MOV     R3,#(s_tx_buf >> 8) & 0xff
        LCALL   ??uart_link_tx?relay
        CFI EndBlock cfiBlock0
??GwCoord_SendFrame_1:
        REQUIRE ?Subroutine0
        ; // Fall through to label ?Subroutine0
//   50 }

        RSEG BANKED_CODE:CODE:NOROOT(0)
?Subroutine0:
        CFI Block cfiBlock1 Using cfiCommon0
        CFI NoFunction
        CFI CFA_SP SP+0
        CFI CFA_XSP16 add(XSP16, 10)
        CFI VB load(1, XDATA, add(CFA_XSP16, literal(-9)))
        CFI DPL0 load(1, XDATA, add(CFA_XSP16, literal(-2)))
        CFI DPH0 load(1, XDATA, add(CFA_XSP16, literal(-1)))
        CFI R6 load(1, XDATA, add(CFA_XSP16, literal(-10)))
        CFI R7 load(1, XDATA, add(CFA_XSP16, literal(-6)))
        CFI V0 load(1, XDATA, add(CFA_XSP16, literal(-8)))
        CFI V1 load(1, XDATA, add(CFA_XSP16, literal(-7)))
        CFI ?BRET_EXT load(1, XDATA, add(CFA_XSP16, literal(-3)))
        CFI ?RET_HIGH load(1, XDATA, add(CFA_XSP16, literal(-4)))
        CFI ?RET_LOW load(1, XDATA, add(CFA_XSP16, literal(-5)))
        MOV     R7,#0x2
        LJMP    ?BANKED_LEAVE_XDATA
        CFI EndBlock cfiBlock1
//   51 

        RSEG BANKED_CODE:CODE:NOROOT(0)
//   52 void GwCoord_SendErr(uint8 code, uint8 ctx)
GwCoord_SendErr:
        CFI Block cfiBlock2 Using cfiCommon0
        CFI Function GwCoord_SendErr
        CODE
//   53 {
        FUNCALL GwCoord_SendErr, GwCoord_SendFrame
        LOCFRAME ISTACK, 0, STACK
        LOCFRAME PSTACK, 0, STACK
        LOCFRAME XSTACK, 11, STACK
        LOCFRAME IOVERLAY, 0, STATIC
        LOCFRAME DOVERLAY, 0, STATIC
        ARGFRAME ISTACK, 0, STACK
        ARGFRAME PSTACK, 0, STACK
        ARGFRAME XSTACK, 11, STACK
        ARGFRAME IOVERLAY, 0, STATIC
        ARGFRAME DOVERLAY, 0, STATIC
        MOV     A,#-0x9
        LCALL   ?BANKED_ENTER_XDATA
        CFI DPH0 load(1, XDATA, add(CFA_XSP16, literal(-1)))
        CFI DPL0 load(1, XDATA, add(CFA_XSP16, literal(-2)))
        CFI ?BRET_EXT load(1, XDATA, add(CFA_XSP16, literal(-3)))
        CFI ?RET_HIGH load(1, XDATA, add(CFA_XSP16, literal(-4)))
        CFI ?RET_LOW load(1, XDATA, add(CFA_XSP16, literal(-5)))
        CFI R7 load(1, XDATA, add(CFA_XSP16, literal(-6)))
        CFI V0 load(1, XDATA, add(CFA_XSP16, literal(-7)))
        CFI VB load(1, XDATA, add(CFA_XSP16, literal(-8)))
        CFI R6 load(1, XDATA, add(CFA_XSP16, literal(-9)))
        CFI CFA_SP SP+0
        CFI CFA_XSP16 add(XSP16, 9)
        ; Saved register size: 9
        ; Auto size: 2
        MOV     A,#-0x2
        LCALL   ?ALLOC_XSTACK8
        CFI CFA_XSP16 add(XSP16, 11)
        MOV     A,R1
//   54     uint8 p[2];
//   55 
//   56     p[0] = code;
        MOV     DPL,?XSP + 0
        MOV     DPH,?XSP + 1
        MOVX    @DPTR,A
//   57     p[1] = ctx;
        MOV     A,#0x1
        LCALL   ?XSTACK_DISP0_8
        MOV     A,R2
        MOVX    @DPTR,A
//   58     (void)GwCoord_SendFrame(CMD_ZB_ERR, p, 2);
        ; Setup parameters for call to function GwCoord_SendFrame
        MOV     R4,#0x2
        MOV     DPL,?XSP + 0
        MOV     DPH,?XSP + 1
        MOV     R2,DPL
        MOV     R3,DPH
        MOV     R1,#0x7f
        LCALL   ??GwCoord_SendFrame?relay
//   59 }
        MOV     A,#0x2
        LCALL   ?DEALLOC_XSTACK8
        CFI EndBlock cfiBlock2
        REQUIRE ?Subroutine1
        ; // Fall through to label ?Subroutine1

        RSEG BANKED_CODE:CODE:NOROOT(0)
?Subroutine1:
        CFI Block cfiBlock3 Using cfiCommon0
        CFI NoFunction
        CFI CFA_SP SP+0
        CFI CFA_XSP16 add(XSP16, 9)
        CFI VB load(1, XDATA, add(CFA_XSP16, literal(-8)))
        CFI DPL0 load(1, XDATA, add(CFA_XSP16, literal(-2)))
        CFI DPH0 load(1, XDATA, add(CFA_XSP16, literal(-1)))
        CFI R6 load(1, XDATA, add(CFA_XSP16, literal(-9)))
        CFI R7 load(1, XDATA, add(CFA_XSP16, literal(-6)))
        CFI V0 load(1, XDATA, add(CFA_XSP16, literal(-7)))
        CFI ?BRET_EXT load(1, XDATA, add(CFA_XSP16, literal(-3)))
        CFI ?RET_HIGH load(1, XDATA, add(CFA_XSP16, literal(-4)))
        CFI ?RET_LOW load(1, XDATA, add(CFA_XSP16, literal(-5)))
        MOV     R7,#0x1
        LJMP    ?BANKED_LEAVE_XDATA
        CFI EndBlock cfiBlock3
//   60 

        RSEG BANKED_CODE:CODE:NOROOT(0)
//   61 void GwCoord_SendNodeInfo(const zb_node_t *node)
GwCoord_SendNodeInfo:
        CFI Block cfiBlock4 Using cfiCommon0
        CFI Function GwCoord_SendNodeInfo
        CODE
//   62 {
        FUNCALL GwCoord_SendNodeInfo, osal_GetSystemClock
        LOCFRAME ISTACK, 0, STACK
        LOCFRAME PSTACK, 0, STACK
        LOCFRAME XSTACK, 24, STACK
        LOCFRAME IOVERLAY, 0, STATIC
        LOCFRAME DOVERLAY, 0, STATIC
        ARGFRAME ISTACK, 0, STACK
        ARGFRAME PSTACK, 0, STACK
        ARGFRAME XSTACK, 24, STACK
        ARGFRAME IOVERLAY, 0, STATIC
        ARGFRAME DOVERLAY, 0, STATIC
        FUNCALL GwCoord_SendNodeInfo, GwCoord_SendFrame
        LOCFRAME ISTACK, 0, STACK
        LOCFRAME PSTACK, 0, STACK
        LOCFRAME XSTACK, 24, STACK
        LOCFRAME IOVERLAY, 0, STATIC
        LOCFRAME DOVERLAY, 0, STATIC
        ARGFRAME ISTACK, 0, STACK
        ARGFRAME PSTACK, 0, STACK
        ARGFRAME XSTACK, 24, STACK
        ARGFRAME IOVERLAY, 0, STATIC
        ARGFRAME DOVERLAY, 0, STATIC
        MOV     A,#-0x10
        LCALL   ?BANKED_ENTER_XDATA
        CFI DPH0 load(1, XDATA, add(CFA_XSP16, literal(-1)))
        CFI DPL0 load(1, XDATA, add(CFA_XSP16, literal(-2)))
        CFI ?BRET_EXT load(1, XDATA, add(CFA_XSP16, literal(-3)))
        CFI ?RET_HIGH load(1, XDATA, add(CFA_XSP16, literal(-4)))
        CFI ?RET_LOW load(1, XDATA, add(CFA_XSP16, literal(-5)))
        CFI R7 load(1, XDATA, add(CFA_XSP16, literal(-6)))
        CFI V7 load(1, XDATA, add(CFA_XSP16, literal(-7)))
        CFI V6 load(1, XDATA, add(CFA_XSP16, literal(-8)))
        CFI V5 load(1, XDATA, add(CFA_XSP16, literal(-9)))
        CFI V4 load(1, XDATA, add(CFA_XSP16, literal(-10)))
        CFI V3 load(1, XDATA, add(CFA_XSP16, literal(-11)))
        CFI V2 load(1, XDATA, add(CFA_XSP16, literal(-12)))
        CFI V1 load(1, XDATA, add(CFA_XSP16, literal(-13)))
        CFI V0 load(1, XDATA, add(CFA_XSP16, literal(-14)))
        CFI VB load(1, XDATA, add(CFA_XSP16, literal(-15)))
        CFI R6 load(1, XDATA, add(CFA_XSP16, literal(-16)))
        CFI CFA_SP SP+0
        CFI CFA_XSP16 add(XSP16, 16)
        ; Saved register size: 16
        ; Auto size: 8
        MOV     A,#-0x8
        LCALL   ?ALLOC_XSTACK8
        CFI CFA_XSP16 add(XSP16, 24)
        MOV     A,R2
        MOV     R6,A
        MOV     A,R3
        MOV     R7,A
//   63     uint8 buf[7];
//   64     uint32 diff_ms;
//   65 
//   66     if (node == 0) {
        MOV     A,R6
        ORL     A,R7
        JNZ     $+5
        LJMP    ??GwCoord_SendNodeInfo_0 & 0xFFFF
//   67         return;
//   68     }
//   69 
//   70     buf[0] = (uint8)(node->nodeid & 0xFFu);
        MOV     DPL,R6
        MOV     DPH,R7
        MOVX    A,@DPTR
        PUSH    A
        CFI CFA_SP SP+-1
        MOV     A,#0x1
        LCALL   ?XSTACK_DISP0_8
        POP     A
        CFI CFA_SP SP+0
        MOVX    @DPTR,A
//   71     buf[1] = (uint8)(node->nodeid >> 8);
        MOV     DPL,R6
        MOV     DPH,R7
        INC     DPTR
        MOVX    A,@DPTR
        PUSH    A
        CFI CFA_SP SP+-1
        MOV     A,#0x2
        LCALL   ?XSTACK_DISP0_8
        POP     A
        CFI CFA_SP SP+0
        MOVX    @DPTR,A
//   72     buf[2] = node->type;
        MOV     DPL,R6
        MOV     DPH,R7
        INC     DPTR
        INC     DPTR
        INC     DPTR
        INC     DPTR
        INC     DPTR
        INC     DPTR
        INC     DPTR
        INC     DPTR
        INC     DPTR
        INC     DPTR
        MOVX    A,@DPTR
        PUSH    A
        CFI CFA_SP SP+-1
        MOV     A,#0x3
        LCALL   ?XSTACK_DISP0_8
        POP     A
        CFI CFA_SP SP+0
        MOVX    @DPTR,A
//   73     buf[3] = (uint8)node->rssi;
        MOV     A,R6
        ADD     A,#0xc
        LCALL   ??Subroutine6_0 & 0xFFFF
??CrossCallReturnLabel_10:
        PUSH    A
        CFI CFA_SP SP+-1
        MOV     A,#0x4
        LCALL   ?XSTACK_DISP0_8
        POP     A
        CFI CFA_SP SP+0
        MOVX    @DPTR,A
//   74     diff_ms = osal_GetSystemClock() - node->last_seen_ms;
        ; Setup parameters for call to function osal_GetSystemClock
        LCALL   ??osal_GetSystemClock?relay
        MOV     ?V0 + 0,R2
        MOV     ?V0 + 1,R3
        MOV     ?V0 + 2,R4
        MOV     ?V0 + 3,R5
        MOV     A,R6
        ADD     A,#0xd
        MOV     DPL,A
        MOV     A,R7
        ADDC    A,#0x0
        MOV     DPH,A
        MOV     R0,#?V0 + 0
        LCALL   ?L_SUB_X
//   75     buf[4] = (diff_ms > 255000u) ? 0xFFu : (uint8)(diff_ms / 1000u);
        MOV     DPTR,#__Constant_3e419
        MOV     R0,#?V0 + 0
        LCALL   ?UL_GE_X
        JNC     ??GwCoord_SendNodeInfo_1
        MOV     DPL,?XSP + 0
        MOV     DPH,?XSP + 1
        MOV     A,#-0x1
        SJMP    ??GwCoord_SendNodeInfo_2
??GwCoord_SendNodeInfo_1:
        MOV     DPTR,#__Constant_3e8
        MOV     R0,#?V0 + 4
        LCALL   ?L_MOV_X
        MOV     R0,#?V0 + 0
        MOV     R1,#?V0 + 4
        LCALL   ?UL_DIV_MOD
        MOV     DPL,?XSP + 0
        MOV     DPH,?XSP + 1
        MOV     A,?V0 + 0
??GwCoord_SendNodeInfo_2:
        MOVX    @DPTR,A
        MOVX    A,@DPTR
        PUSH    A
        CFI CFA_SP SP+-1
        MOV     A,#0x5
        LCALL   ?XSTACK_DISP0_8
        POP     A
        CFI CFA_SP SP+0
        MOVX    @DPTR,A
//   76     buf[5] = node->role;
        MOV     A,R6
        ADD     A,#0xb
        LCALL   ??Subroutine6_0 & 0xFFFF
??CrossCallReturnLabel_11:
        PUSH    A
        CFI CFA_SP SP+-1
        MOV     A,#0x6
        LCALL   ?XSTACK_DISP0_8
        POP     A
        CFI CFA_SP SP+0
        MOVX    @DPTR,A
//   77     buf[6] = (node->flags & 0x01u) ? 1u : 0u;
        MOV     A,R6
        ADD     A,#0x11
        LCALL   ??Subroutine6_0 & 0xFFFF
??CrossCallReturnLabel_12:
        MOV     C,0xE0 /* A   */.0
        CLR     A
        RLC     A
        PUSH    A
        CFI CFA_SP SP+-1
        MOV     A,#0x7
        LCALL   ?XSTACK_DISP0_8
        POP     A
        CFI CFA_SP SP+0
        MOVX    @DPTR,A
//   78     (void)GwCoord_SendFrame(CMD_ZB_NODE_INFO, buf, sizeof(buf));
        ; Setup parameters for call to function GwCoord_SendFrame
        MOV     R4,#0x7
        MOV     A,#0x1
        LCALL   ?XSTACK_DISP0_8
        MOV     R2,DPL
        MOV     R3,DPH
        MOV     R1,#0x12
        LCALL   ??GwCoord_SendFrame?relay
//   79 }
??GwCoord_SendNodeInfo_0:
        MOV     A,#0x8
        LCALL   ?DEALLOC_XSTACK8
        CFI CFA_XSP16 add(XSP16, 16)
        MOV     R7,#0x8
        LJMP    ?BANKED_LEAVE_XDATA
        CFI EndBlock cfiBlock4
//   80 

        RSEG BANKED_CODE:CODE:NOROOT(0)
//   81 void GwCoord_SendNetStatus(void)
GwCoord_SendNetStatus:
        CFI Block cfiBlock5 Using cfiCommon0
        CFI Function GwCoord_SendNetStatus
        CODE
//   82 {
        FUNCALL GwCoord_SendNetStatus, zb_net_get_status
        LOCFRAME ISTACK, 0, STACK
        LOCFRAME PSTACK, 0, STACK
        LOCFRAME XSTACK, 24, STACK
        LOCFRAME IOVERLAY, 0, STATIC
        LOCFRAME DOVERLAY, 0, STATIC
        ARGFRAME ISTACK, 0, STACK
        ARGFRAME PSTACK, 0, STACK
        ARGFRAME XSTACK, 24, STACK
        ARGFRAME IOVERLAY, 0, STATIC
        ARGFRAME DOVERLAY, 0, STATIC
        FUNCALL GwCoord_SendNetStatus, GwCoord_SendFrame
        LOCFRAME ISTACK, 0, STACK
        LOCFRAME PSTACK, 0, STACK
        LOCFRAME XSTACK, 20, STACK
        LOCFRAME IOVERLAY, 0, STATIC
        LOCFRAME DOVERLAY, 0, STATIC
        ARGFRAME ISTACK, 0, STACK
        ARGFRAME PSTACK, 0, STACK
        ARGFRAME XSTACK, 20, STACK
        ARGFRAME IOVERLAY, 0, STATIC
        ARGFRAME DOVERLAY, 0, STATIC
        MOV     A,#-0xa
        LCALL   ?BANKED_ENTER_XDATA
        CFI DPH0 load(1, XDATA, add(CFA_XSP16, literal(-1)))
        CFI DPL0 load(1, XDATA, add(CFA_XSP16, literal(-2)))
        CFI ?BRET_EXT load(1, XDATA, add(CFA_XSP16, literal(-3)))
        CFI ?RET_HIGH load(1, XDATA, add(CFA_XSP16, literal(-4)))
        CFI ?RET_LOW load(1, XDATA, add(CFA_XSP16, literal(-5)))
        CFI R7 load(1, XDATA, add(CFA_XSP16, literal(-6)))
        CFI V1 load(1, XDATA, add(CFA_XSP16, literal(-7)))
        CFI V0 load(1, XDATA, add(CFA_XSP16, literal(-8)))
        CFI VB load(1, XDATA, add(CFA_XSP16, literal(-9)))
        CFI R6 load(1, XDATA, add(CFA_XSP16, literal(-10)))
        CFI CFA_SP SP+0
        CFI CFA_XSP16 add(XSP16, 10)
        ; Saved register size: 10
        ; Auto size: 10
        MOV     A,#-0xa
        LCALL   ?ALLOC_XSTACK8
        CFI CFA_XSP16 add(XSP16, 20)
//   83     uint8 payload[5];
//   84     uint8 state;
//   85     uint8 channel;
//   86     uint16 panid;
//   87     uint8 joined_n;
//   88 
//   89     zb_net_get_status(&state, &channel, &panid, &joined_n);
        ; Setup parameters for call to function zb_net_get_status
        MOV     DPL,?XSP + 0
        MOV     DPH,?XSP + 1
        MOV     ?V0 + 0,DPL
        MOV     ?V0 + 1,DPH
        MOV     R0,#?V0 + 0
        LCALL   ?PUSH_XSTACK_I_TWO
        CFI CFA_XSP16 add(XSP16, 22)
        MOV     A,#0x5
        LCALL   ?XSTACK_DISP0_8
        MOV     ?V0 + 0,DPL
        MOV     ?V0 + 1,DPH
        MOV     R0,#?V0 + 0
        LCALL   ?PUSH_XSTACK_I_TWO
        CFI CFA_XSP16 add(XSP16, 24)
        MOV     A,#0x5
        LCALL   ?XSTACK_DISP0_8
        MOV     R4,DPL
        MOV     R5,DPH
        MOV     A,#0x6
        LCALL   ?XSTACK_DISP0_8
        MOV     R2,DPL
        MOV     R3,DPH
        LCALL   ??zb_net_get_status?relay
        MOV     A,#0x4
        LCALL   ?DEALLOC_XSTACK8
        CFI CFA_XSP16 add(XSP16, 20)
//   90     payload[0] = state;
        MOV     A,#0x2
        LCALL   ?XSTACK_DISP0_8
        MOVX    A,@DPTR
        PUSH    A
        CFI CFA_SP SP+-1
        MOV     A,#0x5
        LCALL   ?XSTACK_DISP0_8
        POP     A
        CFI CFA_SP SP+0
        MOVX    @DPTR,A
//   91     payload[1] = channel;
        MOV     A,#0x1
        LCALL   ?XSTACK_DISP0_8
        MOVX    A,@DPTR
        PUSH    A
        CFI CFA_SP SP+-1
        MOV     A,#0x6
        LCALL   ?XSTACK_DISP0_8
        POP     A
        CFI CFA_SP SP+0
        MOVX    @DPTR,A
//   92     payload[2] = (uint8)(panid & 0xFFu);
        MOV     A,#0x3
        LCALL   ?XSTACK_DISP0_8
        MOVX    A,@DPTR
        PUSH    A
        CFI CFA_SP SP+-1
        MOV     A,#0x7
        LCALL   ?XSTACK_DISP0_8
        POP     A
        CFI CFA_SP SP+0
        MOVX    @DPTR,A
//   93     payload[3] = (uint8)(panid >> 8);
        MOV     A,#0x3
        LCALL   ?XSTACK_DISP0_8
        INC     DPTR
        MOVX    A,@DPTR
        PUSH    A
        CFI CFA_SP SP+-1
        MOV     A,#0x8
        LCALL   ?XSTACK_DISP0_8
        POP     A
        CFI CFA_SP SP+0
        MOVX    @DPTR,A
//   94     payload[4] = joined_n;
        MOV     DPL,?XSP + 0
        MOV     DPH,?XSP + 1
        MOVX    A,@DPTR
        PUSH    A
        CFI CFA_SP SP+-1
        MOV     A,#0x9
        LCALL   ?XSTACK_DISP0_8
        POP     A
        CFI CFA_SP SP+0
        MOVX    @DPTR,A
//   95     (void)GwCoord_SendFrame(CMD_ZB_NET_STATUS, payload, sizeof(payload));
        ; Setup parameters for call to function GwCoord_SendFrame
        MOV     R4,#0x5
        MOV     A,R4
        LCALL   ?XSTACK_DISP0_8
        MOV     R2,DPL
        MOV     R3,DPH
        MOV     R1,#0x2
        LCALL   ??GwCoord_SendFrame?relay
//   96 }
        MOV     A,#0xa
        LCALL   ?DEALLOC_XSTACK8
        CFI CFA_XSP16 add(XSP16, 10)
        LJMP    ?Subroutine0 & 0xFFFF
        CFI EndBlock cfiBlock5
//   97 

        RSEG BANKED_CODE:CODE:NOROOT(0)
//   98 void GwCoord_RefreshLocalDisplay(void)
GwCoord_RefreshLocalDisplay:
        CFI Block cfiBlock6 Using cfiCommon0
        CFI Function GwCoord_RefreshLocalDisplay
        CODE
//   99 {
        FUNCALL GwCoord_RefreshLocalDisplay, gw_oled_view_refresh
        LOCFRAME ISTACK, 2, STACK
        LOCFRAME PSTACK, 0, STACK
        LOCFRAME XSTACK, 0, STACK
        LOCFRAME IOVERLAY, 0, STATIC
        LOCFRAME DOVERLAY, 0, STATIC
        ARGFRAME ISTACK, 2, STACK
        ARGFRAME PSTACK, 0, STACK
        ARGFRAME XSTACK, 0, STACK
        ARGFRAME IOVERLAY, 0, STATIC
        ARGFRAME DOVERLAY, 0, STATIC
        PUSH    DPL
        CFI DPL0 Frame(CFA_SP, 4)
        CFI CFA_SP SP+-4
        PUSH    DPH
        CFI DPH0 Frame(CFA_SP, 5)
        CFI CFA_SP SP+-5
        ; Saved register size: 2
        ; Auto size: 0
//  100     gw_oled_view_refresh();
        ; Setup parameters for call to function gw_oled_view_refresh
        LCALL   ??gw_oled_view_refresh?relay
//  101 }
        POP     DPH
        CFI DPH0 SameValue
        CFI CFA_SP SP+-4
        POP     DPL
        CFI DPL0 SameValue
        CFI CFA_SP SP+-3
        LJMP    ?BRET
        CFI EndBlock cfiBlock6
//  102 

        RSEG BANKED_CODE:CODE:NOROOT(0)
//  103 void GwCoord_OnFrame(const frame_t *f)
GwCoord_OnFrame:
        CFI Block cfiBlock7 Using cfiCommon0
        CFI Function GwCoord_OnFrame
        CODE
//  104 {
        FUNCALL GwCoord_OnFrame, HalLedSet
        LOCFRAME ISTACK, 0, STACK
        LOCFRAME PSTACK, 0, STACK
        LOCFRAME XSTACK, 9, STACK
        LOCFRAME IOVERLAY, 0, STATIC
        LOCFRAME DOVERLAY, 0, STATIC
        ARGFRAME ISTACK, 0, STACK
        ARGFRAME PSTACK, 0, STACK
        ARGFRAME XSTACK, 9, STACK
        ARGFRAME IOVERLAY, 0, STATIC
        ARGFRAME DOVERLAY, 0, STATIC
        FUNCALL GwCoord_OnFrame, cmd_map_dispatch
        LOCFRAME ISTACK, 0, STACK
        LOCFRAME PSTACK, 0, STACK
        LOCFRAME XSTACK, 9, STACK
        LOCFRAME IOVERLAY, 0, STATIC
        LOCFRAME DOVERLAY, 0, STATIC
        ARGFRAME ISTACK, 0, STACK
        ARGFRAME PSTACK, 0, STACK
        ARGFRAME XSTACK, 9, STACK
        ARGFRAME IOVERLAY, 0, STATIC
        ARGFRAME DOVERLAY, 0, STATIC
        MOV     A,#-0x9
        LCALL   ?BANKED_ENTER_XDATA
        CFI DPH0 load(1, XDATA, add(CFA_XSP16, literal(-1)))
        CFI DPL0 load(1, XDATA, add(CFA_XSP16, literal(-2)))
        CFI ?BRET_EXT load(1, XDATA, add(CFA_XSP16, literal(-3)))
        CFI ?RET_HIGH load(1, XDATA, add(CFA_XSP16, literal(-4)))
        CFI ?RET_LOW load(1, XDATA, add(CFA_XSP16, literal(-5)))
        CFI R7 load(1, XDATA, add(CFA_XSP16, literal(-6)))
        CFI V0 load(1, XDATA, add(CFA_XSP16, literal(-7)))
        CFI VB load(1, XDATA, add(CFA_XSP16, literal(-8)))
        CFI R6 load(1, XDATA, add(CFA_XSP16, literal(-9)))
        CFI CFA_SP SP+0
        CFI CFA_XSP16 add(XSP16, 9)
        ; Saved register size: 9
        ; Auto size: 0
        MOV     A,R2
        MOV     R6,A
        MOV     A,R3
        MOV     R7,A
//  105     HalLedSet(HAL_LED_2, HAL_LED_MODE_BLINK);
        ; Setup parameters for call to function HalLedSet
        MOV     R2,#0x2
        MOV     R1,#0x2
        LCALL   ??HalLedSet?relay
//  106     cmd_map_dispatch(f);
        ; Setup parameters for call to function cmd_map_dispatch
        MOV     A,R6
        MOV     R2,A
        MOV     A,R7
        MOV     R3,A
        LCALL   ??cmd_map_dispatch?relay
//  107 }
        LJMP    ?Subroutine1 & 0xFFFF
        CFI EndBlock cfiBlock7
//  108 

        RSEG BANKED_CODE:CODE:NOROOT(0)
//  109 void GwCoord_Init(uint8 task_id)
GwCoord_Init:
        CFI Block cfiBlock8 Using cfiCommon0
        CFI Function GwCoord_Init
        CODE
//  110 {
        FUNCALL GwCoord_Init, afRegister
        LOCFRAME ISTACK, 0, STACK
        LOCFRAME PSTACK, 0, STACK
        LOCFRAME XSTACK, 9, STACK
        LOCFRAME IOVERLAY, 0, STATIC
        LOCFRAME DOVERLAY, 0, STATIC
        ARGFRAME ISTACK, 0, STACK
        ARGFRAME PSTACK, 0, STACK
        ARGFRAME XSTACK, 9, STACK
        ARGFRAME IOVERLAY, 0, STATIC
        ARGFRAME DOVERLAY, 0, STATIC
        FUNCALL GwCoord_Init, ZDO_RegisterForZDOMsg
        LOCFRAME ISTACK, 0, STACK
        LOCFRAME PSTACK, 0, STACK
        LOCFRAME XSTACK, 9, STACK
        LOCFRAME IOVERLAY, 0, STATIC
        LOCFRAME DOVERLAY, 0, STATIC
        ARGFRAME ISTACK, 0, STACK
        ARGFRAME PSTACK, 0, STACK
        ARGFRAME XSTACK, 9, STACK
        ARGFRAME IOVERLAY, 0, STATIC
        ARGFRAME DOVERLAY, 0, STATIC
        FUNCALL GwCoord_Init, zb_net_init
        LOCFRAME ISTACK, 0, STACK
        LOCFRAME PSTACK, 0, STACK
        LOCFRAME XSTACK, 9, STACK
        LOCFRAME IOVERLAY, 0, STATIC
        LOCFRAME DOVERLAY, 0, STATIC
        ARGFRAME ISTACK, 0, STACK
        ARGFRAME PSTACK, 0, STACK
        ARGFRAME XSTACK, 9, STACK
        ARGFRAME IOVERLAY, 0, STATIC
        ARGFRAME DOVERLAY, 0, STATIC
        FUNCALL GwCoord_Init, uart_link_init
        LOCFRAME ISTACK, 0, STACK
        LOCFRAME PSTACK, 0, STACK
        LOCFRAME XSTACK, 9, STACK
        LOCFRAME IOVERLAY, 0, STATIC
        LOCFRAME DOVERLAY, 0, STATIC
        ARGFRAME ISTACK, 0, STACK
        ARGFRAME PSTACK, 0, STACK
        ARGFRAME XSTACK, 9, STACK
        ARGFRAME IOVERLAY, 0, STATIC
        ARGFRAME DOVERLAY, 0, STATIC
        FUNCALL GwCoord_Init, gw_oled_view_init
        LOCFRAME ISTACK, 0, STACK
        LOCFRAME PSTACK, 0, STACK
        LOCFRAME XSTACK, 9, STACK
        LOCFRAME IOVERLAY, 0, STATIC
        LOCFRAME DOVERLAY, 0, STATIC
        ARGFRAME ISTACK, 0, STACK
        ARGFRAME PSTACK, 0, STACK
        ARGFRAME XSTACK, 9, STACK
        ARGFRAME IOVERLAY, 0, STATIC
        ARGFRAME DOVERLAY, 0, STATIC
        FUNCALL GwCoord_Init, osal_start_reload_timer
        LOCFRAME ISTACK, 0, STACK
        LOCFRAME PSTACK, 0, STACK
        LOCFRAME XSTACK, 9, STACK
        LOCFRAME IOVERLAY, 0, STATIC
        LOCFRAME DOVERLAY, 0, STATIC
        ARGFRAME ISTACK, 0, STACK
        ARGFRAME PSTACK, 0, STACK
        ARGFRAME XSTACK, 9, STACK
        ARGFRAME IOVERLAY, 0, STATIC
        ARGFRAME DOVERLAY, 0, STATIC
        FUNCALL GwCoord_Init, HalLedSet
        LOCFRAME ISTACK, 0, STACK
        LOCFRAME PSTACK, 0, STACK
        LOCFRAME XSTACK, 9, STACK
        LOCFRAME IOVERLAY, 0, STATIC
        LOCFRAME DOVERLAY, 0, STATIC
        ARGFRAME ISTACK, 0, STACK
        ARGFRAME PSTACK, 0, STACK
        ARGFRAME XSTACK, 9, STACK
        ARGFRAME IOVERLAY, 0, STATIC
        ARGFRAME DOVERLAY, 0, STATIC
        FUNCALL GwCoord_Init, HalLedSet
        LOCFRAME ISTACK, 0, STACK
        LOCFRAME PSTACK, 0, STACK
        LOCFRAME XSTACK, 9, STACK
        LOCFRAME IOVERLAY, 0, STATIC
        LOCFRAME DOVERLAY, 0, STATIC
        ARGFRAME ISTACK, 0, STACK
        ARGFRAME PSTACK, 0, STACK
        ARGFRAME XSTACK, 9, STACK
        ARGFRAME IOVERLAY, 0, STATIC
        ARGFRAME DOVERLAY, 0, STATIC
        FUNCALL GwCoord_Init, gw_oled_view_refresh
        LOCFRAME ISTACK, 0, STACK
        LOCFRAME PSTACK, 0, STACK
        LOCFRAME XSTACK, 9, STACK
        LOCFRAME IOVERLAY, 0, STATIC
        LOCFRAME DOVERLAY, 0, STATIC
        ARGFRAME ISTACK, 0, STACK
        ARGFRAME PSTACK, 0, STACK
        ARGFRAME XSTACK, 9, STACK
        ARGFRAME IOVERLAY, 0, STATIC
        ARGFRAME DOVERLAY, 0, STATIC
        MOV     A,#-0x9
        LCALL   ?BANKED_ENTER_XDATA
        CFI DPH0 load(1, XDATA, add(CFA_XSP16, literal(-1)))
        CFI DPL0 load(1, XDATA, add(CFA_XSP16, literal(-2)))
        CFI ?BRET_EXT load(1, XDATA, add(CFA_XSP16, literal(-3)))
        CFI ?RET_HIGH load(1, XDATA, add(CFA_XSP16, literal(-4)))
        CFI ?RET_LOW load(1, XDATA, add(CFA_XSP16, literal(-5)))
        CFI R7 load(1, XDATA, add(CFA_XSP16, literal(-6)))
        CFI V0 load(1, XDATA, add(CFA_XSP16, literal(-7)))
        CFI VB load(1, XDATA, add(CFA_XSP16, literal(-8)))
        CFI R6 load(1, XDATA, add(CFA_XSP16, literal(-9)))
        CFI CFA_SP SP+0
        CFI CFA_XSP16 add(XSP16, 9)
        ; Saved register size: 9
        ; Auto size: 0
        MOV     A,R1
//  111     GwCoord_TaskID = task_id;
        MOV     DPTR,#GwCoord_TaskID
        MOVX    @DPTR,A
//  112 
//  113     s_simpleDesc.EndPoint           = GWCOORD_ENDPOINT;
        MOV     DPTR,#s_simpleDesc
        MOV     A,#0x1
        MOVX    @DPTR,A
//  114     s_simpleDesc.AppProfId          = GWCOORD_PROFILE_ID;
        INC     DPTR
        MOV     A,#0x4
        MOVX    @DPTR,A
        INC     DPTR
        MOV     A,#0x1
        MOVX    @DPTR,A
//  115     s_simpleDesc.AppDeviceId        = GWCOORD_DEVICE_ID;
        INC     DPTR
        CLR     A
        MOVX    @DPTR,A
        INC     DPTR
        MOVX    @DPTR,A
//  116     s_simpleDesc.AppDevVer          = GWCOORD_DEVICE_VERSION;
//  117     s_simpleDesc.Reserved           = 0;
        INC     DPTR
        INC     A
        MOVX    @DPTR,A
//  118     s_simpleDesc.AppNumInClusters   = GWCOORD_CLUSTERS_MAX;
        INC     DPTR
        MOV     A,#0x4
        MOVX    @DPTR,A
//  119     s_simpleDesc.pAppInClusterList  = s_inClusters;
        INC     DPTR
        MOV     A,#s_inClusters & 0xff
        MOVX    @DPTR,A
        INC     DPTR
        MOV     A,#(s_inClusters >> 8) & 0xff
        MOVX    @DPTR,A
//  120     s_simpleDesc.AppNumOutClusters  = 1;
        INC     DPTR
        MOV     A,#0x1
        MOVX    @DPTR,A
//  121     s_simpleDesc.pAppOutClusterList = s_outClusters;
        INC     DPTR
        MOV     A,#s_outClusters & 0xff
        MOVX    @DPTR,A
        INC     DPTR
        MOV     A,#(s_outClusters >> 8) & 0xff
        MOVX    @DPTR,A
//  122 
//  123     s_epDesc.endPoint   = GWCOORD_ENDPOINT;
        MOV     DPTR,#s_epDesc
        MOV     A,#0x1
        MOVX    @DPTR,A
//  124     s_epDesc.task_id    = &GwCoord_TaskID;
        INC     DPTR
        MOV     A,#GwCoord_TaskID & 0xff
        MOVX    @DPTR,A
        INC     DPTR
        MOV     A,#(GwCoord_TaskID >> 8) & 0xff
        MOVX    @DPTR,A
//  125     s_epDesc.simpleDesc = &s_simpleDesc;
        INC     DPTR
        MOV     A,#s_simpleDesc & 0xff
        MOVX    @DPTR,A
        INC     DPTR
        MOV     A,#(s_simpleDesc >> 8) & 0xff
        MOVX    @DPTR,A
//  126     s_epDesc.latencyReq = noLatencyReqs;
        INC     DPTR
        CLR     A
        MOVX    @DPTR,A
//  127     afRegister(&s_epDesc);
        ; Setup parameters for call to function afRegister
        MOV     R2,#s_epDesc & 0xff
        MOV     R3,#(s_epDesc >> 8) & 0xff
        LCALL   ??afRegister?relay
//  128 
//  129     ZDO_RegisterForZDOMsg(GwCoord_TaskID, Device_annce);
        ; Setup parameters for call to function ZDO_RegisterForZDOMsg
        MOV     R2,#0x13
        MOV     R3,#0x0
        MOV     DPTR,#GwCoord_TaskID
        MOVX    A,@DPTR
        MOV     R1,A
        LCALL   ??ZDO_RegisterForZDOMsg?relay
//  130 
//  131     zb_net_init();
        ; Setup parameters for call to function zb_net_init
        LCALL   ??zb_net_init?relay
//  132     uart_link_init(GwCoord_TaskID);
        ; Setup parameters for call to function uart_link_init
        MOV     DPTR,#GwCoord_TaskID
        MOVX    A,@DPTR
        MOV     R1,A
        LCALL   ??uart_link_init?relay
//  133     gw_oled_view_init();
        ; Setup parameters for call to function gw_oled_view_init
        LCALL   ??gw_oled_view_init?relay
//  134 
//  135     (void)osal_start_reload_timer(GwCoord_TaskID, GW_EVT_HEARTBEAT, 1000);
        ; Setup parameters for call to function osal_start_reload_timer
        MOV     R4,#-0x18
        MOV     R5,#0x3
        MOV     R2,#0x2
        MOV     R3,#0x0
        MOV     DPTR,#GwCoord_TaskID
        MOVX    A,@DPTR
        MOV     R1,A
        LCALL   ??osal_start_reload_timer?relay
//  136 
//  137     HalLedSet(HAL_LED_1, HAL_LED_MODE_OFF);
        ; Setup parameters for call to function HalLedSet
        MOV     R2,#0x0
        MOV     R1,#0x1
        LCALL   ??HalLedSet?relay
//  138     HalLedSet(HAL_LED_2, HAL_LED_MODE_OFF);
        ; Setup parameters for call to function HalLedSet
        MOV     R2,#0x0
        MOV     R1,#0x2
        LCALL   ??HalLedSet?relay
//  139     GwCoord_RefreshLocalDisplay();
        ; Setup parameters for call to function gw_oled_view_refresh
        LCALL   ??gw_oled_view_refresh?relay
//  140 }
        LJMP    ?Subroutine1 & 0xFFFF
        CFI EndBlock cfiBlock8
//  141 

        RSEG BANKED_CODE:CODE:NOROOT(0)
//  142 UINT16 GwCoord_ProcessEvent(uint8 task_id, uint16 events)
GwCoord_ProcessEvent:
        CFI Block cfiBlock9 Using cfiCommon0
        CFI Function GwCoord_ProcessEvent
        CODE
//  143 {
        FUNCALL GwCoord_ProcessEvent, uart_link_drain
        LOCFRAME ISTACK, 0, STACK
        LOCFRAME PSTACK, 0, STACK
        LOCFRAME XSTACK, 23, STACK
        LOCFRAME IOVERLAY, 0, STATIC
        LOCFRAME DOVERLAY, 0, STATIC
        ARGFRAME ISTACK, 0, STACK
        ARGFRAME PSTACK, 0, STACK
        ARGFRAME XSTACK, 23, STACK
        ARGFRAME IOVERLAY, 0, STATIC
        ARGFRAME DOVERLAY, 0, STATIC
        FUNCALL GwCoord_ProcessEvent, GwCoord_SendErr
        LOCFRAME ISTACK, 0, STACK
        LOCFRAME PSTACK, 0, STACK
        LOCFRAME XSTACK, 23, STACK
        LOCFRAME IOVERLAY, 0, STATIC
        LOCFRAME DOVERLAY, 0, STATIC
        ARGFRAME ISTACK, 0, STACK
        ARGFRAME PSTACK, 0, STACK
        ARGFRAME XSTACK, 23, STACK
        ARGFRAME IOVERLAY, 0, STATIC
        ARGFRAME DOVERLAY, 0, STATIC
        FUNCALL GwCoord_ProcessEvent, osal_msg_deallocate
        LOCFRAME ISTACK, 0, STACK
        LOCFRAME PSTACK, 0, STACK
        LOCFRAME XSTACK, 23, STACK
        LOCFRAME IOVERLAY, 0, STATIC
        LOCFRAME DOVERLAY, 0, STATIC
        ARGFRAME ISTACK, 0, STACK
        ARGFRAME PSTACK, 0, STACK
        ARGFRAME XSTACK, 23, STACK
        ARGFRAME IOVERLAY, 0, STATIC
        ARGFRAME DOVERLAY, 0, STATIC
        FUNCALL GwCoord_ProcessEvent, osal_msg_receive
        LOCFRAME ISTACK, 0, STACK
        LOCFRAME PSTACK, 0, STACK
        LOCFRAME XSTACK, 23, STACK
        LOCFRAME IOVERLAY, 0, STATIC
        LOCFRAME DOVERLAY, 0, STATIC
        ARGFRAME ISTACK, 0, STACK
        ARGFRAME PSTACK, 0, STACK
        ARGFRAME XSTACK, 23, STACK
        ARGFRAME IOVERLAY, 0, STATIC
        ARGFRAME DOVERLAY, 0, STATIC
        FUNCALL GwCoord_ProcessEvent, zb_net_on_state
        LOCFRAME ISTACK, 0, STACK
        LOCFRAME PSTACK, 0, STACK
        LOCFRAME XSTACK, 23, STACK
        LOCFRAME IOVERLAY, 0, STATIC
        LOCFRAME DOVERLAY, 0, STATIC
        ARGFRAME ISTACK, 0, STACK
        ARGFRAME PSTACK, 0, STACK
        ARGFRAME XSTACK, 23, STACK
        ARGFRAME IOVERLAY, 0, STATIC
        ARGFRAME DOVERLAY, 0, STATIC
        FUNCALL GwCoord_ProcessEvent, HalLedSet
        LOCFRAME ISTACK, 0, STACK
        LOCFRAME PSTACK, 0, STACK
        LOCFRAME XSTACK, 23, STACK
        LOCFRAME IOVERLAY, 0, STATIC
        LOCFRAME DOVERLAY, 0, STATIC
        ARGFRAME ISTACK, 0, STACK
        ARGFRAME PSTACK, 0, STACK
        ARGFRAME XSTACK, 23, STACK
        ARGFRAME IOVERLAY, 0, STATIC
        ARGFRAME DOVERLAY, 0, STATIC
        FUNCALL GwCoord_ProcessEvent, gw_oled_view_refresh
        LOCFRAME ISTACK, 0, STACK
        LOCFRAME PSTACK, 0, STACK
        LOCFRAME XSTACK, 23, STACK
        LOCFRAME IOVERLAY, 0, STATIC
        LOCFRAME DOVERLAY, 0, STATIC
        ARGFRAME ISTACK, 0, STACK
        ARGFRAME PSTACK, 0, STACK
        ARGFRAME XSTACK, 23, STACK
        ARGFRAME IOVERLAY, 0, STATIC
        ARGFRAME DOVERLAY, 0, STATIC
        FUNCALL GwCoord_ProcessEvent, ZDO_ParseDeviceAnnce
        LOCFRAME ISTACK, 0, STACK
        LOCFRAME PSTACK, 0, STACK
        LOCFRAME XSTACK, 23, STACK
        LOCFRAME IOVERLAY, 0, STATIC
        LOCFRAME DOVERLAY, 0, STATIC
        ARGFRAME ISTACK, 0, STACK
        ARGFRAME PSTACK, 0, STACK
        ARGFRAME XSTACK, 23, STACK
        ARGFRAME IOVERLAY, 0, STATIC
        ARGFRAME DOVERLAY, 0, STATIC
        FUNCALL GwCoord_ProcessEvent, zb_net_touch
        LOCFRAME ISTACK, 0, STACK
        LOCFRAME PSTACK, 0, STACK
        LOCFRAME XSTACK, 24, STACK
        LOCFRAME IOVERLAY, 0, STATIC
        LOCFRAME DOVERLAY, 0, STATIC
        ARGFRAME ISTACK, 0, STACK
        ARGFRAME PSTACK, 0, STACK
        ARGFRAME XSTACK, 24, STACK
        ARGFRAME IOVERLAY, 0, STATIC
        ARGFRAME DOVERLAY, 0, STATIC
        FUNCALL GwCoord_ProcessEvent, GwCoord_SendNodeInfo
        LOCFRAME ISTACK, 0, STACK
        LOCFRAME PSTACK, 0, STACK
        LOCFRAME XSTACK, 23, STACK
        LOCFRAME IOVERLAY, 0, STATIC
        LOCFRAME DOVERLAY, 0, STATIC
        ARGFRAME ISTACK, 0, STACK
        ARGFRAME PSTACK, 0, STACK
        ARGFRAME XSTACK, 23, STACK
        ARGFRAME IOVERLAY, 0, STATIC
        ARGFRAME DOVERLAY, 0, STATIC
        FUNCALL GwCoord_ProcessEvent, GwCoord_SendNetStatus
        LOCFRAME ISTACK, 0, STACK
        LOCFRAME PSTACK, 0, STACK
        LOCFRAME XSTACK, 23, STACK
        LOCFRAME IOVERLAY, 0, STATIC
        LOCFRAME DOVERLAY, 0, STATIC
        ARGFRAME ISTACK, 0, STACK
        ARGFRAME PSTACK, 0, STACK
        ARGFRAME XSTACK, 23, STACK
        ARGFRAME IOVERLAY, 0, STATIC
        ARGFRAME DOVERLAY, 0, STATIC
        FUNCALL GwCoord_ProcessEvent, gw_oled_view_refresh
        LOCFRAME ISTACK, 0, STACK
        LOCFRAME PSTACK, 0, STACK
        LOCFRAME XSTACK, 23, STACK
        LOCFRAME IOVERLAY, 0, STATIC
        LOCFRAME DOVERLAY, 0, STATIC
        ARGFRAME ISTACK, 0, STACK
        ARGFRAME PSTACK, 0, STACK
        ARGFRAME XSTACK, 23, STACK
        ARGFRAME IOVERLAY, 0, STATIC
        ARGFRAME DOVERLAY, 0, STATIC
        FUNCALL GwCoord_ProcessEvent, HalLedSet
        LOCFRAME ISTACK, 0, STACK
        LOCFRAME PSTACK, 0, STACK
        LOCFRAME XSTACK, 23, STACK
        LOCFRAME IOVERLAY, 0, STATIC
        LOCFRAME DOVERLAY, 0, STATIC
        ARGFRAME ISTACK, 0, STACK
        ARGFRAME PSTACK, 0, STACK
        ARGFRAME XSTACK, 23, STACK
        ARGFRAME IOVERLAY, 0, STATIC
        ARGFRAME DOVERLAY, 0, STATIC
        FUNCALL GwCoord_ProcessEvent, af_to_zb_report
        LOCFRAME ISTACK, 0, STACK
        LOCFRAME PSTACK, 0, STACK
        LOCFRAME XSTACK, 23, STACK
        LOCFRAME IOVERLAY, 0, STATIC
        LOCFRAME DOVERLAY, 0, STATIC
        ARGFRAME ISTACK, 0, STACK
        ARGFRAME PSTACK, 0, STACK
        ARGFRAME XSTACK, 23, STACK
        ARGFRAME IOVERLAY, 0, STATIC
        ARGFRAME DOVERLAY, 0, STATIC
        FUNCALL GwCoord_ProcessEvent, osal_GetSystemClock
        LOCFRAME ISTACK, 0, STACK
        LOCFRAME PSTACK, 0, STACK
        LOCFRAME XSTACK, 23, STACK
        LOCFRAME IOVERLAY, 0, STATIC
        LOCFRAME DOVERLAY, 0, STATIC
        ARGFRAME ISTACK, 0, STACK
        ARGFRAME PSTACK, 0, STACK
        ARGFRAME XSTACK, 23, STACK
        ARGFRAME IOVERLAY, 0, STATIC
        ARGFRAME DOVERLAY, 0, STATIC
        FUNCALL GwCoord_ProcessEvent, zb_net_tick
        LOCFRAME ISTACK, 0, STACK
        LOCFRAME PSTACK, 0, STACK
        LOCFRAME XSTACK, 23, STACK
        LOCFRAME IOVERLAY, 0, STATIC
        LOCFRAME DOVERLAY, 0, STATIC
        ARGFRAME ISTACK, 0, STACK
        ARGFRAME PSTACK, 0, STACK
        ARGFRAME XSTACK, 23, STACK
        ARGFRAME IOVERLAY, 0, STATIC
        ARGFRAME DOVERLAY, 0, STATIC
        FUNCALL GwCoord_ProcessEvent, gw_oled_view_refresh
        LOCFRAME ISTACK, 0, STACK
        LOCFRAME PSTACK, 0, STACK
        LOCFRAME XSTACK, 23, STACK
        LOCFRAME IOVERLAY, 0, STATIC
        LOCFRAME DOVERLAY, 0, STATIC
        ARGFRAME ISTACK, 0, STACK
        ARGFRAME PSTACK, 0, STACK
        ARGFRAME XSTACK, 23, STACK
        ARGFRAME IOVERLAY, 0, STATIC
        ARGFRAME DOVERLAY, 0, STATIC
        MOV     A,#-0xc
        LCALL   ?BANKED_ENTER_XDATA
        CFI DPH0 load(1, XDATA, add(CFA_XSP16, literal(-1)))
        CFI DPL0 load(1, XDATA, add(CFA_XSP16, literal(-2)))
        CFI ?BRET_EXT load(1, XDATA, add(CFA_XSP16, literal(-3)))
        CFI ?RET_HIGH load(1, XDATA, add(CFA_XSP16, literal(-4)))
        CFI ?RET_LOW load(1, XDATA, add(CFA_XSP16, literal(-5)))
        CFI R7 load(1, XDATA, add(CFA_XSP16, literal(-6)))
        CFI V3 load(1, XDATA, add(CFA_XSP16, literal(-7)))
        CFI V2 load(1, XDATA, add(CFA_XSP16, literal(-8)))
        CFI V1 load(1, XDATA, add(CFA_XSP16, literal(-9)))
        CFI V0 load(1, XDATA, add(CFA_XSP16, literal(-10)))
        CFI VB load(1, XDATA, add(CFA_XSP16, literal(-11)))
        CFI R6 load(1, XDATA, add(CFA_XSP16, literal(-12)))
        CFI CFA_SP SP+0
        CFI CFA_XSP16 add(XSP16, 12)
        ; Saved register size: 12
        ; Auto size: 11
        MOV     A,#-0xb
        LCALL   ?ALLOC_XSTACK8
        CFI CFA_XSP16 add(XSP16, 23)
        MOV     A,R2
        MOV     R6,A
        MOV     A,R3
        MOV     R7,A
//  144     afIncomingMSGPacket_t *MSGpkt;
//  145 
//  146     (void)task_id;
//  147 
//  148     if (events & SYS_EVENT_MSG) {
        ANL     A,#0x80
        JNZ     ??GwCoord_ProcessEvent_0
//  149         while ((MSGpkt = (afIncomingMSGPacket_t *)osal_msg_receive(GwCoord_TaskID)) != 0) {
//  150             switch (MSGpkt->hdr.event) {
//  151             case ZDO_STATE_CHANGE:
//  152                 on_zdo_state_change((uint8)devState);
//  153                 break;
//  154 
//  155             case ZDO_CB_MSG:
//  156                 on_zdo_cb_msg((zdoIncomingMsg_t *)MSGpkt);
//  157                 break;
//  158 
//  159             case AF_INCOMING_MSG_CMD:
//  160                 on_af_incoming(MSGpkt);
//  161                 break;
//  162 
//  163             case AF_DATA_CONFIRM_CMD:
//  164                 on_af_data_confirm((afDataConfirm_t *)MSGpkt);
//  165                 break;
//  166 
//  167             default:
//  168                 break;
//  169             }
//  170             osal_msg_deallocate((uint8 *)MSGpkt);
//  171         }
//  172         return (events ^ SYS_EVENT_MSG);
//  173     }
//  174 
//  175     if (events & GW_EVT_UART_RX) {
        MOV     A,R6
        MOV     C,0xE0 /* A   */.0
        JC      $+5
        LJMP    ??GwCoord_ProcessEvent_1 & 0xFFFF
//  176         uart_link_drain();
        ; Setup parameters for call to function uart_link_drain
        LCALL   ??uart_link_drain?relay
//  177         return (events ^ GW_EVT_UART_RX);
        MOV     A,R6
        XRL     A,#0x1
??GwCoord_ProcessEvent_2:
        MOV     R2,A
        MOV     A,R7
??GwCoord_ProcessEvent_3:
        MOV     R3,A
        LJMP    ??GwCoord_ProcessEvent_4 & 0xFFFF
//  178     }
??GwCoord_ProcessEvent_5:
        INC     DPTR
        MOVX    A,@DPTR
        JZ      ??GwCoord_ProcessEvent_6
        ; Setup parameters for call to function GwCoord_SendErr
        MOV     DPL,R2
        MOV     DPH,R3
        INC     DPTR
        INC     DPTR
        INC     DPTR
        MOVX    A,@DPTR
        MOV     R2,A
        MOV     R1,#0x10
        LCALL   ??GwCoord_SendErr?relay
??GwCoord_ProcessEvent_6:
        ; Setup parameters for call to function osal_msg_deallocate
        MOV     R2,?V0 + 0
        MOV     R3,?V0 + 1
        LCALL   ??osal_msg_deallocate?relay
??GwCoord_ProcessEvent_0:
        ; Setup parameters for call to function osal_msg_receive
        MOV     DPTR,#GwCoord_TaskID
        MOVX    A,@DPTR
        MOV     R1,A
        LCALL   ??osal_msg_receive?relay
        MOV     ?V0 + 0,R2
        MOV     ?V0 + 1,R3
        MOV     A,R2
        ORL     A,?V0 + 1
        JNZ     $+5
        LJMP    ??GwCoord_ProcessEvent_7 & 0xFFFF
        MOV     DPL,R2
        MOV     DPH,R3
        MOVX    A,@DPTR
        ADD     A,#-0x1a
        JNZ     $+5
        LJMP    ??GwCoord_ProcessEvent_8 & 0xFFFF
        ADD     A,#0x49
        JZ      ??GwCoord_ProcessEvent_9
        ADD     A,#-0x2
        JZ      ??GwCoord_ProcessEvent_10
        ADD     A,#-0x2a
        JZ      ??GwCoord_ProcessEvent_5
        SJMP    ??GwCoord_ProcessEvent_6
??GwCoord_ProcessEvent_9:
        MOV     DPTR,#devState
        MOVX    A,@DPTR
        MOV     ?V0 + 2,A
        ; Setup parameters for call to function zb_net_on_state
        MOV     DPTR,#_NIB + 22
        MOVX    A,@DPTR
        MOV     R4,A
        MOV     DPTR,#_NIB + 33
        MOVX    A,@DPTR
        MOV     R2,A
        INC     DPTR
        MOVX    A,@DPTR
        MOV     R3,A
        MOV     R1,?V0 + 2
        LCALL   ??zb_net_on_state?relay
        MOV     A,#0x9
        XRL     A,?V0 + 2
        JNZ     ??GwCoord_ProcessEvent_11
        ; Setup parameters for call to function HalLedSet
        MOV     R2,#0x1
        MOV     R1,#0x1
        LCALL   ??HalLedSet?relay
??GwCoord_ProcessEvent_11:
        ; Setup parameters for call to function gw_oled_view_refresh
        LCALL   ??gw_oled_view_refresh?relay
        SJMP    ??GwCoord_ProcessEvent_6
??GwCoord_ProcessEvent_10:
        MOV     A,R2
        ADD     A,#0xc
        MOV     DPL,A
        MOV     A,R3
        LCALL   ??Subroutine7_0 & 0xFFFF
??CrossCallReturnLabel_7:
        XRL     A,#0x13
        JNZ     ??GwCoord_ProcessEvent_12
        INC     DPTR
        MOVX    A,@DPTR
??GwCoord_ProcessEvent_12:
        JNZ     ??GwCoord_ProcessEvent_6
        ; Setup parameters for call to function ZDO_ParseDeviceAnnce
        MOV     DPL,?XSP + 0
        MOV     DPH,?XSP + 1
        MOV     R4,DPL
        MOV     R5,DPH
        LCALL   ??ZDO_ParseDeviceAnnce?relay
        MOV     A,#0xa
        LCALL   ?XSTACK_DISP0_8
        MOVX    A,@DPTR
        MOV     C,0xE0 /* A   */.1
        JNC     ??GwCoord_ProcessEvent_13
        MOV     R1,#0x1
        SJMP    ??GwCoord_ProcessEvent_14
??GwCoord_ProcessEvent_13:
        MOV     R1,#0x2
??GwCoord_ProcessEvent_14:
        ; Setup parameters for call to function zb_net_touch
        MOV     ?V0 + 2,#0x0
        MOV     R0,#?V0 + 2
        LCALL   ?PUSH_XSTACK_I_ONE
        CFI CFA_XSP16 add(XSP16, 24)
        MOV     A,#0x3
        LCALL   ?XSTACK_DISP0_8
        MOV     R4,DPL
        MOV     R5,DPH
        MOV     A,#0x1
        LCALL   ?XSTACK_DISP0_8
        LCALL   ?Subroutine4 & 0xFFFF
??CrossCallReturnLabel_4:
        LCALL   ?DEALLOC_XSTACK8
        CFI CFA_XSP16 add(XSP16, 23)
        MOV     A,R2
        ORL     A,R3
        JNZ     $+5
        LJMP    ??GwCoord_ProcessEvent_6 & 0xFFFF
        ; Setup parameters for call to function GwCoord_SendNodeInfo
        LCALL   ??GwCoord_SendNodeInfo?relay
        ; Setup parameters for call to function GwCoord_SendNetStatus
        LCALL   ??GwCoord_SendNetStatus?relay
        ; Setup parameters for call to function gw_oled_view_refresh
        SJMP    ??GwCoord_ProcessEvent_11
??GwCoord_ProcessEvent_8:
        ; Setup parameters for call to function HalLedSet
        MOV     R2,#0x2
        MOV     R1,#0x2
        LCALL   ??HalLedSet?relay
        ; Setup parameters for call to function af_to_zb_report
        MOV     R2,?V0 + 0
        MOV     R3,?V0 + 1
        LCALL   ??af_to_zb_report?relay
        LJMP    ??GwCoord_ProcessEvent_6 & 0xFFFF
??GwCoord_ProcessEvent_7:
        MOV     A,R6
        MOV     R2,A
        MOV     A,R7
        XRL     A,#0x80
        LJMP    ??GwCoord_ProcessEvent_3 & 0xFFFF
//  179 
//  180     if (events & GW_EVT_HEARTBEAT) {
??GwCoord_ProcessEvent_1:
        ANL     A,#0x2
        JZ      ??GwCoord_ProcessEvent_15
//  181         zb_net_tick(osal_GetSystemClock());
        ; Setup parameters for call to function zb_net_tick
        ; Setup parameters for call to function osal_GetSystemClock
        LCALL   ??osal_GetSystemClock?relay
        LCALL   ??zb_net_tick?relay
//  182         GwCoord_RefreshLocalDisplay();
        ; Setup parameters for call to function gw_oled_view_refresh
        LCALL   ??gw_oled_view_refresh?relay
//  183         return (events ^ GW_EVT_HEARTBEAT);
        MOV     A,R6
        XRL     A,#0x2
        LJMP    ??GwCoord_ProcessEvent_2 & 0xFFFF
//  184     }
//  185 
//  186     if (events & GW_EVT_JOIN_TMO) {
??GwCoord_ProcessEvent_15:
        MOV     A,R6
        ANL     A,#0x4
        JZ      ??GwCoord_ProcessEvent_16
//  187         return (events ^ GW_EVT_JOIN_TMO);
        MOV     A,R6
        XRL     A,#0x4
        MOV     R2,A
        SJMP    ??GwCoord_ProcessEvent_4
//  188     }
//  189 
//  190     return 0;
??GwCoord_ProcessEvent_16:
        MOV     R2,#0x0
        MOV     R3,#0x0
??GwCoord_ProcessEvent_4:
        MOV     A,#0xb
        LCALL   ?DEALLOC_XSTACK8
        CFI CFA_XSP16 add(XSP16, 12)
        MOV     R7,#0x4
        LJMP    ?BANKED_LEAVE_XDATA
        CFI EndBlock cfiBlock9
//  191 }
//  192 
//  193 static void on_zdo_state_change(uint8 state)
//  194 {
//  195     uint16 panid;
//  196     uint8 channel;
//  197 
//  198     panid = _NIB.nwkPanId;
//  199     channel = _NIB.nwkLogicalChannel;
//  200     zb_net_on_state(state, panid, channel);
//  201 
//  202     if (state == DEV_ZB_COORD) {
//  203         HalLedSet(HAL_LED_1, HAL_LED_MODE_ON);
//  204     }
//  205     GwCoord_RefreshLocalDisplay();
//  206 }
//  207 
//  208 static void on_zdo_cb_msg(zdoIncomingMsg_t *inMsg)
//  209 {
//  210     if (inMsg->clusterID == Device_annce) {
//  211         ZDO_DeviceAnnce_t annce;
//  212         zb_node_t *node;
//  213 
//  214         ZDO_ParseDeviceAnnce(inMsg, &annce);
//  215         node = zb_net_touch(annce.nwkAddr, annce.extAddr,
//  216                             device_type_from_capabilities(annce.capabilities), 0);
//  217         if (node != 0) {
//  218             GwCoord_SendNodeInfo(node);
//  219             GwCoord_SendNetStatus();
//  220             GwCoord_RefreshLocalDisplay();
//  221         }
//  222     }
//  223 }
//  224 
//  225 static void on_af_data_confirm(afDataConfirm_t *cfm)
//  226 {
//  227     if (cfm->hdr.status != ZSuccess) {
//  228         GwCoord_SendErr(ERRC_SEND_FAIL, cfm->transID);
//  229     }
//  230 }
//  231 

        RSEG BANKED_CODE:CODE:NOROOT(0)
//  232 static void af_to_zb_report(afIncomingMSGPacket_t *pkt)
af_to_zb_report:
        CFI Block cfiBlock10 Using cfiCommon0
        CFI Function af_to_zb_report
        CODE
//  233 {
        FUNCALL af_to_zb_report, zb_net_find
        LOCFRAME ISTACK, 0, STACK
        LOCFRAME PSTACK, 0, STACK
        LOCFRAME XSTACK, 84, STACK
        LOCFRAME IOVERLAY, 0, STATIC
        LOCFRAME DOVERLAY, 0, STATIC
        ARGFRAME ISTACK, 0, STACK
        ARGFRAME PSTACK, 0, STACK
        ARGFRAME XSTACK, 84, STACK
        ARGFRAME IOVERLAY, 0, STATIC
        ARGFRAME DOVERLAY, 0, STATIC
        FUNCALL af_to_zb_report, zb_net_touch
        LOCFRAME ISTACK, 0, STACK
        LOCFRAME PSTACK, 0, STACK
        LOCFRAME XSTACK, 85, STACK
        LOCFRAME IOVERLAY, 0, STATIC
        LOCFRAME DOVERLAY, 0, STATIC
        ARGFRAME ISTACK, 0, STACK
        ARGFRAME PSTACK, 0, STACK
        ARGFRAME XSTACK, 85, STACK
        ARGFRAME IOVERLAY, 0, STATIC
        ARGFRAME DOVERLAY, 0, STATIC
        FUNCALL af_to_zb_report, osal_memcpy
        LOCFRAME ISTACK, 0, STACK
        LOCFRAME PSTACK, 0, STACK
        LOCFRAME XSTACK, 87, STACK
        LOCFRAME IOVERLAY, 0, STATIC
        LOCFRAME DOVERLAY, 0, STATIC
        ARGFRAME ISTACK, 0, STACK
        ARGFRAME PSTACK, 0, STACK
        ARGFRAME XSTACK, 87, STACK
        ARGFRAME IOVERLAY, 0, STATIC
        ARGFRAME DOVERLAY, 0, STATIC
        FUNCALL af_to_zb_report, GwCoord_SendFrame
        LOCFRAME ISTACK, 0, STACK
        LOCFRAME PSTACK, 0, STACK
        LOCFRAME XSTACK, 84, STACK
        LOCFRAME IOVERLAY, 0, STATIC
        LOCFRAME DOVERLAY, 0, STATIC
        ARGFRAME ISTACK, 0, STACK
        ARGFRAME PSTACK, 0, STACK
        ARGFRAME XSTACK, 84, STACK
        ARGFRAME IOVERLAY, 0, STATIC
        ARGFRAME DOVERLAY, 0, STATIC
        FUNCALL af_to_zb_report, GwCoord_SendNodeInfo
        LOCFRAME ISTACK, 0, STACK
        LOCFRAME PSTACK, 0, STACK
        LOCFRAME XSTACK, 84, STACK
        LOCFRAME IOVERLAY, 0, STATIC
        LOCFRAME DOVERLAY, 0, STATIC
        ARGFRAME ISTACK, 0, STACK
        ARGFRAME PSTACK, 0, STACK
        ARGFRAME XSTACK, 84, STACK
        ARGFRAME IOVERLAY, 0, STATIC
        ARGFRAME DOVERLAY, 0, STATIC
        FUNCALL af_to_zb_report, gw_oled_view_refresh
        LOCFRAME ISTACK, 0, STACK
        LOCFRAME PSTACK, 0, STACK
        LOCFRAME XSTACK, 84, STACK
        LOCFRAME IOVERLAY, 0, STATIC
        LOCFRAME DOVERLAY, 0, STATIC
        ARGFRAME ISTACK, 0, STACK
        ARGFRAME PSTACK, 0, STACK
        ARGFRAME XSTACK, 84, STACK
        ARGFRAME IOVERLAY, 0, STATIC
        ARGFRAME DOVERLAY, 0, STATIC
        MOV     A,#-0x13
        LCALL   ?BANKED_ENTER_XDATA
        CFI DPH0 load(1, XDATA, add(CFA_XSP16, literal(-1)))
        CFI DPL0 load(1, XDATA, add(CFA_XSP16, literal(-2)))
        CFI ?BRET_EXT load(1, XDATA, add(CFA_XSP16, literal(-3)))
        CFI ?RET_HIGH load(1, XDATA, add(CFA_XSP16, literal(-4)))
        CFI ?RET_LOW load(1, XDATA, add(CFA_XSP16, literal(-5)))
        CFI R7 load(1, XDATA, add(CFA_XSP16, literal(-6)))
        CFI V10 load(1, XDATA, add(CFA_XSP16, literal(-7)))
        CFI V9 load(1, XDATA, add(CFA_XSP16, literal(-8)))
        CFI V8 load(1, XDATA, add(CFA_XSP16, literal(-9)))
        CFI V7 load(1, XDATA, add(CFA_XSP16, literal(-10)))
        CFI V6 load(1, XDATA, add(CFA_XSP16, literal(-11)))
        CFI V5 load(1, XDATA, add(CFA_XSP16, literal(-12)))
        CFI V4 load(1, XDATA, add(CFA_XSP16, literal(-13)))
        CFI V3 load(1, XDATA, add(CFA_XSP16, literal(-14)))
        CFI V2 load(1, XDATA, add(CFA_XSP16, literal(-15)))
        CFI V1 load(1, XDATA, add(CFA_XSP16, literal(-16)))
        CFI V0 load(1, XDATA, add(CFA_XSP16, literal(-17)))
        CFI VB load(1, XDATA, add(CFA_XSP16, literal(-18)))
        CFI R6 load(1, XDATA, add(CFA_XSP16, literal(-19)))
        CFI CFA_SP SP+0
        CFI CFA_XSP16 add(XSP16, 19)
        ; Saved register size: 19
        ; Auto size: 65
        MOV     A,#-0x41
        LCALL   ?ALLOC_XSTACK8
        CFI CFA_XSP16 add(XSP16, 84)
        MOV     A,R2
        MOV     R6,A
        MOV     A,R3
        MOV     R7,A
//  234     uint8 *zcl;
//  235     uint8 zlen;
//  236     uint8 cmd;
//  237     uint8 dtype;
//  238     uint8 vlen;
//  239     const uint8 *val;
//  240     uint8 out[FRAME_PAYLOAD_MAX];
//  241     uint8 *p;
//  242     zb_node_t *node;
//  243     zb_node_t *existing;
//  244     uint8 role;
//  245     uint8 role_changed = 0;
        MOV     ?V0 + 6,#0x0
//  246     uint8 online_changed = 0;
        MOV     ?V0 + 7,#0x0
//  247 
//  248     zcl = pkt->cmd.Data;
        MOV     A,R6
        ADD     A,#0x22
        LCALL   ??Subroutine6_0 & 0xFFFF
??CrossCallReturnLabel_13:
        MOV     R0,A
        INC     DPTR
        MOVX    A,@DPTR
        MOV     R1,A
//  249     zlen = pkt->cmd.DataLength;
        MOV     A,R6
        ADD     A,#0x20
        LCALL   ??Subroutine6_0 & 0xFFFF
??CrossCallReturnLabel_14:
        MOV     R2,A
//  250     if (zlen < 6u) {
        CLR     C
        SUBB    A,#0x6
        JNC     $+5
        LJMP    ??af_to_zb_report_0 & 0xFFFF
//  251         return;
//  252     }
//  253 
//  254     cmd = zcl[2];
//  255     if (cmd != 0x0Au) {
        MOV     DPL,R0
        MOV     DPH,R1
        INC     DPTR
        INC     DPTR
        MOVX    A,@DPTR
        XRL     A,#0xa
        JZ      $+5
        LJMP    ??af_to_zb_report_0 & 0xFFFF
//  256         return;
//  257     }
//  258 
//  259     dtype = zcl[5];
        MOV     DPL,R0
        MOV     DPH,R1
        INC     DPTR
        INC     DPTR
        INC     DPTR
        INC     DPTR
        INC     DPTR
        MOVX    A,@DPTR
        MOV     ?V0 + 5,A
//  260     val = &zcl[6];
        MOV     A,R0
        ADD     A,#0x6
        MOV     ?V0 + 0,A
        MOV     A,R1
        ADDC    A,#0x0
        MOV     ?V0 + 1,A
//  261 
//  262     switch (dtype) {
        MOV     A,?V0 + 5
        DEC     A
        JZ      ??af_to_zb_report_1
        DEC     A
        JZ      ??af_to_zb_report_1
        DEC     A
        JZ      ??af_to_zb_report_1
        ADD     A,#-0xd
        JZ      ??af_to_zb_report_2
        DEC     A
        JZ      ??af_to_zb_report_2
        DEC     A
        JZ      ??af_to_zb_report_3
        ADD     A,#-0xe
        JZ      ??af_to_zb_report_3
        LJMP    ??af_to_zb_report_0 & 0xFFFF
//  263     case DTYPE_BOOL:
//  264     case DTYPE_U8:
//  265     case DTYPE_I8:
//  266         vlen = 1u;
??af_to_zb_report_1:
        MOV     ?V0 + 4,#0x1
//  267         break;
        SJMP    ??af_to_zb_report_4
//  268     case DTYPE_U16:
//  269     case DTYPE_I16:
//  270         vlen = 2u;
??af_to_zb_report_2:
        MOV     ?V0 + 4,#0x2
//  271         break;
        SJMP    ??af_to_zb_report_4
//  272     case DTYPE_U32:
//  273     case DTYPE_I32:
//  274         vlen = 4u;
??af_to_zb_report_3:
        MOV     ?V0 + 4,#0x4
//  275         break;
//  276     default:
//  277         return;
//  278     }
//  279     if ((uint16)(6u + vlen) > zlen) {
??af_to_zb_report_4:
        MOV     A,#0x6
        ADD     A,?V0 + 4
        MOV     R0,A
        MOV     A,R2
        CLR     C
        SUBB    A,R0
        JNC     $+5
        LJMP    ??af_to_zb_report_0 & 0xFFFF
//  280         return;
//  281     }
//  282 
//  283     existing = zb_net_find(pkt->srcAddr.addr.shortAddr);
        ; Setup parameters for call to function zb_net_find
        MOV     DPL,R6
        MOV     DPH,R7
        INC     DPTR
        INC     DPTR
        INC     DPTR
        INC     DPTR
        INC     DPTR
        INC     DPTR
        MOVX    A,@DPTR
        MOV     R2,A
        INC     DPTR
        MOVX    A,@DPTR
        MOV     R3,A
        LCALL   ??zb_net_find?relay
        MOV     ?V0 + 2,R2
        MOV     ?V0 + 3,R3
        MOV     R0,?V0 + 2
        MOV     R1,?V0 + 3
//  284     if (existing == 0 || (existing->flags & 0x01u) == 0u) {
        MOV     A,R0
        ORL     A,R1
        JZ      ??af_to_zb_report_5
        MOV     A,R0
        ADD     A,#0x11
        MOV     DPL,A
        MOV     A,R1
        LCALL   ??Subroutine7_0 & 0xFFFF
??CrossCallReturnLabel_8:
        MOV     C,0xE0 /* A   */.0
        JC      ??af_to_zb_report_6
//  285         online_changed = 1u;
??af_to_zb_report_5:
        MOV     ?V0 + 7,#0x1
//  286     }
//  287     node = zb_net_touch(pkt->srcAddr.addr.shortAddr, 0, ZB_DEV_ENDDEV, (int8)pkt->rssi);
??af_to_zb_report_6:
        ; Setup parameters for call to function zb_net_touch
        MOV     A,R6
        ADD     A,#0x18
        LCALL   ??Subroutine6_0 & 0xFFFF
??CrossCallReturnLabel_15:
        MOV     ?V0 + 2,A
        MOV     R0,#?V0 + 2
        LCALL   ?PUSH_XSTACK_I_ONE
        CFI CFA_XSP16 add(XSP16, 85)
        MOV     R1,#0x2
        MOV     R4,#0x0
        MOV     R5,#0x0
        MOV     DPL,R6
        MOV     DPH,R7
        INC     DPTR
        INC     DPTR
        INC     DPTR
        INC     DPTR
        INC     DPTR
        INC     DPTR
        LCALL   ?Subroutine4 & 0xFFFF
??CrossCallReturnLabel_3:
        LCALL   ?DEALLOC_XSTACK8
        CFI CFA_XSP16 add(XSP16, 84)
        MOV     ?V0 + 2,R2
        MOV     ?V0 + 3,R3
//  288     if (node == 0) {
        MOV     A,R2
        ORL     A,?V0 + 3
        JNZ     $+5
        LJMP    ??af_to_zb_report_0 & 0xFFFF
//  289         return;
//  290     }
//  291 
//  292     role = role_from_cluster(pkt->clusterId);
        MOV     DPL,R6
        MOV     DPH,R7
        INC     DPTR
        INC     DPTR
        INC     DPTR
        INC     DPTR
        MOVX    A,@DPTR
        MOV     R0,A
        INC     DPTR
        MOVX    A,@DPTR
        MOV     R1,A
        MOV     A,#0x2
        XRL     A,R0
        JNZ     ??af_to_zb_report_7
        MOV     A,#0x4
        XRL     A,R1
??af_to_zb_report_7:
        JZ      ??af_to_zb_report_8
        MOV     A,#0x5
        XRL     A,R0
        JNZ     ??af_to_zb_report_9
        MOV     A,#0x4
        XRL     A,R1
??af_to_zb_report_9:
        JZ      ??af_to_zb_report_8
        MOV     A,R0
        JNZ     ??af_to_zb_report_10
        MOV     A,#0x4
        XRL     A,R1
??af_to_zb_report_10:
        JNZ     ??af_to_zb_report_11
        MOV     R0,#0x2
        SJMP    ??af_to_zb_report_12
??af_to_zb_report_8:
        MOV     R0,#0x1
??af_to_zb_report_12:
        MOV     A,R2
        ADD     A,#0xb
        MOV     DPL,A
        MOV     A,R3
        LCALL   ??Subroutine7_0 & 0xFFFF
??CrossCallReturnLabel_9:
        XRL     A,R0
        JZ      ??af_to_zb_report_13
//  293     if (role != ZB_ROLE_UNKNOWN && node->role != role) {
//  294         node->role = role;
        MOV     A,R0
        MOVX    @DPTR,A
//  295         role_changed = 1u;
        MOV     ?V0 + 6,#0x1
//  296     }
//  297 
//  298     if (pkt->clusterId == ZCL_CLU_TEMP && dtype == DTYPE_I16) {
??af_to_zb_report_13:
        MOV     DPL,R6
        MOV     DPH,R7
        INC     DPTR
        INC     DPTR
        INC     DPTR
        INC     DPTR
        MOVX    A,@DPTR
        XRL     A,#0x2
        JNZ     ??af_to_zb_report_14
        INC     DPTR
        MOVX    A,@DPTR
        XRL     A,#0x4
??af_to_zb_report_14:
        JNZ     ??af_to_zb_report_15
        MOV     A,#0x10
        XRL     A,?V0 + 5
        JZ      $+5
        LJMP    ??af_to_zb_report_16 & 0xFFFF
//  299         node->temp_x100 = (int16)((uint16)val[0] | ((uint16)val[1] << 8));
        LCALL   ?Subroutine3 & 0xFFFF
//  300     } else if (pkt->clusterId == ZCL_CLU_HUM && dtype == DTYPE_U16) {
??CrossCallReturnLabel_0:
        ADD     A,#0x13
??af_to_zb_report_17:
        MOV     DPL,A
        MOV     A,R3
        ADDC    A,#0x0
        MOV     DPH,A
        MOV     A,R0
        MOVX    @DPTR,A
        INC     DPTR
        MOV     A,R1
        LJMP    ??af_to_zb_report_18 & 0xFFFF
??af_to_zb_report_15:
        MOV     DPL,R6
        MOV     DPH,R7
        INC     DPTR
        INC     DPTR
        INC     DPTR
        INC     DPTR
        MOVX    A,@DPTR
        XRL     A,#0x5
        JNZ     ??af_to_zb_report_19
        INC     DPTR
        MOVX    A,@DPTR
        XRL     A,#0x4
??af_to_zb_report_19:
        JNZ     ??af_to_zb_report_11
        MOV     A,#0x11
        XRL     A,?V0 + 5
        JZ      $+5
        LJMP    ??af_to_zb_report_16 & 0xFFFF
//  301         node->hum_x100 = (uint16)val[0] | ((uint16)val[1] << 8);
        LCALL   ?Subroutine3 & 0xFFFF
//  302     } else if (pkt->clusterId == ZCL_CLU_LUX && dtype == DTYPE_U16) {
??CrossCallReturnLabel_1:
        ADD     A,#0x15
        SJMP    ??af_to_zb_report_17
??af_to_zb_report_11:
        MOV     DPL,R6
        MOV     DPH,R7
        INC     DPTR
        INC     DPTR
        INC     DPTR
        INC     DPTR
        MOVX    A,@DPTR
        JNZ     ??af_to_zb_report_20
        INC     DPTR
        MOVX    A,@DPTR
        XRL     A,#0x4
??af_to_zb_report_20:
        JNZ     ??af_to_zb_report_21
        MOV     A,#0x11
        XRL     A,?V0 + 5
        JNZ     ??af_to_zb_report_16
//  303         node->lux = (uint16)val[0] | ((uint16)val[1] << 8);
        LCALL   ?Subroutine3 & 0xFFFF
//  304     } else if (pkt->clusterId == ZCL_CLU_ONOFF && dtype == DTYPE_BOOL) {
??CrossCallReturnLabel_2:
        ADD     A,#0x17
        SJMP    ??af_to_zb_report_17
??af_to_zb_report_21:
        MOV     DPL,R6
        MOV     DPH,R7
        INC     DPTR
        INC     DPTR
        INC     DPTR
        INC     DPTR
        MOVX    A,@DPTR
        XRL     A,#0x6
        JNZ     ??af_to_zb_report_22
        INC     DPTR
        MOVX    A,@DPTR
??af_to_zb_report_22:
        JNZ     ??af_to_zb_report_16
        MOV     A,#0x1
        XRL     A,?V0 + 5
        JNZ     ??af_to_zb_report_16
//  305         if (pkt->srcAddr.endPoint == 1u) {
        LCALL   ?Subroutine2 & 0xFFFF
??CrossCallReturnLabel_16:
        XRL     A,#0x1
        JNZ     ??af_to_zb_report_23
//  306             node->led_state = val[0] ? 1u : 0u;
        MOV     DPL,?V0 + 0
        MOV     DPH,?V0 + 1
        MOVX    A,@DPTR
        MOV     DPL,?XSP + 0
        MOV     DPH,?XSP + 1
        JZ      ??af_to_zb_report_24
        MOV     A,#0x1
        SJMP    ??af_to_zb_report_25
??af_to_zb_report_24:
        CLR     A
??af_to_zb_report_25:
        MOVX    @DPTR,A
        MOVX    A,@DPTR
        PUSH    A
        CFI CFA_SP SP+-1
        MOV     A,R2
        ADD     A,#0x19
        SJMP    ??af_to_zb_report_26
        CFI CFA_SP SP+0
//  307         } else if (pkt->srcAddr.endPoint == 2u) {
??af_to_zb_report_23:
        MOVX    A,@DPTR
        XRL     A,#0x2
        JNZ     ??af_to_zb_report_16
//  308             node->buzzer_state = val[0] ? 1u : 0u;
        MOV     DPL,?V0 + 0
        MOV     DPH,?V0 + 1
        MOVX    A,@DPTR
        MOV     DPL,?XSP + 0
        MOV     DPH,?XSP + 1
        JZ      ??af_to_zb_report_27
        MOV     A,#0x1
        SJMP    ??af_to_zb_report_28
??af_to_zb_report_27:
        CLR     A
??af_to_zb_report_28:
        MOVX    @DPTR,A
        MOVX    A,@DPTR
        PUSH    A
        CFI CFA_SP SP+-1
        MOV     A,R2
        ADD     A,#0x1a
??af_to_zb_report_26:
        MOV     DPL,A
        MOV     A,R3
        ADDC    A,#0x0
        MOV     DPH,A
        POP     A
        CFI CFA_SP SP+0
??af_to_zb_report_18:
        MOVX    @DPTR,A
//  309         }
//  310     }
//  311 
//  312     p = out;
//  313     *p++ = (uint8)(pkt->srcAddr.addr.shortAddr & 0xFFu);
??af_to_zb_report_16:
        MOV     A,R6
        ADD     A,#0x6
        MOV     R0,A
        LCALL   ?Subroutine5 & 0xFFFF
??CrossCallReturnLabel_5:
        PUSH    A
        CFI CFA_SP SP+-1
        MOV     A,#0x1
        LCALL   ?XSTACK_DISP0_8
        POP     A
        CFI CFA_SP SP+0
        MOVX    @DPTR,A
//  314     *p++ = (uint8)(pkt->srcAddr.addr.shortAddr >> 8);
        MOV     DPL,R0
        MOV     DPH,R1
        INC     DPTR
        MOVX    A,@DPTR
        PUSH    A
        CFI CFA_SP SP+-1
        MOV     A,#0x2
        LCALL   ?XSTACK_DISP0_8
        POP     A
        CFI CFA_SP SP+0
        MOVX    @DPTR,A
//  315     *p++ = pkt->srcAddr.endPoint;
        LCALL   ?Subroutine2 & 0xFFFF
??CrossCallReturnLabel_17:
        PUSH    A
        CFI CFA_SP SP+-1
        MOV     A,#0x3
        LCALL   ?XSTACK_DISP0_8
        POP     A
        CFI CFA_SP SP+0
        MOVX    @DPTR,A
//  316     *p++ = (uint8)(pkt->clusterId & 0xFFu);
        MOV     A,R6
        ADD     A,#0x4
        DEC     R0
        DEC     R0
        LCALL   ?Subroutine5 & 0xFFFF
??CrossCallReturnLabel_6:
        PUSH    A
        CFI CFA_SP SP+-1
        MOV     A,#0x4
        LCALL   ?XSTACK_DISP0_8
        POP     A
        CFI CFA_SP SP+0
        MOVX    @DPTR,A
//  317     *p++ = (uint8)(pkt->clusterId >> 8);
        MOV     DPL,R0
        MOV     DPH,R1
        INC     DPTR
        MOVX    A,@DPTR
        PUSH    A
        CFI CFA_SP SP+-1
        MOV     A,#0x5
        LCALL   ?XSTACK_DISP0_8
        POP     A
        CFI CFA_SP SP+0
        MOVX    @DPTR,A
//  318     *p++ = dtype;
        MOV     A,#0x6
        LCALL   ?XSTACK_DISP0_8
        MOV     A,?V0 + 5
        MOVX    @DPTR,A
//  319     *p++ = vlen;
        MOV     A,#0x7
        LCALL   ?XSTACK_DISP0_8
        MOV     A,?V0 + 4
        MOVX    @DPTR,A
//  320     osal_memcpy(p, val, vlen);
        ; Setup parameters for call to function osal_memcpy
        MOV     ?V0 + 8,?V0 + 0
        MOV     ?V0 + 9,?V0 + 1
        MOV     ?V0 + 10,#0x0
        MOV     R0,#?V0 + 8
        LCALL   ?PUSH_XSTACK_I_THREE
        CFI CFA_XSP16 add(XSP16, 87)
        MOV     ?V0 + 0,?V0 + 4
        MOV     R4,?V0 + 0
        MOV     R5,#0x0
        MOV     A,#0xb
        LCALL   ?XSTACK_DISP0_8
        MOV     R2,DPL
        MOV     R3,DPH
        LCALL   ??osal_memcpy?relay
        MOV     A,#0x3
        LCALL   ?DEALLOC_XSTACK8
        CFI CFA_XSP16 add(XSP16, 84)
//  321     p += vlen;
//  322 
//  323     (void)GwCoord_SendFrame(CMD_ZB_REPORT, out, (uint8)(p - out));
        ; Setup parameters for call to function GwCoord_SendFrame
        MOV     A,#0x1
        LCALL   ?XSTACK_DISP0_8
        MOV     R0,DPL
        MOV     A,DPL
        ADD     A,?V0 + 4
        ADD     A,#0x7
        CLR     C
        SUBB    A,R0
        MOV     R4,A
        MOV     R2,DPL
        MOV     R3,DPH
        MOV     R1,#0x20
        LCALL   ??GwCoord_SendFrame?relay
//  324     if (role_changed || online_changed) {
        MOV     A,?V0 + 7
        MOV     C,0xE0 /* A   */.0
        PUSH    PSW
        CFI CFA_SP SP+-1
        MOV     A,?V0 + 6
        MOV     C,0xE0 /* A   */.0
        MOV     B.0,C
        LCALL   ?POP_BIT_ISP
        DEC     SP
        CFI CFA_SP SP+0
        ORL     C,B.0
        JNC     ??af_to_zb_report_29
//  325         GwCoord_SendNodeInfo(node);
        ; Setup parameters for call to function GwCoord_SendNodeInfo
        MOV     R2,?V0 + 2
        MOV     R3,?V0 + 3
        LCALL   ??GwCoord_SendNodeInfo?relay
//  326     }
//  327     GwCoord_RefreshLocalDisplay();
??af_to_zb_report_29:
        ; Setup parameters for call to function gw_oled_view_refresh
        LCALL   ??gw_oled_view_refresh?relay
//  328 }
??af_to_zb_report_0:
        MOV     A,#0x41
        LCALL   ?DEALLOC_XSTACK8
        CFI CFA_XSP16 add(XSP16, 19)
        MOV     R7,#0xb
        LJMP    ?BANKED_LEAVE_XDATA
        CFI EndBlock cfiBlock10

        RSEG BANKED_CODE:CODE:NOROOT(0)
?Subroutine5:
        CFI Block cfiCond11 Using cfiCommon0
        CFI NoFunction
        CFI Conditional ??CrossCallReturnLabel_5
        CFI R6 load(1, XDATA, add(CFA_XSP16, literal(-19)))
        CFI VB load(1, XDATA, add(CFA_XSP16, literal(-18)))
        CFI V0 load(1, XDATA, add(CFA_XSP16, literal(-17)))
        CFI V1 load(1, XDATA, add(CFA_XSP16, literal(-16)))
        CFI V2 load(1, XDATA, add(CFA_XSP16, literal(-15)))
        CFI V3 load(1, XDATA, add(CFA_XSP16, literal(-14)))
        CFI V4 load(1, XDATA, add(CFA_XSP16, literal(-13)))
        CFI V5 load(1, XDATA, add(CFA_XSP16, literal(-12)))
        CFI V6 load(1, XDATA, add(CFA_XSP16, literal(-11)))
        CFI V7 load(1, XDATA, add(CFA_XSP16, literal(-10)))
        CFI V8 load(1, XDATA, add(CFA_XSP16, literal(-9)))
        CFI V9 load(1, XDATA, add(CFA_XSP16, literal(-8)))
        CFI V10 load(1, XDATA, add(CFA_XSP16, literal(-7)))
        CFI R7 load(1, XDATA, add(CFA_XSP16, literal(-6)))
        CFI ?RET_LOW load(1, XDATA, add(CFA_XSP16, literal(-5)))
        CFI ?RET_HIGH load(1, XDATA, add(CFA_XSP16, literal(-4)))
        CFI ?BRET_EXT load(1, XDATA, add(CFA_XSP16, literal(-3)))
        CFI DPL0 load(1, XDATA, add(CFA_XSP16, literal(-2)))
        CFI DPH0 load(1, XDATA, add(CFA_XSP16, literal(-1)))
        CFI CFA_SP SP+0
        CFI CFA_XSP16 add(XSP16, 84)
        CFI Block cfiCond12 Using cfiCommon0
        CFI (cfiCond12) NoFunction
        CFI (cfiCond12) Conditional ??CrossCallReturnLabel_6
        CFI (cfiCond12) R6 load(1, XDATA, add(CFA_XSP16, literal(-19)))
        CFI (cfiCond12) VB load(1, XDATA, add(CFA_XSP16, literal(-18)))
        CFI (cfiCond12) V0 load(1, XDATA, add(CFA_XSP16, literal(-17)))
        CFI (cfiCond12) V1 load(1, XDATA, add(CFA_XSP16, literal(-16)))
        CFI (cfiCond12) V2 load(1, XDATA, add(CFA_XSP16, literal(-15)))
        CFI (cfiCond12) V3 load(1, XDATA, add(CFA_XSP16, literal(-14)))
        CFI (cfiCond12) V4 load(1, XDATA, add(CFA_XSP16, literal(-13)))
        CFI (cfiCond12) V5 load(1, XDATA, add(CFA_XSP16, literal(-12)))
        CFI (cfiCond12) V6 load(1, XDATA, add(CFA_XSP16, literal(-11)))
        CFI (cfiCond12) V7 load(1, XDATA, add(CFA_XSP16, literal(-10)))
        CFI (cfiCond12) V8 load(1, XDATA, add(CFA_XSP16, literal(-9)))
        CFI (cfiCond12) V9 load(1, XDATA, add(CFA_XSP16, literal(-8)))
        CFI (cfiCond12) V10 load(1, XDATA, add(CFA_XSP16, literal(-7)))
        CFI (cfiCond12) R7 load(1, XDATA, add(CFA_XSP16, literal(-6)))
        CFI (cfiCond12) ?RET_LOW load(1, XDATA, add(CFA_XSP16, literal(-5)))
        CFI (cfiCond12) ?RET_HIGH load(1, XDATA, add(CFA_XSP16, literal(-4)))
        CFI (cfiCond12) ?BRET_EXT load(1, XDATA, add(CFA_XSP16, literal(-3)))
        CFI (cfiCond12) DPL0 load(1, XDATA, add(CFA_XSP16, literal(-2)))
        CFI (cfiCond12) DPH0 load(1, XDATA, add(CFA_XSP16, literal(-1)))
        CFI (cfiCond12) CFA_SP SP+0
        CFI (cfiCond12) CFA_XSP16 add(XSP16, 84)
        CFI Block cfiPicker13 Using cfiCommon1
        CFI (cfiPicker13) NoFunction
        CFI (cfiPicker13) Picker
        MOV     A,R7
        ADDC    A,#0x0
        MOV     R1,A
        MOV     DPL,R0
        MOV     DPH,R1
        MOVX    A,@DPTR
        RET
        CFI EndBlock cfiCond11
        CFI EndBlock cfiCond12
        CFI EndBlock cfiPicker13

        RSEG BANKED_CODE:CODE:NOROOT(0)
?Subroutine4:
        CFI Block cfiCond14 Using cfiCommon0
        CFI NoFunction
        CFI Conditional ??CrossCallReturnLabel_4
        CFI R6 load(1, XDATA, add(CFA_XSP16, literal(-12)))
        CFI VB load(1, XDATA, add(CFA_XSP16, literal(-11)))
        CFI V0 load(1, XDATA, add(CFA_XSP16, literal(-10)))
        CFI V1 load(1, XDATA, add(CFA_XSP16, literal(-9)))
        CFI V2 load(1, XDATA, add(CFA_XSP16, literal(-8)))
        CFI V3 load(1, XDATA, add(CFA_XSP16, literal(-7)))
        CFI R7 load(1, XDATA, add(CFA_XSP16, literal(-6)))
        CFI ?RET_LOW load(1, XDATA, add(CFA_XSP16, literal(-5)))
        CFI ?RET_HIGH load(1, XDATA, add(CFA_XSP16, literal(-4)))
        CFI ?BRET_EXT load(1, XDATA, add(CFA_XSP16, literal(-3)))
        CFI DPL0 load(1, XDATA, add(CFA_XSP16, literal(-2)))
        CFI DPH0 load(1, XDATA, add(CFA_XSP16, literal(-1)))
        CFI CFA_SP SP+0
        CFI CFA_XSP16 add(XSP16, 24)
        CFI Block cfiCond15 Using cfiCommon0
        CFI (cfiCond15) NoFunction
        CFI (cfiCond15) Conditional ??CrossCallReturnLabel_3
        CFI (cfiCond15) R6 load(1, XDATA, add(CFA_XSP16, literal(-19)))
        CFI (cfiCond15) VB load(1, XDATA, add(CFA_XSP16, literal(-18)))
        CFI (cfiCond15) V0 load(1, XDATA, add(CFA_XSP16, literal(-17)))
        CFI (cfiCond15) V1 load(1, XDATA, add(CFA_XSP16, literal(-16)))
        CFI (cfiCond15) V2 load(1, XDATA, add(CFA_XSP16, literal(-15)))
        CFI (cfiCond15) V3 load(1, XDATA, add(CFA_XSP16, literal(-14)))
        CFI (cfiCond15) V4 load(1, XDATA, add(CFA_XSP16, literal(-13)))
        CFI (cfiCond15) V5 load(1, XDATA, add(CFA_XSP16, literal(-12)))
        CFI (cfiCond15) V6 load(1, XDATA, add(CFA_XSP16, literal(-11)))
        CFI (cfiCond15) V7 load(1, XDATA, add(CFA_XSP16, literal(-10)))
        CFI (cfiCond15) V8 load(1, XDATA, add(CFA_XSP16, literal(-9)))
        CFI (cfiCond15) V9 load(1, XDATA, add(CFA_XSP16, literal(-8)))
        CFI (cfiCond15) V10 load(1, XDATA, add(CFA_XSP16, literal(-7)))
        CFI (cfiCond15) R7 load(1, XDATA, add(CFA_XSP16, literal(-6)))
        CFI (cfiCond15) ?RET_LOW load(1, XDATA, add(CFA_XSP16, literal(-5)))
        CFI (cfiCond15) ?RET_HIGH load(1, XDATA, add(CFA_XSP16, literal(-4)))
        CFI (cfiCond15) ?BRET_EXT load(1, XDATA, add(CFA_XSP16, literal(-3)))
        CFI (cfiCond15) DPL0 load(1, XDATA, add(CFA_XSP16, literal(-2)))
        CFI (cfiCond15) DPH0 load(1, XDATA, add(CFA_XSP16, literal(-1)))
        CFI (cfiCond15) CFA_SP SP+0
        CFI (cfiCond15) CFA_XSP16 add(XSP16, 85)
        CFI Block cfiPicker16 Using cfiCommon1
        CFI (cfiPicker16) NoFunction
        CFI (cfiPicker16) Picker
        MOVX    A,@DPTR
        MOV     R2,A
        INC     DPTR
        MOVX    A,@DPTR
        MOV     R3,A
        LCALL   ??zb_net_touch?relay
        MOV     A,#0x1
        RET
        CFI EndBlock cfiCond14
        CFI EndBlock cfiCond15
        CFI EndBlock cfiPicker16

        RSEG BANKED_CODE:CODE:NOROOT(0)
?Subroutine3:
        CFI Block cfiCond17 Using cfiCommon0
        CFI NoFunction
        CFI Conditional ??CrossCallReturnLabel_0
        CFI R6 load(1, XDATA, add(CFA_XSP16, literal(-19)))
        CFI VB load(1, XDATA, add(CFA_XSP16, literal(-18)))
        CFI V0 load(1, XDATA, add(CFA_XSP16, literal(-17)))
        CFI V1 load(1, XDATA, add(CFA_XSP16, literal(-16)))
        CFI V2 load(1, XDATA, add(CFA_XSP16, literal(-15)))
        CFI V3 load(1, XDATA, add(CFA_XSP16, literal(-14)))
        CFI V4 load(1, XDATA, add(CFA_XSP16, literal(-13)))
        CFI V5 load(1, XDATA, add(CFA_XSP16, literal(-12)))
        CFI V6 load(1, XDATA, add(CFA_XSP16, literal(-11)))
        CFI V7 load(1, XDATA, add(CFA_XSP16, literal(-10)))
        CFI V8 load(1, XDATA, add(CFA_XSP16, literal(-9)))
        CFI V9 load(1, XDATA, add(CFA_XSP16, literal(-8)))
        CFI V10 load(1, XDATA, add(CFA_XSP16, literal(-7)))
        CFI R7 load(1, XDATA, add(CFA_XSP16, literal(-6)))
        CFI ?RET_LOW load(1, XDATA, add(CFA_XSP16, literal(-5)))
        CFI ?RET_HIGH load(1, XDATA, add(CFA_XSP16, literal(-4)))
        CFI ?BRET_EXT load(1, XDATA, add(CFA_XSP16, literal(-3)))
        CFI DPL0 load(1, XDATA, add(CFA_XSP16, literal(-2)))
        CFI DPH0 load(1, XDATA, add(CFA_XSP16, literal(-1)))
        CFI CFA_SP SP+0
        CFI CFA_XSP16 add(XSP16, 84)
        CFI Block cfiCond18 Using cfiCommon0
        CFI (cfiCond18) NoFunction
        CFI (cfiCond18) Conditional ??CrossCallReturnLabel_1
        CFI (cfiCond18) R6 load(1, XDATA, add(CFA_XSP16, literal(-19)))
        CFI (cfiCond18) VB load(1, XDATA, add(CFA_XSP16, literal(-18)))
        CFI (cfiCond18) V0 load(1, XDATA, add(CFA_XSP16, literal(-17)))
        CFI (cfiCond18) V1 load(1, XDATA, add(CFA_XSP16, literal(-16)))
        CFI (cfiCond18) V2 load(1, XDATA, add(CFA_XSP16, literal(-15)))
        CFI (cfiCond18) V3 load(1, XDATA, add(CFA_XSP16, literal(-14)))
        CFI (cfiCond18) V4 load(1, XDATA, add(CFA_XSP16, literal(-13)))
        CFI (cfiCond18) V5 load(1, XDATA, add(CFA_XSP16, literal(-12)))
        CFI (cfiCond18) V6 load(1, XDATA, add(CFA_XSP16, literal(-11)))
        CFI (cfiCond18) V7 load(1, XDATA, add(CFA_XSP16, literal(-10)))
        CFI (cfiCond18) V8 load(1, XDATA, add(CFA_XSP16, literal(-9)))
        CFI (cfiCond18) V9 load(1, XDATA, add(CFA_XSP16, literal(-8)))
        CFI (cfiCond18) V10 load(1, XDATA, add(CFA_XSP16, literal(-7)))
        CFI (cfiCond18) R7 load(1, XDATA, add(CFA_XSP16, literal(-6)))
        CFI (cfiCond18) ?RET_LOW load(1, XDATA, add(CFA_XSP16, literal(-5)))
        CFI (cfiCond18) ?RET_HIGH load(1, XDATA, add(CFA_XSP16, literal(-4)))
        CFI (cfiCond18) ?BRET_EXT load(1, XDATA, add(CFA_XSP16, literal(-3)))
        CFI (cfiCond18) DPL0 load(1, XDATA, add(CFA_XSP16, literal(-2)))
        CFI (cfiCond18) DPH0 load(1, XDATA, add(CFA_XSP16, literal(-1)))
        CFI (cfiCond18) CFA_SP SP+0
        CFI (cfiCond18) CFA_XSP16 add(XSP16, 84)
        CFI Block cfiCond19 Using cfiCommon0
        CFI (cfiCond19) NoFunction
        CFI (cfiCond19) Conditional ??CrossCallReturnLabel_2
        CFI (cfiCond19) R6 load(1, XDATA, add(CFA_XSP16, literal(-19)))
        CFI (cfiCond19) VB load(1, XDATA, add(CFA_XSP16, literal(-18)))
        CFI (cfiCond19) V0 load(1, XDATA, add(CFA_XSP16, literal(-17)))
        CFI (cfiCond19) V1 load(1, XDATA, add(CFA_XSP16, literal(-16)))
        CFI (cfiCond19) V2 load(1, XDATA, add(CFA_XSP16, literal(-15)))
        CFI (cfiCond19) V3 load(1, XDATA, add(CFA_XSP16, literal(-14)))
        CFI (cfiCond19) V4 load(1, XDATA, add(CFA_XSP16, literal(-13)))
        CFI (cfiCond19) V5 load(1, XDATA, add(CFA_XSP16, literal(-12)))
        CFI (cfiCond19) V6 load(1, XDATA, add(CFA_XSP16, literal(-11)))
        CFI (cfiCond19) V7 load(1, XDATA, add(CFA_XSP16, literal(-10)))
        CFI (cfiCond19) V8 load(1, XDATA, add(CFA_XSP16, literal(-9)))
        CFI (cfiCond19) V9 load(1, XDATA, add(CFA_XSP16, literal(-8)))
        CFI (cfiCond19) V10 load(1, XDATA, add(CFA_XSP16, literal(-7)))
        CFI (cfiCond19) R7 load(1, XDATA, add(CFA_XSP16, literal(-6)))
        CFI (cfiCond19) ?RET_LOW load(1, XDATA, add(CFA_XSP16, literal(-5)))
        CFI (cfiCond19) ?RET_HIGH load(1, XDATA, add(CFA_XSP16, literal(-4)))
        CFI (cfiCond19) ?BRET_EXT load(1, XDATA, add(CFA_XSP16, literal(-3)))
        CFI (cfiCond19) DPL0 load(1, XDATA, add(CFA_XSP16, literal(-2)))
        CFI (cfiCond19) DPH0 load(1, XDATA, add(CFA_XSP16, literal(-1)))
        CFI (cfiCond19) CFA_SP SP+0
        CFI (cfiCond19) CFA_XSP16 add(XSP16, 84)
        CFI Block cfiPicker20 Using cfiCommon1
        CFI (cfiPicker20) NoFunction
        CFI (cfiPicker20) Picker
        MOV     DPL,?V0 + 0
        MOV     DPH,?V0 + 1
        MOVX    A,@DPTR
        MOV     R2,A
        INC     DPTR
        MOVX    A,@DPTR
        MOV     R1,A
        MOV     A,R2
        MOV     R0,A
        MOV     A,?V0 + 2
        RET
        CFI EndBlock cfiCond17
        CFI EndBlock cfiCond18
        CFI EndBlock cfiCond19
        CFI EndBlock cfiPicker20

        RSEG BANKED_CODE:CODE:NOROOT(0)
?Subroutine2:
        CFI Block cfiCond21 Using cfiCommon0
        CFI NoFunction
        CFI Conditional ??CrossCallReturnLabel_16
        CFI R6 load(1, XDATA, add(CFA_XSP16, literal(-19)))
        CFI VB load(1, XDATA, add(CFA_XSP16, literal(-18)))
        CFI V0 load(1, XDATA, add(CFA_XSP16, literal(-17)))
        CFI V1 load(1, XDATA, add(CFA_XSP16, literal(-16)))
        CFI V2 load(1, XDATA, add(CFA_XSP16, literal(-15)))
        CFI V3 load(1, XDATA, add(CFA_XSP16, literal(-14)))
        CFI V4 load(1, XDATA, add(CFA_XSP16, literal(-13)))
        CFI V5 load(1, XDATA, add(CFA_XSP16, literal(-12)))
        CFI V6 load(1, XDATA, add(CFA_XSP16, literal(-11)))
        CFI V7 load(1, XDATA, add(CFA_XSP16, literal(-10)))
        CFI V8 load(1, XDATA, add(CFA_XSP16, literal(-9)))
        CFI V9 load(1, XDATA, add(CFA_XSP16, literal(-8)))
        CFI V10 load(1, XDATA, add(CFA_XSP16, literal(-7)))
        CFI R7 load(1, XDATA, add(CFA_XSP16, literal(-6)))
        CFI ?RET_LOW load(1, XDATA, add(CFA_XSP16, literal(-5)))
        CFI ?RET_HIGH load(1, XDATA, add(CFA_XSP16, literal(-4)))
        CFI ?BRET_EXT load(1, XDATA, add(CFA_XSP16, literal(-3)))
        CFI DPL0 load(1, XDATA, add(CFA_XSP16, literal(-2)))
        CFI DPH0 load(1, XDATA, add(CFA_XSP16, literal(-1)))
        CFI CFA_SP SP+0
        CFI CFA_XSP16 add(XSP16, 84)
        CFI Block cfiCond22 Using cfiCommon0
        CFI (cfiCond22) NoFunction
        CFI (cfiCond22) Conditional ??CrossCallReturnLabel_17
        CFI (cfiCond22) R6 load(1, XDATA, add(CFA_XSP16, literal(-19)))
        CFI (cfiCond22) VB load(1, XDATA, add(CFA_XSP16, literal(-18)))
        CFI (cfiCond22) V0 load(1, XDATA, add(CFA_XSP16, literal(-17)))
        CFI (cfiCond22) V1 load(1, XDATA, add(CFA_XSP16, literal(-16)))
        CFI (cfiCond22) V2 load(1, XDATA, add(CFA_XSP16, literal(-15)))
        CFI (cfiCond22) V3 load(1, XDATA, add(CFA_XSP16, literal(-14)))
        CFI (cfiCond22) V4 load(1, XDATA, add(CFA_XSP16, literal(-13)))
        CFI (cfiCond22) V5 load(1, XDATA, add(CFA_XSP16, literal(-12)))
        CFI (cfiCond22) V6 load(1, XDATA, add(CFA_XSP16, literal(-11)))
        CFI (cfiCond22) V7 load(1, XDATA, add(CFA_XSP16, literal(-10)))
        CFI (cfiCond22) V8 load(1, XDATA, add(CFA_XSP16, literal(-9)))
        CFI (cfiCond22) V9 load(1, XDATA, add(CFA_XSP16, literal(-8)))
        CFI (cfiCond22) V10 load(1, XDATA, add(CFA_XSP16, literal(-7)))
        CFI (cfiCond22) R7 load(1, XDATA, add(CFA_XSP16, literal(-6)))
        CFI (cfiCond22) ?RET_LOW load(1, XDATA, add(CFA_XSP16, literal(-5)))
        CFI (cfiCond22) ?RET_HIGH load(1, XDATA, add(CFA_XSP16, literal(-4)))
        CFI (cfiCond22) ?BRET_EXT load(1, XDATA, add(CFA_XSP16, literal(-3)))
        CFI (cfiCond22) DPL0 load(1, XDATA, add(CFA_XSP16, literal(-2)))
        CFI (cfiCond22) DPH0 load(1, XDATA, add(CFA_XSP16, literal(-1)))
        CFI (cfiCond22) CFA_SP SP+0
        CFI (cfiCond22) CFA_XSP16 add(XSP16, 84)
        CFI Block cfiPicker23 Using cfiCommon1
        CFI (cfiPicker23) NoFunction
        CFI (cfiPicker23) Picker
        MOV     A,R6
        ADD     A,#0xf
        CFI EndBlock cfiCond21
        CFI EndBlock cfiCond22
        CFI EndBlock cfiPicker23
        REQUIRE ??Subroutine6_0
        ; // Fall through to label ??Subroutine6_0

        RSEG BANKED_CODE:CODE:NOROOT(0)
??Subroutine6_0:
        CFI Block cfiCond24 Using cfiCommon0
        CFI NoFunction
        CFI Conditional ??CrossCallReturnLabel_10
        CFI R6 load(1, XDATA, add(CFA_XSP16, literal(-16)))
        CFI VB load(1, XDATA, add(CFA_XSP16, literal(-15)))
        CFI V0 load(1, XDATA, add(CFA_XSP16, literal(-14)))
        CFI V1 load(1, XDATA, add(CFA_XSP16, literal(-13)))
        CFI V2 load(1, XDATA, add(CFA_XSP16, literal(-12)))
        CFI V3 load(1, XDATA, add(CFA_XSP16, literal(-11)))
        CFI V4 load(1, XDATA, add(CFA_XSP16, literal(-10)))
        CFI V5 load(1, XDATA, add(CFA_XSP16, literal(-9)))
        CFI V6 load(1, XDATA, add(CFA_XSP16, literal(-8)))
        CFI V7 load(1, XDATA, add(CFA_XSP16, literal(-7)))
        CFI R7 load(1, XDATA, add(CFA_XSP16, literal(-6)))
        CFI ?RET_LOW load(1, XDATA, add(CFA_XSP16, literal(-5)))
        CFI ?RET_HIGH load(1, XDATA, add(CFA_XSP16, literal(-4)))
        CFI ?BRET_EXT load(1, XDATA, add(CFA_XSP16, literal(-3)))
        CFI DPL0 load(1, XDATA, add(CFA_XSP16, literal(-2)))
        CFI DPH0 load(1, XDATA, add(CFA_XSP16, literal(-1)))
        CFI CFA_SP SP+0
        CFI CFA_XSP16 add(XSP16, 24)
        CFI Block cfiCond25 Using cfiCommon0
        CFI (cfiCond25) NoFunction
        CFI (cfiCond25) Conditional ??CrossCallReturnLabel_11
        CFI (cfiCond25) R6 load(1, XDATA, add(CFA_XSP16, literal(-16)))
        CFI (cfiCond25) VB load(1, XDATA, add(CFA_XSP16, literal(-15)))
        CFI (cfiCond25) V0 load(1, XDATA, add(CFA_XSP16, literal(-14)))
        CFI (cfiCond25) V1 load(1, XDATA, add(CFA_XSP16, literal(-13)))
        CFI (cfiCond25) V2 load(1, XDATA, add(CFA_XSP16, literal(-12)))
        CFI (cfiCond25) V3 load(1, XDATA, add(CFA_XSP16, literal(-11)))
        CFI (cfiCond25) V4 load(1, XDATA, add(CFA_XSP16, literal(-10)))
        CFI (cfiCond25) V5 load(1, XDATA, add(CFA_XSP16, literal(-9)))
        CFI (cfiCond25) V6 load(1, XDATA, add(CFA_XSP16, literal(-8)))
        CFI (cfiCond25) V7 load(1, XDATA, add(CFA_XSP16, literal(-7)))
        CFI (cfiCond25) R7 load(1, XDATA, add(CFA_XSP16, literal(-6)))
        CFI (cfiCond25) ?RET_LOW load(1, XDATA, add(CFA_XSP16, literal(-5)))
        CFI (cfiCond25) ?RET_HIGH load(1, XDATA, add(CFA_XSP16, literal(-4)))
        CFI (cfiCond25) ?BRET_EXT load(1, XDATA, add(CFA_XSP16, literal(-3)))
        CFI (cfiCond25) DPL0 load(1, XDATA, add(CFA_XSP16, literal(-2)))
        CFI (cfiCond25) DPH0 load(1, XDATA, add(CFA_XSP16, literal(-1)))
        CFI (cfiCond25) CFA_SP SP+0
        CFI (cfiCond25) CFA_XSP16 add(XSP16, 24)
        CFI Block cfiCond26 Using cfiCommon0
        CFI (cfiCond26) NoFunction
        CFI (cfiCond26) Conditional ??CrossCallReturnLabel_12
        CFI (cfiCond26) R6 load(1, XDATA, add(CFA_XSP16, literal(-16)))
        CFI (cfiCond26) VB load(1, XDATA, add(CFA_XSP16, literal(-15)))
        CFI (cfiCond26) V0 load(1, XDATA, add(CFA_XSP16, literal(-14)))
        CFI (cfiCond26) V1 load(1, XDATA, add(CFA_XSP16, literal(-13)))
        CFI (cfiCond26) V2 load(1, XDATA, add(CFA_XSP16, literal(-12)))
        CFI (cfiCond26) V3 load(1, XDATA, add(CFA_XSP16, literal(-11)))
        CFI (cfiCond26) V4 load(1, XDATA, add(CFA_XSP16, literal(-10)))
        CFI (cfiCond26) V5 load(1, XDATA, add(CFA_XSP16, literal(-9)))
        CFI (cfiCond26) V6 load(1, XDATA, add(CFA_XSP16, literal(-8)))
        CFI (cfiCond26) V7 load(1, XDATA, add(CFA_XSP16, literal(-7)))
        CFI (cfiCond26) R7 load(1, XDATA, add(CFA_XSP16, literal(-6)))
        CFI (cfiCond26) ?RET_LOW load(1, XDATA, add(CFA_XSP16, literal(-5)))
        CFI (cfiCond26) ?RET_HIGH load(1, XDATA, add(CFA_XSP16, literal(-4)))
        CFI (cfiCond26) ?BRET_EXT load(1, XDATA, add(CFA_XSP16, literal(-3)))
        CFI (cfiCond26) DPL0 load(1, XDATA, add(CFA_XSP16, literal(-2)))
        CFI (cfiCond26) DPH0 load(1, XDATA, add(CFA_XSP16, literal(-1)))
        CFI (cfiCond26) CFA_SP SP+0
        CFI (cfiCond26) CFA_XSP16 add(XSP16, 24)
        CFI Block cfiCond27 Using cfiCommon0
        CFI (cfiCond27) NoFunction
        CFI (cfiCond27) Conditional ??CrossCallReturnLabel_13
        CFI (cfiCond27) R6 load(1, XDATA, add(CFA_XSP16, literal(-19)))
        CFI (cfiCond27) VB load(1, XDATA, add(CFA_XSP16, literal(-18)))
        CFI (cfiCond27) V0 load(1, XDATA, add(CFA_XSP16, literal(-17)))
        CFI (cfiCond27) V1 load(1, XDATA, add(CFA_XSP16, literal(-16)))
        CFI (cfiCond27) V2 load(1, XDATA, add(CFA_XSP16, literal(-15)))
        CFI (cfiCond27) V3 load(1, XDATA, add(CFA_XSP16, literal(-14)))
        CFI (cfiCond27) V4 load(1, XDATA, add(CFA_XSP16, literal(-13)))
        CFI (cfiCond27) V5 load(1, XDATA, add(CFA_XSP16, literal(-12)))
        CFI (cfiCond27) V6 load(1, XDATA, add(CFA_XSP16, literal(-11)))
        CFI (cfiCond27) V7 load(1, XDATA, add(CFA_XSP16, literal(-10)))
        CFI (cfiCond27) V8 load(1, XDATA, add(CFA_XSP16, literal(-9)))
        CFI (cfiCond27) V9 load(1, XDATA, add(CFA_XSP16, literal(-8)))
        CFI (cfiCond27) V10 load(1, XDATA, add(CFA_XSP16, literal(-7)))
        CFI (cfiCond27) R7 load(1, XDATA, add(CFA_XSP16, literal(-6)))
        CFI (cfiCond27) ?RET_LOW load(1, XDATA, add(CFA_XSP16, literal(-5)))
        CFI (cfiCond27) ?RET_HIGH load(1, XDATA, add(CFA_XSP16, literal(-4)))
        CFI (cfiCond27) ?BRET_EXT load(1, XDATA, add(CFA_XSP16, literal(-3)))
        CFI (cfiCond27) DPL0 load(1, XDATA, add(CFA_XSP16, literal(-2)))
        CFI (cfiCond27) DPH0 load(1, XDATA, add(CFA_XSP16, literal(-1)))
        CFI (cfiCond27) CFA_SP SP+0
        CFI (cfiCond27) CFA_XSP16 add(XSP16, 84)
        CFI Block cfiCond28 Using cfiCommon0
        CFI (cfiCond28) NoFunction
        CFI (cfiCond28) Conditional ??CrossCallReturnLabel_14
        CFI (cfiCond28) R6 load(1, XDATA, add(CFA_XSP16, literal(-19)))
        CFI (cfiCond28) VB load(1, XDATA, add(CFA_XSP16, literal(-18)))
        CFI (cfiCond28) V0 load(1, XDATA, add(CFA_XSP16, literal(-17)))
        CFI (cfiCond28) V1 load(1, XDATA, add(CFA_XSP16, literal(-16)))
        CFI (cfiCond28) V2 load(1, XDATA, add(CFA_XSP16, literal(-15)))
        CFI (cfiCond28) V3 load(1, XDATA, add(CFA_XSP16, literal(-14)))
        CFI (cfiCond28) V4 load(1, XDATA, add(CFA_XSP16, literal(-13)))
        CFI (cfiCond28) V5 load(1, XDATA, add(CFA_XSP16, literal(-12)))
        CFI (cfiCond28) V6 load(1, XDATA, add(CFA_XSP16, literal(-11)))
        CFI (cfiCond28) V7 load(1, XDATA, add(CFA_XSP16, literal(-10)))
        CFI (cfiCond28) V8 load(1, XDATA, add(CFA_XSP16, literal(-9)))
        CFI (cfiCond28) V9 load(1, XDATA, add(CFA_XSP16, literal(-8)))
        CFI (cfiCond28) V10 load(1, XDATA, add(CFA_XSP16, literal(-7)))
        CFI (cfiCond28) R7 load(1, XDATA, add(CFA_XSP16, literal(-6)))
        CFI (cfiCond28) ?RET_LOW load(1, XDATA, add(CFA_XSP16, literal(-5)))
        CFI (cfiCond28) ?RET_HIGH load(1, XDATA, add(CFA_XSP16, literal(-4)))
        CFI (cfiCond28) ?BRET_EXT load(1, XDATA, add(CFA_XSP16, literal(-3)))
        CFI (cfiCond28) DPL0 load(1, XDATA, add(CFA_XSP16, literal(-2)))
        CFI (cfiCond28) DPH0 load(1, XDATA, add(CFA_XSP16, literal(-1)))
        CFI (cfiCond28) CFA_SP SP+0
        CFI (cfiCond28) CFA_XSP16 add(XSP16, 84)
        CFI Block cfiCond29 Using cfiCommon0
        CFI (cfiCond29) NoFunction
        CFI (cfiCond29) Conditional ??CrossCallReturnLabel_15
        CFI (cfiCond29) R6 load(1, XDATA, add(CFA_XSP16, literal(-19)))
        CFI (cfiCond29) VB load(1, XDATA, add(CFA_XSP16, literal(-18)))
        CFI (cfiCond29) V0 load(1, XDATA, add(CFA_XSP16, literal(-17)))
        CFI (cfiCond29) V1 load(1, XDATA, add(CFA_XSP16, literal(-16)))
        CFI (cfiCond29) V2 load(1, XDATA, add(CFA_XSP16, literal(-15)))
        CFI (cfiCond29) V3 load(1, XDATA, add(CFA_XSP16, literal(-14)))
        CFI (cfiCond29) V4 load(1, XDATA, add(CFA_XSP16, literal(-13)))
        CFI (cfiCond29) V5 load(1, XDATA, add(CFA_XSP16, literal(-12)))
        CFI (cfiCond29) V6 load(1, XDATA, add(CFA_XSP16, literal(-11)))
        CFI (cfiCond29) V7 load(1, XDATA, add(CFA_XSP16, literal(-10)))
        CFI (cfiCond29) V8 load(1, XDATA, add(CFA_XSP16, literal(-9)))
        CFI (cfiCond29) V9 load(1, XDATA, add(CFA_XSP16, literal(-8)))
        CFI (cfiCond29) V10 load(1, XDATA, add(CFA_XSP16, literal(-7)))
        CFI (cfiCond29) R7 load(1, XDATA, add(CFA_XSP16, literal(-6)))
        CFI (cfiCond29) ?RET_LOW load(1, XDATA, add(CFA_XSP16, literal(-5)))
        CFI (cfiCond29) ?RET_HIGH load(1, XDATA, add(CFA_XSP16, literal(-4)))
        CFI (cfiCond29) ?BRET_EXT load(1, XDATA, add(CFA_XSP16, literal(-3)))
        CFI (cfiCond29) DPL0 load(1, XDATA, add(CFA_XSP16, literal(-2)))
        CFI (cfiCond29) DPH0 load(1, XDATA, add(CFA_XSP16, literal(-1)))
        CFI (cfiCond29) CFA_SP SP+0
        CFI (cfiCond29) CFA_XSP16 add(XSP16, 84)
        CFI Block cfiCond30 Using cfiCommon0
        CFI (cfiCond30) NoFunction
        CFI (cfiCond30) Conditional ??CrossCallReturnLabel_16
        CFI (cfiCond30) R6 load(1, XDATA, add(CFA_XSP16, literal(-19)))
        CFI (cfiCond30) VB load(1, XDATA, add(CFA_XSP16, literal(-18)))
        CFI (cfiCond30) V0 load(1, XDATA, add(CFA_XSP16, literal(-17)))
        CFI (cfiCond30) V1 load(1, XDATA, add(CFA_XSP16, literal(-16)))
        CFI (cfiCond30) V2 load(1, XDATA, add(CFA_XSP16, literal(-15)))
        CFI (cfiCond30) V3 load(1, XDATA, add(CFA_XSP16, literal(-14)))
        CFI (cfiCond30) V4 load(1, XDATA, add(CFA_XSP16, literal(-13)))
        CFI (cfiCond30) V5 load(1, XDATA, add(CFA_XSP16, literal(-12)))
        CFI (cfiCond30) V6 load(1, XDATA, add(CFA_XSP16, literal(-11)))
        CFI (cfiCond30) V7 load(1, XDATA, add(CFA_XSP16, literal(-10)))
        CFI (cfiCond30) V8 load(1, XDATA, add(CFA_XSP16, literal(-9)))
        CFI (cfiCond30) V9 load(1, XDATA, add(CFA_XSP16, literal(-8)))
        CFI (cfiCond30) V10 load(1, XDATA, add(CFA_XSP16, literal(-7)))
        CFI (cfiCond30) R7 load(1, XDATA, add(CFA_XSP16, literal(-6)))
        CFI (cfiCond30) ?RET_LOW load(1, XDATA, add(CFA_XSP16, literal(-5)))
        CFI (cfiCond30) ?RET_HIGH load(1, XDATA, add(CFA_XSP16, literal(-4)))
        CFI (cfiCond30) ?BRET_EXT load(1, XDATA, add(CFA_XSP16, literal(-3)))
        CFI (cfiCond30) DPL0 load(1, XDATA, add(CFA_XSP16, literal(-2)))
        CFI (cfiCond30) DPH0 load(1, XDATA, add(CFA_XSP16, literal(-1)))
        CFI (cfiCond30) CFA_SP SP+0
        CFI (cfiCond30) CFA_XSP16 add(XSP16, 84)
        CFI Block cfiCond31 Using cfiCommon0
        CFI (cfiCond31) NoFunction
        CFI (cfiCond31) Conditional ??CrossCallReturnLabel_17
        CFI (cfiCond31) R6 load(1, XDATA, add(CFA_XSP16, literal(-19)))
        CFI (cfiCond31) VB load(1, XDATA, add(CFA_XSP16, literal(-18)))
        CFI (cfiCond31) V0 load(1, XDATA, add(CFA_XSP16, literal(-17)))
        CFI (cfiCond31) V1 load(1, XDATA, add(CFA_XSP16, literal(-16)))
        CFI (cfiCond31) V2 load(1, XDATA, add(CFA_XSP16, literal(-15)))
        CFI (cfiCond31) V3 load(1, XDATA, add(CFA_XSP16, literal(-14)))
        CFI (cfiCond31) V4 load(1, XDATA, add(CFA_XSP16, literal(-13)))
        CFI (cfiCond31) V5 load(1, XDATA, add(CFA_XSP16, literal(-12)))
        CFI (cfiCond31) V6 load(1, XDATA, add(CFA_XSP16, literal(-11)))
        CFI (cfiCond31) V7 load(1, XDATA, add(CFA_XSP16, literal(-10)))
        CFI (cfiCond31) V8 load(1, XDATA, add(CFA_XSP16, literal(-9)))
        CFI (cfiCond31) V9 load(1, XDATA, add(CFA_XSP16, literal(-8)))
        CFI (cfiCond31) V10 load(1, XDATA, add(CFA_XSP16, literal(-7)))
        CFI (cfiCond31) R7 load(1, XDATA, add(CFA_XSP16, literal(-6)))
        CFI (cfiCond31) ?RET_LOW load(1, XDATA, add(CFA_XSP16, literal(-5)))
        CFI (cfiCond31) ?RET_HIGH load(1, XDATA, add(CFA_XSP16, literal(-4)))
        CFI (cfiCond31) ?BRET_EXT load(1, XDATA, add(CFA_XSP16, literal(-3)))
        CFI (cfiCond31) DPL0 load(1, XDATA, add(CFA_XSP16, literal(-2)))
        CFI (cfiCond31) DPH0 load(1, XDATA, add(CFA_XSP16, literal(-1)))
        CFI (cfiCond31) CFA_SP SP+0
        CFI (cfiCond31) CFA_XSP16 add(XSP16, 84)
        CFI Block cfiPicker32 Using cfiCommon1
        CFI (cfiPicker32) NoFunction
        CFI (cfiPicker32) Picker
        MOV     DPL,A
        MOV     A,R7
        CFI EndBlock cfiCond24
        CFI EndBlock cfiCond25
        CFI EndBlock cfiCond26
        CFI EndBlock cfiCond27
        CFI EndBlock cfiCond28
        CFI EndBlock cfiCond29
        CFI EndBlock cfiCond30
        CFI EndBlock cfiCond31
        CFI EndBlock cfiPicker32
        REQUIRE ??Subroutine7_0
        ; // Fall through to label ??Subroutine7_0

        RSEG BANKED_CODE:CODE:NOROOT(0)
??Subroutine7_0:
        CFI Block cfiCond33 Using cfiCommon0
        CFI NoFunction
        CFI Conditional ??CrossCallReturnLabel_7
        CFI R6 load(1, XDATA, add(CFA_XSP16, literal(-12)))
        CFI VB load(1, XDATA, add(CFA_XSP16, literal(-11)))
        CFI V0 load(1, XDATA, add(CFA_XSP16, literal(-10)))
        CFI V1 load(1, XDATA, add(CFA_XSP16, literal(-9)))
        CFI V2 load(1, XDATA, add(CFA_XSP16, literal(-8)))
        CFI V3 load(1, XDATA, add(CFA_XSP16, literal(-7)))
        CFI R7 load(1, XDATA, add(CFA_XSP16, literal(-6)))
        CFI ?RET_LOW load(1, XDATA, add(CFA_XSP16, literal(-5)))
        CFI ?RET_HIGH load(1, XDATA, add(CFA_XSP16, literal(-4)))
        CFI ?BRET_EXT load(1, XDATA, add(CFA_XSP16, literal(-3)))
        CFI DPL0 load(1, XDATA, add(CFA_XSP16, literal(-2)))
        CFI DPH0 load(1, XDATA, add(CFA_XSP16, literal(-1)))
        CFI CFA_SP SP+0
        CFI CFA_XSP16 add(XSP16, 23)
        CFI Block cfiCond34 Using cfiCommon0
        CFI (cfiCond34) NoFunction
        CFI (cfiCond34) Conditional ??CrossCallReturnLabel_8
        CFI (cfiCond34) R6 load(1, XDATA, add(CFA_XSP16, literal(-19)))
        CFI (cfiCond34) VB load(1, XDATA, add(CFA_XSP16, literal(-18)))
        CFI (cfiCond34) V0 load(1, XDATA, add(CFA_XSP16, literal(-17)))
        CFI (cfiCond34) V1 load(1, XDATA, add(CFA_XSP16, literal(-16)))
        CFI (cfiCond34) V2 load(1, XDATA, add(CFA_XSP16, literal(-15)))
        CFI (cfiCond34) V3 load(1, XDATA, add(CFA_XSP16, literal(-14)))
        CFI (cfiCond34) V4 load(1, XDATA, add(CFA_XSP16, literal(-13)))
        CFI (cfiCond34) V5 load(1, XDATA, add(CFA_XSP16, literal(-12)))
        CFI (cfiCond34) V6 load(1, XDATA, add(CFA_XSP16, literal(-11)))
        CFI (cfiCond34) V7 load(1, XDATA, add(CFA_XSP16, literal(-10)))
        CFI (cfiCond34) V8 load(1, XDATA, add(CFA_XSP16, literal(-9)))
        CFI (cfiCond34) V9 load(1, XDATA, add(CFA_XSP16, literal(-8)))
        CFI (cfiCond34) V10 load(1, XDATA, add(CFA_XSP16, literal(-7)))
        CFI (cfiCond34) R7 load(1, XDATA, add(CFA_XSP16, literal(-6)))
        CFI (cfiCond34) ?RET_LOW load(1, XDATA, add(CFA_XSP16, literal(-5)))
        CFI (cfiCond34) ?RET_HIGH load(1, XDATA, add(CFA_XSP16, literal(-4)))
        CFI (cfiCond34) ?BRET_EXT load(1, XDATA, add(CFA_XSP16, literal(-3)))
        CFI (cfiCond34) DPL0 load(1, XDATA, add(CFA_XSP16, literal(-2)))
        CFI (cfiCond34) DPH0 load(1, XDATA, add(CFA_XSP16, literal(-1)))
        CFI (cfiCond34) CFA_SP SP+0
        CFI (cfiCond34) CFA_XSP16 add(XSP16, 84)
        CFI Block cfiCond35 Using cfiCommon0
        CFI (cfiCond35) NoFunction
        CFI (cfiCond35) Conditional ??CrossCallReturnLabel_9
        CFI (cfiCond35) R6 load(1, XDATA, add(CFA_XSP16, literal(-19)))
        CFI (cfiCond35) VB load(1, XDATA, add(CFA_XSP16, literal(-18)))
        CFI (cfiCond35) V0 load(1, XDATA, add(CFA_XSP16, literal(-17)))
        CFI (cfiCond35) V1 load(1, XDATA, add(CFA_XSP16, literal(-16)))
        CFI (cfiCond35) V2 load(1, XDATA, add(CFA_XSP16, literal(-15)))
        CFI (cfiCond35) V3 load(1, XDATA, add(CFA_XSP16, literal(-14)))
        CFI (cfiCond35) V4 load(1, XDATA, add(CFA_XSP16, literal(-13)))
        CFI (cfiCond35) V5 load(1, XDATA, add(CFA_XSP16, literal(-12)))
        CFI (cfiCond35) V6 load(1, XDATA, add(CFA_XSP16, literal(-11)))
        CFI (cfiCond35) V7 load(1, XDATA, add(CFA_XSP16, literal(-10)))
        CFI (cfiCond35) V8 load(1, XDATA, add(CFA_XSP16, literal(-9)))
        CFI (cfiCond35) V9 load(1, XDATA, add(CFA_XSP16, literal(-8)))
        CFI (cfiCond35) V10 load(1, XDATA, add(CFA_XSP16, literal(-7)))
        CFI (cfiCond35) R7 load(1, XDATA, add(CFA_XSP16, literal(-6)))
        CFI (cfiCond35) ?RET_LOW load(1, XDATA, add(CFA_XSP16, literal(-5)))
        CFI (cfiCond35) ?RET_HIGH load(1, XDATA, add(CFA_XSP16, literal(-4)))
        CFI (cfiCond35) ?BRET_EXT load(1, XDATA, add(CFA_XSP16, literal(-3)))
        CFI (cfiCond35) DPL0 load(1, XDATA, add(CFA_XSP16, literal(-2)))
        CFI (cfiCond35) DPH0 load(1, XDATA, add(CFA_XSP16, literal(-1)))
        CFI (cfiCond35) CFA_SP SP+0
        CFI (cfiCond35) CFA_XSP16 add(XSP16, 84)
        CFI Block cfiCond36 Using cfiCommon0
        CFI (cfiCond36) NoFunction
        CFI (cfiCond36) Conditional ??CrossCallReturnLabel_10
        CFI (cfiCond36) R6 load(1, XDATA, add(CFA_XSP16, literal(-16)))
        CFI (cfiCond36) VB load(1, XDATA, add(CFA_XSP16, literal(-15)))
        CFI (cfiCond36) V0 load(1, XDATA, add(CFA_XSP16, literal(-14)))
        CFI (cfiCond36) V1 load(1, XDATA, add(CFA_XSP16, literal(-13)))
        CFI (cfiCond36) V2 load(1, XDATA, add(CFA_XSP16, literal(-12)))
        CFI (cfiCond36) V3 load(1, XDATA, add(CFA_XSP16, literal(-11)))
        CFI (cfiCond36) V4 load(1, XDATA, add(CFA_XSP16, literal(-10)))
        CFI (cfiCond36) V5 load(1, XDATA, add(CFA_XSP16, literal(-9)))
        CFI (cfiCond36) V6 load(1, XDATA, add(CFA_XSP16, literal(-8)))
        CFI (cfiCond36) V7 load(1, XDATA, add(CFA_XSP16, literal(-7)))
        CFI (cfiCond36) R7 load(1, XDATA, add(CFA_XSP16, literal(-6)))
        CFI (cfiCond36) ?RET_LOW load(1, XDATA, add(CFA_XSP16, literal(-5)))
        CFI (cfiCond36) ?RET_HIGH load(1, XDATA, add(CFA_XSP16, literal(-4)))
        CFI (cfiCond36) ?BRET_EXT load(1, XDATA, add(CFA_XSP16, literal(-3)))
        CFI (cfiCond36) DPL0 load(1, XDATA, add(CFA_XSP16, literal(-2)))
        CFI (cfiCond36) DPH0 load(1, XDATA, add(CFA_XSP16, literal(-1)))
        CFI (cfiCond36) CFA_SP SP+0
        CFI (cfiCond36) CFA_XSP16 add(XSP16, 24)
        CFI Block cfiCond37 Using cfiCommon0
        CFI (cfiCond37) NoFunction
        CFI (cfiCond37) Conditional ??CrossCallReturnLabel_11
        CFI (cfiCond37) R6 load(1, XDATA, add(CFA_XSP16, literal(-16)))
        CFI (cfiCond37) VB load(1, XDATA, add(CFA_XSP16, literal(-15)))
        CFI (cfiCond37) V0 load(1, XDATA, add(CFA_XSP16, literal(-14)))
        CFI (cfiCond37) V1 load(1, XDATA, add(CFA_XSP16, literal(-13)))
        CFI (cfiCond37) V2 load(1, XDATA, add(CFA_XSP16, literal(-12)))
        CFI (cfiCond37) V3 load(1, XDATA, add(CFA_XSP16, literal(-11)))
        CFI (cfiCond37) V4 load(1, XDATA, add(CFA_XSP16, literal(-10)))
        CFI (cfiCond37) V5 load(1, XDATA, add(CFA_XSP16, literal(-9)))
        CFI (cfiCond37) V6 load(1, XDATA, add(CFA_XSP16, literal(-8)))
        CFI (cfiCond37) V7 load(1, XDATA, add(CFA_XSP16, literal(-7)))
        CFI (cfiCond37) R7 load(1, XDATA, add(CFA_XSP16, literal(-6)))
        CFI (cfiCond37) ?RET_LOW load(1, XDATA, add(CFA_XSP16, literal(-5)))
        CFI (cfiCond37) ?RET_HIGH load(1, XDATA, add(CFA_XSP16, literal(-4)))
        CFI (cfiCond37) ?BRET_EXT load(1, XDATA, add(CFA_XSP16, literal(-3)))
        CFI (cfiCond37) DPL0 load(1, XDATA, add(CFA_XSP16, literal(-2)))
        CFI (cfiCond37) DPH0 load(1, XDATA, add(CFA_XSP16, literal(-1)))
        CFI (cfiCond37) CFA_SP SP+0
        CFI (cfiCond37) CFA_XSP16 add(XSP16, 24)
        CFI Block cfiCond38 Using cfiCommon0
        CFI (cfiCond38) NoFunction
        CFI (cfiCond38) Conditional ??CrossCallReturnLabel_12
        CFI (cfiCond38) R6 load(1, XDATA, add(CFA_XSP16, literal(-16)))
        CFI (cfiCond38) VB load(1, XDATA, add(CFA_XSP16, literal(-15)))
        CFI (cfiCond38) V0 load(1, XDATA, add(CFA_XSP16, literal(-14)))
        CFI (cfiCond38) V1 load(1, XDATA, add(CFA_XSP16, literal(-13)))
        CFI (cfiCond38) V2 load(1, XDATA, add(CFA_XSP16, literal(-12)))
        CFI (cfiCond38) V3 load(1, XDATA, add(CFA_XSP16, literal(-11)))
        CFI (cfiCond38) V4 load(1, XDATA, add(CFA_XSP16, literal(-10)))
        CFI (cfiCond38) V5 load(1, XDATA, add(CFA_XSP16, literal(-9)))
        CFI (cfiCond38) V6 load(1, XDATA, add(CFA_XSP16, literal(-8)))
        CFI (cfiCond38) V7 load(1, XDATA, add(CFA_XSP16, literal(-7)))
        CFI (cfiCond38) R7 load(1, XDATA, add(CFA_XSP16, literal(-6)))
        CFI (cfiCond38) ?RET_LOW load(1, XDATA, add(CFA_XSP16, literal(-5)))
        CFI (cfiCond38) ?RET_HIGH load(1, XDATA, add(CFA_XSP16, literal(-4)))
        CFI (cfiCond38) ?BRET_EXT load(1, XDATA, add(CFA_XSP16, literal(-3)))
        CFI (cfiCond38) DPL0 load(1, XDATA, add(CFA_XSP16, literal(-2)))
        CFI (cfiCond38) DPH0 load(1, XDATA, add(CFA_XSP16, literal(-1)))
        CFI (cfiCond38) CFA_SP SP+0
        CFI (cfiCond38) CFA_XSP16 add(XSP16, 24)
        CFI Block cfiCond39 Using cfiCommon0
        CFI (cfiCond39) NoFunction
        CFI (cfiCond39) Conditional ??CrossCallReturnLabel_13
        CFI (cfiCond39) R6 load(1, XDATA, add(CFA_XSP16, literal(-19)))
        CFI (cfiCond39) VB load(1, XDATA, add(CFA_XSP16, literal(-18)))
        CFI (cfiCond39) V0 load(1, XDATA, add(CFA_XSP16, literal(-17)))
        CFI (cfiCond39) V1 load(1, XDATA, add(CFA_XSP16, literal(-16)))
        CFI (cfiCond39) V2 load(1, XDATA, add(CFA_XSP16, literal(-15)))
        CFI (cfiCond39) V3 load(1, XDATA, add(CFA_XSP16, literal(-14)))
        CFI (cfiCond39) V4 load(1, XDATA, add(CFA_XSP16, literal(-13)))
        CFI (cfiCond39) V5 load(1, XDATA, add(CFA_XSP16, literal(-12)))
        CFI (cfiCond39) V6 load(1, XDATA, add(CFA_XSP16, literal(-11)))
        CFI (cfiCond39) V7 load(1, XDATA, add(CFA_XSP16, literal(-10)))
        CFI (cfiCond39) V8 load(1, XDATA, add(CFA_XSP16, literal(-9)))
        CFI (cfiCond39) V9 load(1, XDATA, add(CFA_XSP16, literal(-8)))
        CFI (cfiCond39) V10 load(1, XDATA, add(CFA_XSP16, literal(-7)))
        CFI (cfiCond39) R7 load(1, XDATA, add(CFA_XSP16, literal(-6)))
        CFI (cfiCond39) ?RET_LOW load(1, XDATA, add(CFA_XSP16, literal(-5)))
        CFI (cfiCond39) ?RET_HIGH load(1, XDATA, add(CFA_XSP16, literal(-4)))
        CFI (cfiCond39) ?BRET_EXT load(1, XDATA, add(CFA_XSP16, literal(-3)))
        CFI (cfiCond39) DPL0 load(1, XDATA, add(CFA_XSP16, literal(-2)))
        CFI (cfiCond39) DPH0 load(1, XDATA, add(CFA_XSP16, literal(-1)))
        CFI (cfiCond39) CFA_SP SP+0
        CFI (cfiCond39) CFA_XSP16 add(XSP16, 84)
        CFI Block cfiCond40 Using cfiCommon0
        CFI (cfiCond40) NoFunction
        CFI (cfiCond40) Conditional ??CrossCallReturnLabel_14
        CFI (cfiCond40) R6 load(1, XDATA, add(CFA_XSP16, literal(-19)))
        CFI (cfiCond40) VB load(1, XDATA, add(CFA_XSP16, literal(-18)))
        CFI (cfiCond40) V0 load(1, XDATA, add(CFA_XSP16, literal(-17)))
        CFI (cfiCond40) V1 load(1, XDATA, add(CFA_XSP16, literal(-16)))
        CFI (cfiCond40) V2 load(1, XDATA, add(CFA_XSP16, literal(-15)))
        CFI (cfiCond40) V3 load(1, XDATA, add(CFA_XSP16, literal(-14)))
        CFI (cfiCond40) V4 load(1, XDATA, add(CFA_XSP16, literal(-13)))
        CFI (cfiCond40) V5 load(1, XDATA, add(CFA_XSP16, literal(-12)))
        CFI (cfiCond40) V6 load(1, XDATA, add(CFA_XSP16, literal(-11)))
        CFI (cfiCond40) V7 load(1, XDATA, add(CFA_XSP16, literal(-10)))
        CFI (cfiCond40) V8 load(1, XDATA, add(CFA_XSP16, literal(-9)))
        CFI (cfiCond40) V9 load(1, XDATA, add(CFA_XSP16, literal(-8)))
        CFI (cfiCond40) V10 load(1, XDATA, add(CFA_XSP16, literal(-7)))
        CFI (cfiCond40) R7 load(1, XDATA, add(CFA_XSP16, literal(-6)))
        CFI (cfiCond40) ?RET_LOW load(1, XDATA, add(CFA_XSP16, literal(-5)))
        CFI (cfiCond40) ?RET_HIGH load(1, XDATA, add(CFA_XSP16, literal(-4)))
        CFI (cfiCond40) ?BRET_EXT load(1, XDATA, add(CFA_XSP16, literal(-3)))
        CFI (cfiCond40) DPL0 load(1, XDATA, add(CFA_XSP16, literal(-2)))
        CFI (cfiCond40) DPH0 load(1, XDATA, add(CFA_XSP16, literal(-1)))
        CFI (cfiCond40) CFA_SP SP+0
        CFI (cfiCond40) CFA_XSP16 add(XSP16, 84)
        CFI Block cfiCond41 Using cfiCommon0
        CFI (cfiCond41) NoFunction
        CFI (cfiCond41) Conditional ??CrossCallReturnLabel_15
        CFI (cfiCond41) R6 load(1, XDATA, add(CFA_XSP16, literal(-19)))
        CFI (cfiCond41) VB load(1, XDATA, add(CFA_XSP16, literal(-18)))
        CFI (cfiCond41) V0 load(1, XDATA, add(CFA_XSP16, literal(-17)))
        CFI (cfiCond41) V1 load(1, XDATA, add(CFA_XSP16, literal(-16)))
        CFI (cfiCond41) V2 load(1, XDATA, add(CFA_XSP16, literal(-15)))
        CFI (cfiCond41) V3 load(1, XDATA, add(CFA_XSP16, literal(-14)))
        CFI (cfiCond41) V4 load(1, XDATA, add(CFA_XSP16, literal(-13)))
        CFI (cfiCond41) V5 load(1, XDATA, add(CFA_XSP16, literal(-12)))
        CFI (cfiCond41) V6 load(1, XDATA, add(CFA_XSP16, literal(-11)))
        CFI (cfiCond41) V7 load(1, XDATA, add(CFA_XSP16, literal(-10)))
        CFI (cfiCond41) V8 load(1, XDATA, add(CFA_XSP16, literal(-9)))
        CFI (cfiCond41) V9 load(1, XDATA, add(CFA_XSP16, literal(-8)))
        CFI (cfiCond41) V10 load(1, XDATA, add(CFA_XSP16, literal(-7)))
        CFI (cfiCond41) R7 load(1, XDATA, add(CFA_XSP16, literal(-6)))
        CFI (cfiCond41) ?RET_LOW load(1, XDATA, add(CFA_XSP16, literal(-5)))
        CFI (cfiCond41) ?RET_HIGH load(1, XDATA, add(CFA_XSP16, literal(-4)))
        CFI (cfiCond41) ?BRET_EXT load(1, XDATA, add(CFA_XSP16, literal(-3)))
        CFI (cfiCond41) DPL0 load(1, XDATA, add(CFA_XSP16, literal(-2)))
        CFI (cfiCond41) DPH0 load(1, XDATA, add(CFA_XSP16, literal(-1)))
        CFI (cfiCond41) CFA_SP SP+0
        CFI (cfiCond41) CFA_XSP16 add(XSP16, 84)
        CFI Block cfiCond42 Using cfiCommon0
        CFI (cfiCond42) NoFunction
        CFI (cfiCond42) Conditional ??CrossCallReturnLabel_16
        CFI (cfiCond42) R6 load(1, XDATA, add(CFA_XSP16, literal(-19)))
        CFI (cfiCond42) VB load(1, XDATA, add(CFA_XSP16, literal(-18)))
        CFI (cfiCond42) V0 load(1, XDATA, add(CFA_XSP16, literal(-17)))
        CFI (cfiCond42) V1 load(1, XDATA, add(CFA_XSP16, literal(-16)))
        CFI (cfiCond42) V2 load(1, XDATA, add(CFA_XSP16, literal(-15)))
        CFI (cfiCond42) V3 load(1, XDATA, add(CFA_XSP16, literal(-14)))
        CFI (cfiCond42) V4 load(1, XDATA, add(CFA_XSP16, literal(-13)))
        CFI (cfiCond42) V5 load(1, XDATA, add(CFA_XSP16, literal(-12)))
        CFI (cfiCond42) V6 load(1, XDATA, add(CFA_XSP16, literal(-11)))
        CFI (cfiCond42) V7 load(1, XDATA, add(CFA_XSP16, literal(-10)))
        CFI (cfiCond42) V8 load(1, XDATA, add(CFA_XSP16, literal(-9)))
        CFI (cfiCond42) V9 load(1, XDATA, add(CFA_XSP16, literal(-8)))
        CFI (cfiCond42) V10 load(1, XDATA, add(CFA_XSP16, literal(-7)))
        CFI (cfiCond42) R7 load(1, XDATA, add(CFA_XSP16, literal(-6)))
        CFI (cfiCond42) ?RET_LOW load(1, XDATA, add(CFA_XSP16, literal(-5)))
        CFI (cfiCond42) ?RET_HIGH load(1, XDATA, add(CFA_XSP16, literal(-4)))
        CFI (cfiCond42) ?BRET_EXT load(1, XDATA, add(CFA_XSP16, literal(-3)))
        CFI (cfiCond42) DPL0 load(1, XDATA, add(CFA_XSP16, literal(-2)))
        CFI (cfiCond42) DPH0 load(1, XDATA, add(CFA_XSP16, literal(-1)))
        CFI (cfiCond42) CFA_SP SP+0
        CFI (cfiCond42) CFA_XSP16 add(XSP16, 84)
        CFI Block cfiCond43 Using cfiCommon0
        CFI (cfiCond43) NoFunction
        CFI (cfiCond43) Conditional ??CrossCallReturnLabel_17
        CFI (cfiCond43) R6 load(1, XDATA, add(CFA_XSP16, literal(-19)))
        CFI (cfiCond43) VB load(1, XDATA, add(CFA_XSP16, literal(-18)))
        CFI (cfiCond43) V0 load(1, XDATA, add(CFA_XSP16, literal(-17)))
        CFI (cfiCond43) V1 load(1, XDATA, add(CFA_XSP16, literal(-16)))
        CFI (cfiCond43) V2 load(1, XDATA, add(CFA_XSP16, literal(-15)))
        CFI (cfiCond43) V3 load(1, XDATA, add(CFA_XSP16, literal(-14)))
        CFI (cfiCond43) V4 load(1, XDATA, add(CFA_XSP16, literal(-13)))
        CFI (cfiCond43) V5 load(1, XDATA, add(CFA_XSP16, literal(-12)))
        CFI (cfiCond43) V6 load(1, XDATA, add(CFA_XSP16, literal(-11)))
        CFI (cfiCond43) V7 load(1, XDATA, add(CFA_XSP16, literal(-10)))
        CFI (cfiCond43) V8 load(1, XDATA, add(CFA_XSP16, literal(-9)))
        CFI (cfiCond43) V9 load(1, XDATA, add(CFA_XSP16, literal(-8)))
        CFI (cfiCond43) V10 load(1, XDATA, add(CFA_XSP16, literal(-7)))
        CFI (cfiCond43) R7 load(1, XDATA, add(CFA_XSP16, literal(-6)))
        CFI (cfiCond43) ?RET_LOW load(1, XDATA, add(CFA_XSP16, literal(-5)))
        CFI (cfiCond43) ?RET_HIGH load(1, XDATA, add(CFA_XSP16, literal(-4)))
        CFI (cfiCond43) ?BRET_EXT load(1, XDATA, add(CFA_XSP16, literal(-3)))
        CFI (cfiCond43) DPL0 load(1, XDATA, add(CFA_XSP16, literal(-2)))
        CFI (cfiCond43) DPH0 load(1, XDATA, add(CFA_XSP16, literal(-1)))
        CFI (cfiCond43) CFA_SP SP+0
        CFI (cfiCond43) CFA_XSP16 add(XSP16, 84)
        CFI Block cfiPicker44 Using cfiCommon1
        CFI (cfiPicker44) NoFunction
        CFI (cfiPicker44) Picker
        ADDC    A,#0x0
        MOV     DPH,A
        MOVX    A,@DPTR
        RET
        CFI EndBlock cfiCond33
        CFI EndBlock cfiCond34
        CFI EndBlock cfiCond35
        CFI EndBlock cfiCond36
        CFI EndBlock cfiCond37
        CFI EndBlock cfiCond38
        CFI EndBlock cfiCond39
        CFI EndBlock cfiCond40
        CFI EndBlock cfiCond41
        CFI EndBlock cfiCond42
        CFI EndBlock cfiCond43
        CFI EndBlock cfiPicker44

        RSEG XDATA_ID:CODE:NOROOT(0)
`?<Initializer for GwCoord_TaskID>`:
        DATA8
        DB 255

        RSEG XDATA_ID:CODE:NOROOT(0)
`?<Initializer for s_inClusters>`:
        DATA16
        DW 1026
        DW 1029
        DW 1024
        DW 6

        RSEG XDATA_ID:CODE:NOROOT(0)
`?<Initializer for s_outClusters>`:
        DATA16
        DW 6

        RSEG XDATA_ID:CODE:NOROOT(0)
`?<Initializer for __Constant_3e419>`:
        DATA32
        DD 255001

        RSEG XDATA_ID:CODE:NOROOT(0)
`?<Initializer for __Constant_3e8>`:
        DATA32
        DD 1000

        RSEG BANK_RELAYS:CODE:REORDER:NOROOT(0)
??GwCoord_SendFrame?relay:
        LCALL   ?BDISPATCH
        DATA
        DC24    GwCoord_SendFrame

        RSEG BANK_RELAYS:CODE:REORDER:NOROOT(0)
??GwCoord_SendErr?relay:
        LCALL   ?BDISPATCH
        DATA
        DC24    GwCoord_SendErr

        RSEG BANK_RELAYS:CODE:REORDER:NOROOT(0)
??GwCoord_SendNodeInfo?relay:
        LCALL   ?BDISPATCH
        DATA
        DC24    GwCoord_SendNodeInfo

        RSEG BANK_RELAYS:CODE:REORDER:NOROOT(0)
??GwCoord_SendNetStatus?relay:
        LCALL   ?BDISPATCH
        DATA
        DC24    GwCoord_SendNetStatus

        RSEG BANK_RELAYS:CODE:REORDER:NOROOT(0)
??GwCoord_RefreshLocalDisplay?relay:
        LCALL   ?BDISPATCH
        DATA
        DC24    GwCoord_RefreshLocalDisplay

        RSEG BANK_RELAYS:CODE:REORDER:NOROOT(0)
??GwCoord_OnFrame?relay:
        LCALL   ?BDISPATCH
        DATA
        DC24    GwCoord_OnFrame

        RSEG BANK_RELAYS:CODE:REORDER:NOROOT(0)
??GwCoord_Init?relay:
        LCALL   ?BDISPATCH
        DATA
        DC24    GwCoord_Init

        RSEG BANK_RELAYS:CODE:REORDER:NOROOT(0)
??GwCoord_ProcessEvent?relay:
        LCALL   ?BDISPATCH
        DATA
        DC24    GwCoord_ProcessEvent

        RSEG BANK_RELAYS:CODE:REORDER:NOROOT(0)
??af_to_zb_report?relay:
        LCALL   ?BDISPATCH
        DATA
        DC24    af_to_zb_report

        END
//  329 
//  330 static void on_af_incoming(afIncomingMSGPacket_t *pkt)
//  331 {
//  332     HalLedSet(HAL_LED_2, HAL_LED_MODE_BLINK);
//  333     af_to_zb_report(pkt);
//  334 }
//  335 
//  336 static uint8 role_from_cluster(uint16 cluster)
//  337 {
//  338     if (cluster == ZCL_CLU_TEMP || cluster == ZCL_CLU_HUM) {
//  339         return ZB_ROLE_TEMP_HUM;
//  340     }
//  341     if (cluster == ZCL_CLU_LUX) {
//  342         return ZB_ROLE_LUX;
//  343     }
//  344     return ZB_ROLE_UNKNOWN;
//  345 }
//  346 
//  347 static uint8 device_type_from_capabilities(uint8 cap)
//  348 {
//  349     return (cap & CAPINFO_DEVICETYPE_FFD) ? ZB_DEV_ROUTER : ZB_DEV_ENDDEV;
//  350 }
// 
// 1 788 bytes in segment BANKED_CODE
//    54 bytes in segment BANK_RELAYS
//    19 bytes in segment XDATA_I
//    19 bytes in segment XDATA_ID
//    87 bytes in segment XDATA_Z
// 
// 1 853 bytes of CODE  memory (+ 8 bytes shared)
//    98 bytes of XDATA memory (+ 8 bytes shared)
//
//Errors: none
//Warnings: 1
