///////////////////////////////////////////////////////////////////////////////
//                                                                            /
// IAR C/C++ Compiler V8.10.3.10338/W32 for 8051        18/Apr/2026  15:16:33 /
// Copyright 2004-2011 IAR Systems AB.                                        /
//                                                                            /
//    Core               =  plain                                             /
//    Code model         =  banked                                            /
//    Data model         =  large                                             /
//    Calling convention =  xdata reentrant                                   /
//    Constant location  =  data_rom                                          /
//    Dptr setup         =  1,16                                              /
//    Source file        =  D:\ZNJJ\ZStack-CC2530-2.5.1a\Projects\zstack\Samp /
//                          les\GwCoord\Source\oled_ssd1306.c                 /
//    Command line       =  -f D:\ZNJJ\ZStack-CC2530-2.5.1a\Projects\zstack\S /
//                          amples\GwCoord\CC2530DB\..\..\..\Tools\CC2530DB\f /
//                          8wCoord.cfg (-DCPU32MHZ -DROOT=__near_func        /
//                          -DMAC_CFG_APP_PENDING_QUEUE=TRUE                  /
//                          -DMAC_CFG_TX_DATA_MAX=5 -DMAC_CFG_TX_MAX=8        /
//                          -DMAC_CFG_RX_MAX=5 -DZDO_COORDINATOR -DRTR_NWK)   /
//                          -f D:\ZNJJ\ZStack-CC2530-2.5.1a\Projects\zstack\S /
//                          amples\GwCoord\CC2530DB\..\..\..\Tools\CC2530DB\f /
//                          8wConfig.cfg (-DZIGBEEPRO -DSECURE=0              /
//                          -DZG_SECURE_DYNAMIC=0 -DREFLECTOR                 /
//                          -DDEFAULT_CHANLIST=0x00000800                     /
//                          -DZDAPP_CONFIG_PAN_ID=0xFFFF                      /
//                          -DNWK_START_DELAY=100 -DEXTENDED_JOINING_RANDOM_M /
//                          ASK=0x007F -DBEACON_REQUEST_DELAY=100             /
//                          -DBEACON_REQ_DELAY_MASK=0x00FF                    /
//                          -DLINK_STATUS_JITTER_MASK=0x007F                  /
//                          -DROUTE_EXPIRY_TIME=30 -DAPSC_ACK_WAIT_DURATION_P /
//                          OLLED=3000 -DNWK_INDIRECT_MSG_TIMEOUT=7           /
//                          -DMAX_RREQ_ENTRIES=8 -DAPSC_MAX_FRAME_RETRIES=3   /
//                          -DNWK_MAX_DATA_RETRIES=2                          /
//                          -DMAX_POLL_FAILURE_RETRIES=2 -DMAX_BCAST=9        /
//                          -DAPS_MAX_GROUPS=16 -DMAX_RTG_ENTRIES=40          /
//                          -DNWK_MAX_BINDING_ENTRIES=4                       /
//                          -DMAX_BINDING_CLUSTER_IDS=4                       /
//                          "-DDEFAULT_KEY={0x01, 0x03, 0x05, 0x07, 0x09,     /
//                          0x0B, 0x0D, 0x0F, 0x00, 0x02, 0x04, 0x06, 0x08,   /
//                          0x0A, 0x0C, 0x0D}" -DMAC_MAX_FRAME_SIZE=116       /
//                          -DZDNWKMGR_MIN_TRANSMISSIONS=20 "-DCONST=const    /
//                          __code" -DGENERIC=__generic                       /
//                          -DRFD_RCVC_ALWAYS_ON=FALSE -DPOLL_RATE=1000       /
//                          -DQUEUED_POLL_RATE=100 -DRESPONSE_POLL_RATE=100)  /
//                          -DREJOIN_POLL_RATE=440 D:\ZNJJ\ZStack-CC2530-2.5. /
//                          1a\Projects\zstack\Samples\GwCoord\Source\oled_ss /
//                          d1306.c -D HAL_UART=TRUE -lC                      /
//                          D:\ZNJJ\ZStack-CC2530-2.5.1a\Projects\zstack\Samp /
//                          les\GwCoord\CC2530DB\CoordinatorEB\List\ -lA      /
//                          D:\ZNJJ\ZStack-CC2530-2.5.1a\Projects\zstack\Samp /
//                          les\GwCoord\CC2530DB\CoordinatorEB\List\          /
//                          --diag_suppress Pe001,Pa010 -o                    /
//                          D:\ZNJJ\ZStack-CC2530-2.5.1a\Projects\zstack\Samp /
//                          les\GwCoord\CC2530DB\CoordinatorEB\Obj\ -e        /
//                          --no_code_motion --debug --core=plain             /
//                          --dptr=16,1 --data_model=large                    /
//                          --code_model=banked --calling_convention=xdata_re /
//                          entrant --place_constants=data_rom                /
//                          --nr_virtual_regs 16 -I                           /
//                          D:\ZNJJ\ZStack-CC2530-2.5.1a\Projects\zstack\Samp /
//                          les\GwCoord\CC2530DB\ -I                          /
//                          D:\ZNJJ\ZStack-CC2530-2.5.1a\Projects\zstack\Samp /
//                          les\GwCoord\CC2530DB\..\Source\ -I                /
//                          D:\ZNJJ\ZStack-CC2530-2.5.1a\Projects\zstack\Samp /
//                          les\GwCoord\CC2530DB\..\..\..\ZMain\TI2530DB\ -I  /
//                          D:\ZNJJ\ZStack-CC2530-2.5.1a\Projects\zstack\Samp /
//                          les\GwCoord\CC2530DB\..\..\..\..\..\Components\ha /
//                          l\include\ -I D:\ZNJJ\ZStack-CC2530-2.5.1a\Projec /
//                          ts\zstack\Samples\GwCoord\CC2530DB\..\..\..\..\.. /
//                          \Components\hal\target\CC2530EB\ -I               /
//                          D:\ZNJJ\ZStack-CC2530-2.5.1a\Projects\zstack\Samp /
//                          les\GwCoord\CC2530DB\..\..\..\..\..\Components\ma /
//                          c\include\ -I D:\ZNJJ\ZStack-CC2530-2.5.1a\Projec /
//                          ts\zstack\Samples\GwCoord\CC2530DB\..\..\..\..\.. /
//                          \Components\mac\high_level\ -I                    /
//                          D:\ZNJJ\ZStack-CC2530-2.5.1a\Projects\zstack\Samp /
//                          les\GwCoord\CC2530DB\..\..\..\..\..\Components\ma /
//                          c\low_level\srf04\ -I D:\ZNJJ\ZStack-CC2530-2.5.1 /
//                          a\Projects\zstack\Samples\GwCoord\CC2530DB\..\..\ /
//                          ..\..\..\Components\mac\low_level\srf04\single_ch /
//                          ip\ -I D:\ZNJJ\ZStack-CC2530-2.5.1a\Projects\zsta /
//                          ck\Samples\GwCoord\CC2530DB\..\..\..\..\..\Compon /
//                          ents\mt\ -I D:\ZNJJ\ZStack-CC2530-2.5.1a\Projects /
//                          \zstack\Samples\GwCoord\CC2530DB\..\..\..\..\..\C /
//                          omponents\osal\include\ -I                        /
//                          D:\ZNJJ\ZStack-CC2530-2.5.1a\Projects\zstack\Samp /
//                          les\GwCoord\CC2530DB\..\..\..\..\..\Components\se /
//                          rvices\saddr\ -I D:\ZNJJ\ZStack-CC2530-2.5.1a\Pro /
//                          jects\zstack\Samples\GwCoord\CC2530DB\..\..\..\.. /
//                          \..\Components\services\sdata\ -I                 /
//                          D:\ZNJJ\ZStack-CC2530-2.5.1a\Projects\zstack\Samp /
//                          les\GwCoord\CC2530DB\..\..\..\..\..\Components\st /
//                          ack\af\ -I D:\ZNJJ\ZStack-CC2530-2.5.1a\Projects\ /
//                          zstack\Samples\GwCoord\CC2530DB\..\..\..\..\..\Co /
//                          mponents\stack\nwk\ -I D:\ZNJJ\ZStack-CC2530-2.5. /
//                          1a\Projects\zstack\Samples\GwCoord\CC2530DB\..\.. /
//                          \..\..\..\Components\stack\sapi\ -I               /
//                          D:\ZNJJ\ZStack-CC2530-2.5.1a\Projects\zstack\Samp /
//                          les\GwCoord\CC2530DB\..\..\..\..\..\Components\st /
//                          ack\sec\ -I D:\ZNJJ\ZStack-CC2530-2.5.1a\Projects /
//                          \zstack\Samples\GwCoord\CC2530DB\..\..\..\..\..\C /
//                          omponents\stack\sys\ -I                           /
//                          D:\ZNJJ\ZStack-CC2530-2.5.1a\Projects\zstack\Samp /
//                          les\GwCoord\CC2530DB\..\..\..\..\..\Components\st /
//                          ack\zdo\ -I D:\ZNJJ\ZStack-CC2530-2.5.1a\Projects /
//                          \zstack\Samples\GwCoord\CC2530DB\..\..\..\..\..\C /
//                          omponents\zmac\ -I D:\ZNJJ\ZStack-CC2530-2.5.1a\P /
//                          rojects\zstack\Samples\GwCoord\CC2530DB\..\..\..\ /
//                          ..\..\Components\zmac\f8w\ -Ohz                   /
//                          --require_prototypes                              /
//    List file          =  D:\ZNJJ\ZStack-CC2530-2.5.1a\Projects\zstack\Samp /
//                          les\GwCoord\CC2530DB\CoordinatorEB\List\oled_ssd1 /
//                          306.s51                                           /
//                                                                            /
//                                                                            /
///////////////////////////////////////////////////////////////////////////////

        NAME oled_ssd1306

        RTMODEL "__SystemLibrary", "CLib"
        RTMODEL "__calling_convention", "xdata_reentrant"
        RTMODEL "__code_model", "banked"
        RTMODEL "__core", "plain"
        RTMODEL "__data_model", "large"
        RTMODEL "__dptr_size", "16"
        RTMODEL "__extended_stack", "disabled"
        RTMODEL "__location_for_constants", "data"
        RTMODEL "__number_of_dptrs", "1"
        RTMODEL "__rt_version", "1"

        RSEG DOVERLAY:DATA:NOROOT(0)
        RSEG IOVERLAY:IDATA:NOROOT(0)
        RSEG ISTACK:IDATA:NOROOT(0)
        RSEG PSTACK:XDATA:NOROOT(0)
        RSEG XSTACK:XDATA:NOROOT(0)

        EXTERN ?BANKED_ENTER_XDATA
        EXTERN ?BANKED_LEAVE_XDATA
        EXTERN ?BDISPATCH
        EXTERN ?S_SHL
        EXTERN ?V0

        FUNCTION ??oled_set_pos?relay,0203H
        PUBLIC ??oled_ssd1306_clear?relay
        FUNCTION ??oled_ssd1306_clear?relay,0203H
        PUBLIC ??oled_ssd1306_draw_text?relay
        FUNCTION ??oled_ssd1306_draw_text?relay,0203H
        PUBLIC ??oled_ssd1306_init?relay
        FUNCTION ??oled_ssd1306_init?relay,0203H
        FUNCTION ??oled_write?relay,0203H
        FUNCTION oled_set_pos,021203H
        ARGFRAME XSTACK, 16, STACK
        ARGFRAME IOVERLAY, 0, STATIC
        ARGFRAME DOVERLAY, 0, STATIC
        LOCFRAME XSTACK, 9, STACK
        PUBLIC oled_ssd1306_clear
        FUNCTION oled_ssd1306_clear,021203H
        ARGFRAME XSTACK, 10, STACK
        ARGFRAME IOVERLAY, 0, STATIC
        ARGFRAME DOVERLAY, 0, STATIC
        LOCFRAME XSTACK, 9, STACK
        PUBLIC oled_ssd1306_draw_text
        FUNCTION oled_ssd1306_draw_text,021203H
        ARGFRAME XSTACK, 0, STACK
        LOCFRAME XSTACK, 16, STACK
        PUBLIC oled_ssd1306_init
        FUNCTION oled_ssd1306_init,021203H
        ARGFRAME XSTACK, 0, STACK
        LOCFRAME XSTACK, 10, STACK
        FUNCTION oled_write,021203H
        ARGFRAME XSTACK, 16, STACK
        ARGFRAME IOVERLAY, 0, STATIC
        ARGFRAME DOVERLAY, 0, STATIC
        LOCFRAME XSTACK, 9, STACK
        
        CFI Names cfiNames0
        CFI StackFrame CFA_SP SP IDATA
        CFI StackFrame CFA_PSP16 PSP16 XDATA
        CFI StackFrame CFA_XSP16 XSP16 XDATA
        CFI StaticOverlayFrame CFA_IOVERLAY IOVERLAY
        CFI StaticOverlayFrame CFA_DOVERLAY DOVERLAY
        CFI Resource `PSW.CY`:1, `B.BR0`:1, `B.BR1`:1, `B.BR2`:1, `B.BR3`:1
        CFI Resource `B.BR4`:1, `B.BR5`:1, `B.BR6`:1, `B.BR7`:1, `VB.BR8`:1
        CFI Resource `VB.BR9`:1, `VB.BR10`:1, `VB.BR11`:1, `VB.BR12`:1
        CFI Resource `VB.BR13`:1, `VB.BR14`:1, `VB.BR15`:1, VB:8, B:8, A:8
        CFI Resource PSW:8, DPL0:8, DPH0:8, R0:8, R1:8, R2:8, R3:8, R4:8, R5:8
        CFI Resource R6:8, R7:8, V0:8, V1:8, V2:8, V3:8, V4:8, V5:8, V6:8, V7:8
        CFI Resource V8:8, V9:8, V10:8, V11:8, V12:8, V13:8, V14:8, V15:8, SP:8
        CFI Resource PSPH:8, PSPL:8, PSP16:16, XSPH:8, XSPL:8, XSP16:16
        CFI VirtualResource ?RET:24
        CFI Resource ?BRET_EXT:8
        CFI VirtualResource ?RET_HIGH:8, ?RET_LOW:8
        CFI ResourceParts PSP16 PSPH, PSPL
        CFI ResourceParts XSP16 XSPH, XSPL
        CFI ResourceParts ?RET ?BRET_EXT, ?RET_HIGH, ?RET_LOW
        CFI EndNames cfiNames0
        
        CFI Common cfiCommon0 Using cfiNames0
        CFI CodeAlign 1
        CFI DataAlign -1
        CFI ReturnAddress ?RET CODE
        CFI CFA_DOVERLAY Used
        CFI CFA_IOVERLAY Used
        CFI CFA_SP SP+-3
        CFI CFA_PSP16 PSP16+0
        CFI CFA_XSP16 XSP16+0
        CFI `PSW.CY` SameValue
        CFI `B.BR0` SameValue
        CFI `B.BR1` SameValue
        CFI `B.BR2` SameValue
        CFI `B.BR3` SameValue
        CFI `B.BR4` SameValue
        CFI `B.BR5` SameValue
        CFI `B.BR6` SameValue
        CFI `B.BR7` SameValue
        CFI `VB.BR8` SameValue
        CFI `VB.BR9` SameValue
        CFI `VB.BR10` SameValue
        CFI `VB.BR11` SameValue
        CFI `VB.BR12` SameValue
        CFI `VB.BR13` SameValue
        CFI `VB.BR14` SameValue
        CFI `VB.BR15` SameValue
        CFI VB SameValue
        CFI B Undefined
        CFI A Undefined
        CFI PSW SameValue
        CFI DPL0 SameValue
        CFI DPH0 SameValue
        CFI R0 Undefined
        CFI R1 Undefined
        CFI R2 Undefined
        CFI R3 Undefined
        CFI R4 Undefined
        CFI R5 Undefined
        CFI R6 SameValue
        CFI R7 SameValue
        CFI V0 SameValue
        CFI V1 SameValue
        CFI V2 SameValue
        CFI V3 SameValue
        CFI V4 SameValue
        CFI V5 SameValue
        CFI V6 SameValue
        CFI V7 SameValue
        CFI V8 SameValue
        CFI V9 SameValue
        CFI V10 SameValue
        CFI V11 SameValue
        CFI V12 SameValue
        CFI V13 SameValue
        CFI V14 SameValue
        CFI V15 SameValue
        CFI PSPH Undefined
        CFI PSPL Undefined
        CFI XSPH Undefined
        CFI XSPL Undefined
        CFI ?RET Concat
        CFI ?BRET_EXT Frame(CFA_SP, 3)
        CFI ?RET_HIGH Frame(CFA_SP, 2)
        CFI ?RET_LOW Frame(CFA_SP, 1)
        CFI EndCommon cfiCommon0
        
        
        CFI Common cfiCommon1 Using cfiNames0
        CFI CodeAlign 1
        CFI DataAlign -1
        CFI ReturnAddress ?RET CODE
        CFI CFA_DOVERLAY Used
        CFI CFA_IOVERLAY Used
        CFI CFA_SP SP+-2
        CFI CFA_PSP16 PSP16+0
        CFI CFA_XSP16 XSP16+0
        CFI `PSW.CY` SameValue
        CFI `B.BR0` SameValue
        CFI `B.BR1` SameValue
        CFI `B.BR2` SameValue
        CFI `B.BR3` SameValue
        CFI `B.BR4` SameValue
        CFI `B.BR5` SameValue
        CFI `B.BR6` SameValue
        CFI `B.BR7` SameValue
        CFI `VB.BR8` SameValue
        CFI `VB.BR9` SameValue
        CFI `VB.BR10` SameValue
        CFI `VB.BR11` SameValue
        CFI `VB.BR12` SameValue
        CFI `VB.BR13` SameValue
        CFI `VB.BR14` SameValue
        CFI `VB.BR15` SameValue
        CFI VB SameValue
        CFI B SameValue
        CFI A SameValue
        CFI PSW SameValue
        CFI DPL0 SameValue
        CFI DPH0 SameValue
        CFI R0 SameValue
        CFI R1 SameValue
        CFI R2 SameValue
        CFI R3 SameValue
        CFI R4 SameValue
        CFI R5 SameValue
        CFI R6 SameValue
        CFI R7 SameValue
        CFI V0 SameValue
        CFI V1 SameValue
        CFI V2 SameValue
        CFI V3 SameValue
        CFI V4 SameValue
        CFI V5 SameValue
        CFI V6 SameValue
        CFI V7 SameValue
        CFI V8 SameValue
        CFI V9 SameValue
        CFI V10 SameValue
        CFI V11 SameValue
        CFI V12 SameValue
        CFI V13 SameValue
        CFI V14 SameValue
        CFI V15 SameValue
        CFI PSPH Undefined
        CFI PSPL Undefined
        CFI XSPH Undefined
        CFI XSPL Undefined
        CFI ?RET Concat
        CFI ?BRET_EXT SameValue
        CFI ?RET_HIGH Frame(CFA_SP, 2)
        CFI ?RET_LOW Frame(CFA_SP, 1)
        CFI EndCommon cfiCommon1
        
soft_i2c_start      SYMBOL "soft_i2c_start"
soft_i2c_write_byte SYMBOL "soft_i2c_write_byte"
soft_i2c_stop       SYMBOL "soft_i2c_stop"
soft_i2c_init       SYMBOL "soft_i2c_init"
??soft_i2c_init?relay SYMBOL "?relay", soft_i2c_init
??soft_i2c_start?relay SYMBOL "?relay", soft_i2c_start
??soft_i2c_stop?relay SYMBOL "?relay", soft_i2c_stop
??soft_i2c_write_byte?relay SYMBOL "?relay", soft_i2c_write_byte
oled_ssd1306_clear  SYMBOL "oled_ssd1306_clear"
??oled_ssd1306_clear?relay SYMBOL "?relay", oled_ssd1306_clear
oled_ssd1306_draw_text SYMBOL "oled_ssd1306_draw_text"
??oled_ssd1306_draw_text?relay SYMBOL "?relay", oled_ssd1306_draw_text
oled_ssd1306_init   SYMBOL "oled_ssd1306_init"
??oled_ssd1306_init?relay SYMBOL "?relay", oled_ssd1306_init

        EXTERN soft_i2c_start
        FUNCTION soft_i2c_start,0202H
        ARGFRAME ISTACK, 0, STACK
        ARGFRAME PSTACK, 0, STACK
        ARGFRAME XSTACK, 9, STACK
        ARGFRAME IOVERLAY, 0, STATIC
        ARGFRAME DOVERLAY, 0, STATIC
        EXTERN soft_i2c_write_byte
        FUNCTION soft_i2c_write_byte,0202H
        ARGFRAME ISTACK, 0, STACK
        ARGFRAME PSTACK, 0, STACK
        ARGFRAME XSTACK, 9, STACK
        ARGFRAME IOVERLAY, 0, STATIC
        ARGFRAME DOVERLAY, 0, STATIC
        EXTERN soft_i2c_stop
        FUNCTION soft_i2c_stop,0202H
        ARGFRAME ISTACK, 0, STACK
        ARGFRAME PSTACK, 0, STACK
        ARGFRAME XSTACK, 9, STACK
        ARGFRAME IOVERLAY, 0, STATIC
        ARGFRAME DOVERLAY, 0, STATIC
        EXTERN soft_i2c_init
        FUNCTION soft_i2c_init,0202H
        ARGFRAME ISTACK, 0, STACK
        ARGFRAME PSTACK, 0, STACK
        ARGFRAME XSTACK, 10, STACK
        ARGFRAME IOVERLAY, 0, STATIC
        ARGFRAME DOVERLAY, 0, STATIC
        EXTERN ??soft_i2c_init?relay
        FUNCTION ??soft_i2c_init?relay,00H
        EXTERN ??soft_i2c_start?relay
        FUNCTION ??soft_i2c_start?relay,00H
        EXTERN ??soft_i2c_stop?relay
        FUNCTION ??soft_i2c_stop?relay,00H
        EXTERN ??soft_i2c_write_byte?relay
        FUNCTION ??soft_i2c_write_byte?relay,00H

// D:\ZNJJ\ZStack-CC2530-2.5.1a\Projects\zstack\Samples\GwCoord\Source\oled_ssd1306.c
//    1 #include "oled_ssd1306.h"
//    2 
//    3 #include "soft_i2c.h"
//    4 #include "../../../../../../STM32/Hardware/OLED/oledfont.h"

        RSEG XDATA_ROM_C:CONST:REORDER:NOROOT(0)
        DATA8
// static unsigned char const __xdata_rom asc2_1608[95][16]
asc2_1608:
        DB 0
        DB 0
        DB 0
        DB 0
        DB 0
        DB 0
        DB 0
        DB 0
        DB 0
        DB 0
        DB 0
        DB 0
        DB 0
        DB 0
        DB 0
        DB 0
        DB 0
        DB 0
        DB 0
        DB 0
        DB 0
        DB 0
        DB 31
        DB 204
        DB 0
        DB 12
        DB 0
        DB 0
        DB 0
        DB 0
        DB 0
        DB 0
        DB 0
        DB 0
        DB 8
        DB 0
        DB 48
        DB 0
        DB 96
        DB 0
        DB 8
        DB 0
        DB 48
        DB 0
        DB 96
        DB 0
        DB 0
        DB 0
        DB 2
        DB 32
        DB 3
        DB 252
        DB 30
        DB 32
        DB 2
        DB 32
        DB 3
        DB 252
        DB 30
        DB 32
        DB 2
        DB 32
        DB 0
        DB 0
        DB 0
        DB 0
        DB 14
        DB 24
        DB 17
        DB 4
        DB 63
        DB 255
        DB 16
        DB 132
        DB 12
        DB 120
        DB 0
        DB 0
        DB 0
        DB 0
        DB 15
        DB 0
        DB 16
        DB 132
        DB 15
        DB 56
        DB 0
        DB 192
        DB 7
        DB 120
        DB 24
        DB 132
        DB 0
        DB 120
        DB 0
        DB 0
        DB 0
        DB 120
        DB 15
        DB 132
        DB 16
        DB 196
        DB 17
        DB 36
        DB 14
        DB 152
        DB 0
        DB 228
        DB 0
        DB 132
        DB 0
        DB 8
        DB 8
        DB 0
        DB 104
        DB 0
        DB 112
        DB 0
        DB 0
        DB 0
        DB 0
        DB 0
        DB 0
        DB 0
        DB 0
        DB 0
        DB 0
        DB 0
        DB 0
        DB 0
        DB 0
        DB 0
        DB 0
        DB 0
        DB 7
        DB 224
        DB 24
        DB 24
        DB 32
        DB 4
        DB 64
        DB 2
        DB 0
        DB 0
        DB 0
        DB 0
        DB 64
        DB 2
        DB 32
        DB 4
        DB 24
        DB 24
        DB 7
        DB 224
        DB 0
        DB 0
        DB 0
        DB 0
        DB 0
        DB 0
        DB 2
        DB 64
        DB 2
        DB 64
        DB 1
        DB 128
        DB 15
        DB 240
        DB 1
        DB 128
        DB 2
        DB 64
        DB 2
        DB 64
        DB 0
        DB 0
        DB 0
        DB 128
        DB 0
        DB 128
        DB 0
        DB 128
        DB 15
        DB 248
        DB 0
        DB 128
        DB 0
        DB 128
        DB 0
        DB 128
        DB 0
        DB 0
        DB 0
        DB 1
        DB 0
        DB 13
        DB 0
        DB 14
        DB 0
        DB 0
        DB 0
        DB 0
        DB 0
        DB 0
        DB 0
        DB 0
        DB 0
        DB 0
        DB 0
        DB 0
        DB 0
        DB 128
        DB 0
        DB 128
        DB 0
        DB 128
        DB 0
        DB 128
        DB 0
        DB 128
        DB 0
        DB 128
        DB 0
        DB 128
        DB 0
        DB 0
        DB 0
        DB 12
        DB 0
        DB 12
        DB 0
        DB 0
        DB 0
        DB 0
        DB 0
        DB 0
        DB 0
        DB 0
        DB 0
        DB 0
        DB 0
        DB 0
        DB 0
        DB 6
        DB 0
        DB 24
        DB 0
        DB 96
        DB 1
        DB 128
        DB 6
        DB 0
        DB 24
        DB 0
        DB 32
        DB 0
        DB 0
        DB 0
        DB 7
        DB 240
        DB 8
        DB 8
        DB 16
        DB 4
        DB 16
        DB 4
        DB 8
        DB 8
        DB 7
        DB 240
        DB 0
        DB 0
        DB 0
        DB 0
        DB 8
        DB 4
        DB 8
        DB 4
        DB 31
        DB 252
        DB 0
        DB 4
        DB 0
        DB 4
        DB 0
        DB 0
        DB 0
        DB 0
        DB 0
        DB 0
        DB 14
        DB 12
        DB 16
        DB 20
        DB 16
        DB 36
        DB 16
        DB 68
        DB 17
        DB 132
        DB 14
        DB 12
        DB 0
        DB 0
        DB 0
        DB 0
        DB 12
        DB 24
        DB 16
        DB 4
        DB 17
        DB 4
        DB 17
        DB 4
        DB 18
        DB 136
        DB 12
        DB 112
        DB 0
        DB 0
        DB 0
        DB 0
        DB 0
        DB 224
        DB 3
        DB 32
        DB 4
        DB 36
        DB 8
        DB 36
        DB 31
        DB 252
        DB 0
        DB 36
        DB 0
        DB 0
        DB 0
        DB 0
        DB 31
        DB 152
        DB 16
        DB 132
        DB 17
        DB 4
        DB 17
        DB 4
        DB 16
        DB 136
        DB 16
        DB 112
        DB 0
        DB 0
        DB 0
        DB 0
        DB 7
        DB 240
        DB 8
        DB 136
        DB 17
        DB 4
        DB 17
        DB 4
        DB 24
        DB 136
        DB 0
        DB 112
        DB 0
        DB 0
        DB 0
        DB 0
        DB 28
        DB 0
        DB 16
        DB 0
        DB 16
        DB 252
        DB 19
        DB 0
        DB 28
        DB 0
        DB 16
        DB 0
        DB 0
        DB 0
        DB 0
        DB 0
        DB 14
        DB 56
        DB 17
        DB 68
        DB 16
        DB 132
        DB 16
        DB 132
        DB 17
        DB 68
        DB 14
        DB 56
        DB 0
        DB 0
        DB 0
        DB 0
        DB 7
        DB 0
        DB 8
        DB 140
        DB 16
        DB 68
        DB 16
        DB 68
        DB 8
        DB 136
        DB 7
        DB 240
        DB 0
        DB 0
        DB 0
        DB 0
        DB 0
        DB 0
        DB 0
        DB 0
        DB 3
        DB 12
        DB 3
        DB 12
        DB 0
        DB 0
        DB 0
        DB 0
        DB 0
        DB 0
        DB 0
        DB 0
        DB 0
        DB 0
        DB 0
        DB 1
        DB 1
        DB 6
        DB 0
        DB 0
        DB 0
        DB 0
        DB 0
        DB 0
        DB 0
        DB 0
        DB 0
        DB 0
        DB 0
        DB 128
        DB 1
        DB 64
        DB 2
        DB 32
        DB 4
        DB 16
        DB 8
        DB 8
        DB 16
        DB 4
        DB 0
        DB 0
        DB 2
        DB 32
        DB 2
        DB 32
        DB 2
        DB 32
        DB 2
        DB 32
        DB 2
        DB 32
        DB 2
        DB 32
        DB 2
        DB 32
        DB 0
        DB 0
        DB 0
        DB 0
        DB 16
        DB 4
        DB 8
        DB 8
        DB 4
        DB 16
        DB 2
        DB 32
        DB 1
        DB 64
        DB 0
        DB 128
        DB 0
        DB 0
        DB 0
        DB 0
        DB 14
        DB 0
        DB 18
        DB 0
        DB 16
        DB 12
        DB 16
        DB 108
        DB 16
        DB 128
        DB 15
        DB 0
        DB 0
        DB 0
        DB 3
        DB 224
        DB 12
        DB 24
        DB 19
        DB 228
        DB 20
        DB 36
        DB 23
        DB 196
        DB 8
        DB 40
        DB 7
        DB 208
        DB 0
        DB 0
        DB 0
        DB 4
        DB 0
        DB 60
        DB 3
        DB 196
        DB 28
        DB 64
        DB 7
        DB 64
        DB 0
        DB 228
        DB 0
        DB 28
        DB 0
        DB 4
        DB 16
        DB 4
        DB 31
        DB 252
        DB 17
        DB 4
        DB 17
        DB 4
        DB 17
        DB 4
        DB 14
        DB 136
        DB 0
        DB 112
        DB 0
        DB 0
        DB 3
        DB 224
        DB 12
        DB 24
        DB 16
        DB 4
        DB 16
        DB 4
        DB 16
        DB 4
        DB 16
        DB 8
        DB 28
        DB 16
        DB 0
        DB 0
        DB 16
        DB 4
        DB 31
        DB 252
        DB 16
        DB 4
        DB 16
        DB 4
        DB 16
        DB 4
        DB 8
        DB 8
        DB 7
        DB 240
        DB 0
        DB 0
        DB 16
        DB 4
        DB 31
        DB 252
        DB 17
        DB 4
        DB 17
        DB 4
        DB 23
        DB 196
        DB 16
        DB 4
        DB 8
        DB 24
        DB 0
        DB 0
        DB 16
        DB 4
        DB 31
        DB 252
        DB 17
        DB 4
        DB 17
        DB 0
        DB 23
        DB 192
        DB 16
        DB 0
        DB 8
        DB 0
        DB 0
        DB 0
        DB 3
        DB 224
        DB 12
        DB 24
        DB 16
        DB 4
        DB 16
        DB 4
        DB 16
        DB 68
        DB 28
        DB 120
        DB 0
        DB 64
        DB 0
        DB 0
        DB 16
        DB 4
        DB 31
        DB 252
        DB 16
        DB 132
        DB 0
        DB 128
        DB 0
        DB 128
        DB 16
        DB 132
        DB 31
        DB 252
        DB 16
        DB 4
        DB 0
        DB 0
        DB 16
        DB 4
        DB 16
        DB 4
        DB 31
        DB 252
        DB 16
        DB 4
        DB 16
        DB 4
        DB 0
        DB 0
        DB 0
        DB 0
        DB 0
        DB 3
        DB 0
        DB 1
        DB 16
        DB 1
        DB 16
        DB 1
        DB 31
        DB 254
        DB 16
        DB 0
        DB 16
        DB 0
        DB 0
        DB 0
        DB 16
        DB 4
        DB 31
        DB 252
        DB 17
        DB 4
        DB 3
        DB 128
        DB 20
        DB 100
        DB 24
        DB 28
        DB 16
        DB 4
        DB 0
        DB 0
        DB 16
        DB 4
        DB 31
        DB 252
        DB 16
        DB 4
        DB 0
        DB 4
        DB 0
        DB 4
        DB 0
        DB 4
        DB 0
        DB 12
        DB 0
        DB 0
        DB 16
        DB 4
        DB 31
        DB 252
        DB 31
        DB 0
        DB 0
        DB 252
        DB 31
        DB 0
        DB 31
        DB 252
        DB 16
        DB 4
        DB 0
        DB 0
        DB 16
        DB 4
        DB 31
        DB 252
        DB 12
        DB 4
        DB 3
        DB 0
        DB 0
        DB 224
        DB 16
        DB 24
        DB 31
        DB 252
        DB 16
        DB 0
        DB 7
        DB 240
        DB 8
        DB 8
        DB 16
        DB 4
        DB 16
        DB 4
        DB 16
        DB 4
        DB 8
        DB 8
        DB 7
        DB 240
        DB 0
        DB 0
        DB 16
        DB 4
        DB 31
        DB 252
        DB 16
        DB 132
        DB 16
        DB 128
        DB 16
        DB 128
        DB 16
        DB 128
        DB 15
        DB 0
        DB 0
        DB 0
        DB 7
        DB 240
        DB 8
        DB 24
        DB 16
        DB 36
        DB 16
        DB 36
        DB 16
        DB 28
        DB 8
        DB 10
        DB 7
        DB 242
        DB 0
        DB 0
        DB 16
        DB 4
        DB 31
        DB 252
        DB 17
        DB 4
        DB 17
        DB 0
        DB 17
        DB 192
        DB 17
        DB 48
        DB 14
        DB 12
        DB 0
        DB 4
        DB 0
        DB 0
        DB 14
        DB 28
        DB 17
        DB 4
        DB 16
        DB 132
        DB 16
        DB 132
        DB 16
        DB 68
        DB 28
        DB 56
        DB 0
        DB 0
        DB 24
        DB 0
        DB 16
        DB 0
        DB 16
        DB 4
        DB 31
        DB 252
        DB 16
        DB 4
        DB 16
        DB 0
        DB 24
        DB 0
        DB 0
        DB 0
        DB 16
        DB 0
        DB 31
        DB 248
        DB 16
        DB 4
        DB 0
        DB 4
        DB 0
        DB 4
        DB 16
        DB 4
        DB 31
        DB 248
        DB 16
        DB 0
        DB 16
        DB 0
        DB 30
        DB 0
        DB 17
        DB 224
        DB 0
        DB 28
        DB 0
        DB 112
        DB 19
        DB 128
        DB 28
        DB 0
        DB 16
        DB 0
        DB 31
        DB 192
        DB 16
        DB 60
        DB 0
        DB 224
        DB 31
        DB 0
        DB 0
        DB 224
        DB 16
        DB 60
        DB 31
        DB 192
        DB 0
        DB 0
        DB 16
        DB 4
        DB 24
        DB 12
        DB 22
        DB 52
        DB 1
        DB 192
        DB 1
        DB 192
        DB 22
        DB 52
        DB 24
        DB 12
        DB 16
        DB 4
        DB 16
        DB 0
        DB 28
        DB 0
        DB 19
        DB 4
        DB 0
        DB 252
        DB 19
        DB 4
        DB 28
        DB 0
        DB 16
        DB 0
        DB 0
        DB 0
        DB 8
        DB 4
        DB 16
        DB 28
        DB 16
        DB 100
        DB 16
        DB 132
        DB 19
        DB 4
        DB 28
        DB 4
        DB 16
        DB 24
        DB 0
        DB 0
        DB 0
        DB 0
        DB 0
        DB 0
        DB 0
        DB 0
        DB 127
        DB 254
        DB 64
        DB 2
        DB 64
        DB 2
        DB 64
        DB 2
        DB 0
        DB 0
        DB 0
        DB 0
        DB 48
        DB 0
        DB 12
        DB 0
        DB 3
        DB 128
        DB 0
        DB 96
        DB 0
        DB 28
        DB 0
        DB 3
        DB 0
        DB 0
        DB 0
        DB 0
        DB 64
        DB 2
        DB 64
        DB 2
        DB 64
        DB 2
        DB 127
        DB 254
        DB 0
        DB 0
        DB 0
        DB 0
        DB 0
        DB 0
        DB 0
        DB 0
        DB 0
        DB 0
        DB 32
        DB 0
        DB 64
        DB 0
        DB 64
        DB 0
        DB 64
        DB 0
        DB 32
        DB 0
        DB 0
        DB 0
        DB 0
        DB 1
        DB 0
        DB 1
        DB 0
        DB 1
        DB 0
        DB 1
        DB 0
        DB 1
        DB 0
        DB 1
        DB 0
        DB 1
        DB 0
        DB 1
        DB 0
        DB 0
        DB 64
        DB 0
        DB 64
        DB 0
        DB 32
        DB 0
        DB 0
        DB 0
        DB 0
        DB 0
        DB 0
        DB 0
        DB 0
        DB 0
        DB 0
        DB 0
        DB 0
        DB 152
        DB 1
        DB 36
        DB 1
        DB 68
        DB 1
        DB 68
        DB 1
        DB 68
        DB 0
        DB 252
        DB 0
        DB 4
        DB 16
        DB 0
        DB 31
        DB 252
        DB 0
        DB 136
        DB 1
        DB 4
        DB 1
        DB 4
        DB 0
        DB 136
        DB 0
        DB 112
        DB 0
        DB 0
        DB 0
        DB 0
        DB 0
        DB 112
        DB 0
        DB 136
        DB 1
        DB 4
        DB 1
        DB 4
        DB 1
        DB 4
        DB 0
        DB 136
        DB 0
        DB 0
        DB 0
        DB 0
        DB 0
        DB 112
        DB 0
        DB 136
        DB 1
        DB 4
        DB 1
        DB 4
        DB 17
        DB 8
        DB 31
        DB 252
        DB 0
        DB 4
        DB 0
        DB 0
        DB 0
        DB 248
        DB 1
        DB 68
        DB 1
        DB 68
        DB 1
        DB 68
        DB 1
        DB 68
        DB 0
        DB 200
        DB 0
        DB 0
        DB 0
        DB 0
        DB 1
        DB 4
        DB 1
        DB 4
        DB 15
        DB 252
        DB 17
        DB 4
        DB 17
        DB 4
        DB 17
        DB 0
        DB 24
        DB 0
        DB 0
        DB 0
        DB 0
        DB 214
        DB 1
        DB 41
        DB 1
        DB 41
        DB 1
        DB 41
        DB 1
        DB 201
        DB 1
        DB 6
        DB 0
        DB 0
        DB 16
        DB 4
        DB 31
        DB 252
        DB 0
        DB 132
        DB 1
        DB 0
        DB 1
        DB 0
        DB 1
        DB 4
        DB 0
        DB 252
        DB 0
        DB 4
        DB 0
        DB 0
        DB 1
        DB 4
        DB 25
        DB 4
        DB 25
        DB 252
        DB 0
        DB 4
        DB 0
        DB 4
        DB 0
        DB 0
        DB 0
        DB 0
        DB 0
        DB 0
        DB 0
        DB 3
        DB 0
        DB 1
        DB 1
        DB 1
        DB 25
        DB 1
        DB 25
        DB 254
        DB 0
        DB 0
        DB 0
        DB 0
        DB 16
        DB 4
        DB 31
        DB 252
        DB 0
        DB 36
        DB 0
        DB 64
        DB 1
        DB 180
        DB 1
        DB 12
        DB 1
        DB 4
        DB 0
        DB 0
        DB 0
        DB 0
        DB 16
        DB 4
        DB 16
        DB 4
        DB 31
        DB 252
        DB 0
        DB 4
        DB 0
        DB 4
        DB 0
        DB 0
        DB 0
        DB 0
        DB 1
        DB 4
        DB 1
        DB 252
        DB 1
        DB 4
        DB 1
        DB 0
        DB 1
        DB 252
        DB 1
        DB 4
        DB 1
        DB 0
        DB 0
        DB 252
        DB 1
        DB 4
        DB 1
        DB 252
        DB 0
        DB 132
        DB 1
        DB 0
        DB 1
        DB 0
        DB 1
        DB 4
        DB 0
        DB 252
        DB 0
        DB 4
        DB 0
        DB 0
        DB 0
        DB 248
        DB 1
        DB 4
        DB 1
        DB 4
        DB 1
        DB 4
        DB 1
        DB 4
        DB 0
        DB 248
        DB 0
        DB 0
        DB 1
        DB 1
        DB 1
        DB 255
        DB 0
        DB 133
        DB 1
        DB 4
        DB 1
        DB 4
        DB 0
        DB 136
        DB 0
        DB 112
        DB 0
        DB 0
        DB 0
        DB 0
        DB 0
        DB 112
        DB 0
        DB 136
        DB 1
        DB 4
        DB 1
        DB 4
        DB 1
        DB 5
        DB 1
        DB 255
        DB 0
        DB 1
        DB 1
        DB 4
        DB 1
        DB 4
        DB 1
        DB 252
        DB 0
        DB 132
        DB 1
        DB 4
        DB 1
        DB 0
        DB 1
        DB 128
        DB 0
        DB 0
        DB 0
        DB 0
        DB 0
        DB 204
        DB 1
        DB 36
        DB 1
        DB 36
        DB 1
        DB 36
        DB 1
        DB 36
        DB 1
        DB 152
        DB 0
        DB 0
        DB 0
        DB 0
        DB 1
        DB 0
        DB 1
        DB 0
        DB 7
        DB 248
        DB 1
        DB 4
        DB 1
        DB 4
        DB 0
        DB 0
        DB 0
        DB 0
        DB 1
        DB 0
        DB 1
        DB 248
        DB 0
        DB 4
        DB 0
        DB 4
        DB 0
        DB 4
        DB 1
        DB 8
        DB 1
        DB 252
        DB 0
        DB 4
        DB 1
        DB 0
        DB 1
        DB 128
        DB 1
        DB 112
        DB 0
        DB 12
        DB 0
        DB 16
        DB 1
        DB 96
        DB 1
        DB 128
        DB 1
        DB 0
        DB 1
        DB 240
        DB 1
        DB 12
        DB 0
        DB 48
        DB 1
        DB 192
        DB 0
        DB 48
        DB 1
        DB 12
        DB 1
        DB 240
        DB 1
        DB 0
        DB 0
        DB 0
        DB 1
        DB 4
        DB 1
        DB 140
        DB 0
        DB 116
        DB 1
        DB 112
        DB 1
        DB 140
        DB 1
        DB 4
        DB 0
        DB 0
        DB 1
        DB 1
        DB 1
        DB 129
        DB 1
        DB 113
        DB 0
        DB 14
        DB 0
        DB 24
        DB 1
        DB 96
        DB 1
        DB 128
        DB 1
        DB 0
        DB 0
        DB 0
        DB 1
        DB 132
        DB 1
        DB 12
        DB 1
        DB 52
        DB 1
        DB 68
        DB 1
        DB 132
        DB 1
        DB 12
        DB 0
        DB 0
        DB 0
        DB 0
        DB 0
        DB 0
        DB 0
        DB 0
        DB 0
        DB 0
        DB 1
        DB 0
        DB 62
        DB 252
        DB 64
        DB 2
        DB 64
        DB 2
        DB 0
        DB 0
        DB 0
        DB 0
        DB 0
        DB 0
        DB 0
        DB 0
        DB 255
        DB 255
        DB 0
        DB 0
        DB 0
        DB 0
        DB 0
        DB 0
        DB 0
        DB 0
        DB 64
        DB 2
        DB 64
        DB 2
        DB 62
        DB 252
        DB 1
        DB 0
        DB 0
        DB 0
        DB 0
        DB 0
        DB 0
        DB 0
        DB 0
        DB 0
        DB 96
        DB 0
        DB 128
        DB 0
        DB 128
        DB 0
        DB 64
        DB 0
        DB 64
        DB 0
        DB 32
        DB 0
        DB 32
        DB 0
//    5 
//    6 #define OLED_ADDR      0x78u
//    7 #define OLED_CMD_MODE  0x00u
//    8 #define OLED_DAT_MODE  0x40u
//    9 

        RSEG BANKED_CODE:CODE:NOROOT(0)
//   10 static void oled_write(uint8 mode, uint8 value)
oled_write:
        CFI Block cfiBlock0 Using cfiCommon0
        CFI Function oled_write
        CODE
//   11 {
        FUNCALL oled_write, soft_i2c_start
        LOCFRAME ISTACK, 0, STACK
        LOCFRAME PSTACK, 0, STACK
        LOCFRAME XSTACK, 9, STACK
        LOCFRAME IOVERLAY, 0, STATIC
        LOCFRAME DOVERLAY, 0, STATIC
        ARGFRAME ISTACK, 0, STACK
        ARGFRAME PSTACK, 0, STACK
        ARGFRAME XSTACK, 9, STACK
        ARGFRAME IOVERLAY, 0, STATIC
        ARGFRAME DOVERLAY, 0, STATIC
        FUNCALL oled_write, soft_i2c_write_byte
        LOCFRAME ISTACK, 0, STACK
        LOCFRAME PSTACK, 0, STACK
        LOCFRAME XSTACK, 9, STACK
        LOCFRAME IOVERLAY, 0, STATIC
        LOCFRAME DOVERLAY, 0, STATIC
        ARGFRAME ISTACK, 0, STACK
        ARGFRAME PSTACK, 0, STACK
        ARGFRAME XSTACK, 9, STACK
        ARGFRAME IOVERLAY, 0, STATIC
        ARGFRAME DOVERLAY, 0, STATIC
        FUNCALL oled_write, soft_i2c_write_byte
        LOCFRAME ISTACK, 0, STACK
        LOCFRAME PSTACK, 0, STACK
        LOCFRAME XSTACK, 9, STACK
        LOCFRAME IOVERLAY, 0, STATIC
        LOCFRAME DOVERLAY, 0, STATIC
        ARGFRAME ISTACK, 0, STACK
        ARGFRAME PSTACK, 0, STACK
        ARGFRAME XSTACK, 9, STACK
        ARGFRAME IOVERLAY, 0, STATIC
        ARGFRAME DOVERLAY, 0, STATIC
        FUNCALL oled_write, soft_i2c_write_byte
        LOCFRAME ISTACK, 0, STACK
        LOCFRAME PSTACK, 0, STACK
        LOCFRAME XSTACK, 9, STACK
        LOCFRAME IOVERLAY, 0, STATIC
        LOCFRAME DOVERLAY, 0, STATIC
        ARGFRAME ISTACK, 0, STACK
        ARGFRAME PSTACK, 0, STACK
        ARGFRAME XSTACK, 9, STACK
        ARGFRAME IOVERLAY, 0, STATIC
        ARGFRAME DOVERLAY, 0, STATIC
        FUNCALL oled_write, soft_i2c_stop
        LOCFRAME ISTACK, 0, STACK
        LOCFRAME PSTACK, 0, STACK
        LOCFRAME XSTACK, 9, STACK
        LOCFRAME IOVERLAY, 0, STATIC
        LOCFRAME DOVERLAY, 0, STATIC
        ARGFRAME ISTACK, 0, STACK
        ARGFRAME PSTACK, 0, STACK
        ARGFRAME XSTACK, 9, STACK
        ARGFRAME IOVERLAY, 0, STATIC
        ARGFRAME DOVERLAY, 0, STATIC
        MOV     A,#-0x9
        LCALL   ?BANKED_ENTER_XDATA
        CFI DPH0 load(1, XDATA, add(CFA_XSP16, literal(-1)))
        CFI DPL0 load(1, XDATA, add(CFA_XSP16, literal(-2)))
        CFI ?BRET_EXT load(1, XDATA, add(CFA_XSP16, literal(-3)))
        CFI ?RET_HIGH load(1, XDATA, add(CFA_XSP16, literal(-4)))
        CFI ?RET_LOW load(1, XDATA, add(CFA_XSP16, literal(-5)))
        CFI R7 load(1, XDATA, add(CFA_XSP16, literal(-6)))
        CFI V0 load(1, XDATA, add(CFA_XSP16, literal(-7)))
        CFI VB load(1, XDATA, add(CFA_XSP16, literal(-8)))
        CFI R6 load(1, XDATA, add(CFA_XSP16, literal(-9)))
        CFI CFA_SP SP+0
        CFI CFA_XSP16 add(XSP16, 9)
        ; Saved register size: 9
        ; Auto size: 0
        MOV     A,R1
        MOV     R7,A
        MOV     A,R2
        MOV     R6,A
//   12     soft_i2c_start();
        ; Setup parameters for call to function soft_i2c_start
        LCALL   ??soft_i2c_start?relay
//   13     (void)soft_i2c_write_byte(OLED_ADDR);
        ; Setup parameters for call to function soft_i2c_write_byte
        MOV     R1,#0x78
        LCALL   ??soft_i2c_write_byte?relay
//   14     (void)soft_i2c_write_byte(mode);
        ; Setup parameters for call to function soft_i2c_write_byte
        MOV     A,R7
        MOV     R1,A
        LCALL   ??soft_i2c_write_byte?relay
//   15     (void)soft_i2c_write_byte(value);
        ; Setup parameters for call to function soft_i2c_write_byte
        MOV     A,R6
        MOV     R1,A
        LCALL   ??soft_i2c_write_byte?relay
//   16     soft_i2c_stop();
        ; Setup parameters for call to function soft_i2c_stop
        LCALL   ??soft_i2c_stop?relay
        CFI EndBlock cfiBlock0
//   17 }
        REQUIRE ?Subroutine0
        ; // Fall through to label ?Subroutine0

        RSEG BANKED_CODE:CODE:NOROOT(0)
?Subroutine0:
        CFI Block cfiBlock1 Using cfiCommon0
        CFI NoFunction
        CFI CFA_SP SP+0
        CFI CFA_XSP16 add(XSP16, 9)
        CFI VB load(1, XDATA, add(CFA_XSP16, literal(-8)))
        CFI DPL0 load(1, XDATA, add(CFA_XSP16, literal(-2)))
        CFI DPH0 load(1, XDATA, add(CFA_XSP16, literal(-1)))
        CFI R6 load(1, XDATA, add(CFA_XSP16, literal(-9)))
        CFI R7 load(1, XDATA, add(CFA_XSP16, literal(-6)))
        CFI V0 load(1, XDATA, add(CFA_XSP16, literal(-7)))
        CFI ?BRET_EXT load(1, XDATA, add(CFA_XSP16, literal(-3)))
        CFI ?RET_HIGH load(1, XDATA, add(CFA_XSP16, literal(-4)))
        CFI ?RET_LOW load(1, XDATA, add(CFA_XSP16, literal(-5)))
        MOV     R7,#0x1
        LJMP    ?BANKED_LEAVE_XDATA
        CFI EndBlock cfiBlock1
//   18 

        RSEG BANKED_CODE:CODE:NOROOT(0)
//   19 static void oled_set_pos(uint8 x, uint8 page)
oled_set_pos:
        CFI Block cfiBlock2 Using cfiCommon0
        CFI Function oled_set_pos
        CODE
//   20 {
        FUNCALL oled_set_pos, oled_write
        LOCFRAME ISTACK, 0, STACK
        LOCFRAME PSTACK, 0, STACK
        LOCFRAME XSTACK, 9, STACK
        LOCFRAME IOVERLAY, 0, STATIC
        LOCFRAME DOVERLAY, 0, STATIC
        ARGFRAME ISTACK, 0, STACK
        ARGFRAME PSTACK, 0, STACK
        ARGFRAME XSTACK, 9, STACK
        ARGFRAME IOVERLAY, 0, STATIC
        ARGFRAME DOVERLAY, 0, STATIC
        FUNCALL oled_set_pos, oled_write
        LOCFRAME ISTACK, 0, STACK
        LOCFRAME PSTACK, 0, STACK
        LOCFRAME XSTACK, 9, STACK
        LOCFRAME IOVERLAY, 0, STATIC
        LOCFRAME DOVERLAY, 0, STATIC
        ARGFRAME ISTACK, 0, STACK
        ARGFRAME PSTACK, 0, STACK
        ARGFRAME XSTACK, 9, STACK
        ARGFRAME IOVERLAY, 0, STATIC
        ARGFRAME DOVERLAY, 0, STATIC
        FUNCALL oled_set_pos, oled_write
        LOCFRAME ISTACK, 0, STACK
        LOCFRAME PSTACK, 0, STACK
        LOCFRAME XSTACK, 9, STACK
        LOCFRAME IOVERLAY, 0, STATIC
        LOCFRAME DOVERLAY, 0, STATIC
        ARGFRAME ISTACK, 0, STACK
        ARGFRAME PSTACK, 0, STACK
        ARGFRAME XSTACK, 9, STACK
        ARGFRAME IOVERLAY, 0, STATIC
        ARGFRAME DOVERLAY, 0, STATIC
        MOV     A,#-0x9
        LCALL   ?BANKED_ENTER_XDATA
        CFI DPH0 load(1, XDATA, add(CFA_XSP16, literal(-1)))
        CFI DPL0 load(1, XDATA, add(CFA_XSP16, literal(-2)))
        CFI ?BRET_EXT load(1, XDATA, add(CFA_XSP16, literal(-3)))
        CFI ?RET_HIGH load(1, XDATA, add(CFA_XSP16, literal(-4)))
        CFI ?RET_LOW load(1, XDATA, add(CFA_XSP16, literal(-5)))
        CFI R7 load(1, XDATA, add(CFA_XSP16, literal(-6)))
        CFI V0 load(1, XDATA, add(CFA_XSP16, literal(-7)))
        CFI VB load(1, XDATA, add(CFA_XSP16, literal(-8)))
        CFI R6 load(1, XDATA, add(CFA_XSP16, literal(-9)))
        CFI CFA_SP SP+0
        CFI CFA_XSP16 add(XSP16, 9)
        ; Saved register size: 9
        ; Auto size: 0
        MOV     A,R1
        MOV     R6,A
        MOV     A,R2
        MOV     R7,A
//   21     oled_write(OLED_CMD_MODE, (uint8)(0xB0u | page));
        ; Setup parameters for call to function oled_write
        MOV     A,#-0x50
        ORL     A,R7
        MOV     R2,A
        MOV     R1,#0x0
        LCALL   ??oled_write?relay
//   22     oled_write(OLED_CMD_MODE, (uint8)(0x10u | ((x >> 4) & 0x0Fu)));
        ; Setup parameters for call to function oled_write
        MOV     A,R6
        SWAP    A
        ANL     A,#0xf
        ORL     A,#0x10
        MOV     R2,A
        MOV     R1,#0x0
        LCALL   ??oled_write?relay
//   23     oled_write(OLED_CMD_MODE, (uint8)(x & 0x0Fu));
        ; Setup parameters for call to function oled_write
        MOV     A,#0xf
        ANL     A,R6
        MOV     R2,A
        MOV     R1,#0x0
        LCALL   ??oled_write?relay
//   24 }
        SJMP    ?Subroutine0
        CFI EndBlock cfiBlock2
//   25 
//   26 static void oled_fill_page(uint8 page, uint8 value)
//   27 {
//   28     uint8 x;
//   29 
//   30     oled_set_pos(0, page);
//   31     for (x = 0; x < 128u; ++x) {
//   32         oled_write(OLED_DAT_MODE, value);
//   33     }
//   34 }
//   35 

        RSEG BANKED_CODE:CODE:NOROOT(0)
//   36 void oled_ssd1306_init(void)
oled_ssd1306_init:
        CFI Block cfiBlock3 Using cfiCommon0
        CFI Function oled_ssd1306_init
        CODE
//   37 {
        FUNCALL oled_ssd1306_init, soft_i2c_init
        LOCFRAME ISTACK, 0, STACK
        LOCFRAME PSTACK, 0, STACK
        LOCFRAME XSTACK, 10, STACK
        LOCFRAME IOVERLAY, 0, STATIC
        LOCFRAME DOVERLAY, 0, STATIC
        ARGFRAME ISTACK, 0, STACK
        ARGFRAME PSTACK, 0, STACK
        ARGFRAME XSTACK, 10, STACK
        ARGFRAME IOVERLAY, 0, STATIC
        ARGFRAME DOVERLAY, 0, STATIC
        FUNCALL oled_ssd1306_init, oled_write
        LOCFRAME ISTACK, 0, STACK
        LOCFRAME PSTACK, 0, STACK
        LOCFRAME XSTACK, 10, STACK
        LOCFRAME IOVERLAY, 0, STATIC
        LOCFRAME DOVERLAY, 0, STATIC
        ARGFRAME ISTACK, 0, STACK
        ARGFRAME PSTACK, 0, STACK
        ARGFRAME XSTACK, 10, STACK
        ARGFRAME IOVERLAY, 0, STATIC
        ARGFRAME DOVERLAY, 0, STATIC
        FUNCALL oled_ssd1306_init, oled_ssd1306_clear
        LOCFRAME ISTACK, 0, STACK
        LOCFRAME PSTACK, 0, STACK
        LOCFRAME XSTACK, 10, STACK
        LOCFRAME IOVERLAY, 0, STATIC
        LOCFRAME DOVERLAY, 0, STATIC
        ARGFRAME ISTACK, 0, STACK
        ARGFRAME PSTACK, 0, STACK
        ARGFRAME XSTACK, 10, STACK
        ARGFRAME IOVERLAY, 0, STATIC
        ARGFRAME DOVERLAY, 0, STATIC
        MOV     A,#-0xa
        LCALL   ?BANKED_ENTER_XDATA
        CFI DPH0 load(1, XDATA, add(CFA_XSP16, literal(-1)))
        CFI DPL0 load(1, XDATA, add(CFA_XSP16, literal(-2)))
        CFI ?BRET_EXT load(1, XDATA, add(CFA_XSP16, literal(-3)))
        CFI ?RET_HIGH load(1, XDATA, add(CFA_XSP16, literal(-4)))
        CFI ?RET_LOW load(1, XDATA, add(CFA_XSP16, literal(-5)))
        CFI R7 load(1, XDATA, add(CFA_XSP16, literal(-6)))
        CFI V1 load(1, XDATA, add(CFA_XSP16, literal(-7)))
        CFI V0 load(1, XDATA, add(CFA_XSP16, literal(-8)))
        CFI VB load(1, XDATA, add(CFA_XSP16, literal(-9)))
        CFI R6 load(1, XDATA, add(CFA_XSP16, literal(-10)))
        CFI CFA_SP SP+0
        CFI CFA_XSP16 add(XSP16, 10)
        ; Saved register size: 10
        ; Auto size: 0
//   38     static const uint8 init_seq[] = {
//   39         0xAE, 0x20, 0x10, 0xB0, 0xC8, 0x00, 0x10, 0x40,
//   40         0x81, 0x7F, 0xA1, 0xA6, 0xA8, 0x3F, 0xA4, 0xD3,
//   41         0x00, 0xD5, 0xF0, 0xD9, 0x22, 0xDA, 0x12, 0xDB,
//   42         0x20, 0x8D, 0x14, 0xAF
//   43     };
//   44     uint8 i;
//   45 
//   46     soft_i2c_init();
        ; Setup parameters for call to function soft_i2c_init
        LCALL   ??soft_i2c_init?relay
//   47     for (i = 0; i < sizeof(init_seq); ++i) {
        MOV     R6,#0x0
//   48         oled_write(OLED_CMD_MODE, init_seq[i]);
??oled_ssd1306_init_0:
        ; Setup parameters for call to function oled_write
        MOV     ?V0 + 0,R6
        MOV     A,#??init_seq & 0xff
        ADD     A,?V0 + 0
        MOV     DPL,A
        MOV     A,#(??init_seq >> 8) & 0xff
        ADDC    A,#0x0
        MOV     DPH,A
        MOVX    A,@DPTR
        MOV     R2,A
        MOV     R1,#0x0
        LCALL   ??oled_write?relay
//   49     }
        INC     R6
        MOV     A,R6
        CLR     C
        SUBB    A,#0x1c
        JC      ??oled_ssd1306_init_0
//   50     oled_ssd1306_clear();
        ; Setup parameters for call to function oled_ssd1306_clear
        LCALL   ??oled_ssd1306_clear?relay
//   51 }
        MOV     R7,#0x2
        LJMP    ?BANKED_LEAVE_XDATA
        CFI EndBlock cfiBlock3

        RSEG XDATA_ROM_C:CONST:REORDER:NOROOT(0)
        DATA8
??init_seq:
        DB 174
        DB 32
        DB 16
        DB 176
        DB 200
        DB 0
        DB 16
        DB 64
        DB 129
        DB 127
        DB 161
        DB 166
        DB 168
        DB 63
        DB 164
        DB 211
        DB 0
        DB 213
        DB 240
        DB 217
        DB 34
        DB 218
        DB 18
        DB 219
        DB 32
        DB 141
        DB 20
        DB 175
//   52 

        RSEG BANKED_CODE:CODE:NOROOT(0)
//   53 void oled_ssd1306_clear(void)
oled_ssd1306_clear:
        CFI Block cfiBlock4 Using cfiCommon0
        CFI Function oled_ssd1306_clear
        CODE
//   54 {
        FUNCALL oled_ssd1306_clear, oled_set_pos
        LOCFRAME ISTACK, 0, STACK
        LOCFRAME PSTACK, 0, STACK
        LOCFRAME XSTACK, 9, STACK
        LOCFRAME IOVERLAY, 0, STATIC
        LOCFRAME DOVERLAY, 0, STATIC
        ARGFRAME ISTACK, 0, STACK
        ARGFRAME PSTACK, 0, STACK
        ARGFRAME XSTACK, 9, STACK
        ARGFRAME IOVERLAY, 0, STATIC
        ARGFRAME DOVERLAY, 0, STATIC
        FUNCALL oled_ssd1306_clear, oled_write
        LOCFRAME ISTACK, 0, STACK
        LOCFRAME PSTACK, 0, STACK
        LOCFRAME XSTACK, 9, STACK
        LOCFRAME IOVERLAY, 0, STATIC
        LOCFRAME DOVERLAY, 0, STATIC
        ARGFRAME ISTACK, 0, STACK
        ARGFRAME PSTACK, 0, STACK
        ARGFRAME XSTACK, 9, STACK
        ARGFRAME IOVERLAY, 0, STATIC
        ARGFRAME DOVERLAY, 0, STATIC
        MOV     A,#-0x9
        LCALL   ?BANKED_ENTER_XDATA
        CFI DPH0 load(1, XDATA, add(CFA_XSP16, literal(-1)))
        CFI DPL0 load(1, XDATA, add(CFA_XSP16, literal(-2)))
        CFI ?BRET_EXT load(1, XDATA, add(CFA_XSP16, literal(-3)))
        CFI ?RET_HIGH load(1, XDATA, add(CFA_XSP16, literal(-4)))
        CFI ?RET_LOW load(1, XDATA, add(CFA_XSP16, literal(-5)))
        CFI R7 load(1, XDATA, add(CFA_XSP16, literal(-6)))
        CFI V0 load(1, XDATA, add(CFA_XSP16, literal(-7)))
        CFI VB load(1, XDATA, add(CFA_XSP16, literal(-8)))
        CFI R6 load(1, XDATA, add(CFA_XSP16, literal(-9)))
        CFI CFA_SP SP+0
        CFI CFA_XSP16 add(XSP16, 9)
        ; Saved register size: 9
        ; Auto size: 0
//   55     uint8 page;
//   56 
//   57     for (page = 0; page < 8u; ++page) {
        MOV     R6,#0x0
//   58         oled_fill_page(page, 0x00u);
??oled_ssd1306_clear_0:
        ; Setup parameters for call to function oled_set_pos
        MOV     A,R6
        MOV     R2,A
        MOV     R1,#0x0
        LCALL   ??oled_set_pos?relay
        MOV     R7,#-0x80
??oled_ssd1306_clear_1:
        ; Setup parameters for call to function oled_write
        MOV     R2,#0x0
        MOV     R1,#0x40
        LCALL   ??oled_write?relay
        DEC     R7
        MOV     A,R7
        JNZ     ??oled_ssd1306_clear_1
//   59     }
        INC     R6
        MOV     A,R6
        CLR     C
        SUBB    A,#0x8
        JC      ??oled_ssd1306_clear_0
//   60 }
        SJMP    ?Subroutine0
        CFI EndBlock cfiBlock4
//   61 

        RSEG BANKED_CODE:CODE:NOROOT(0)
//   62 void oled_ssd1306_draw_text(uint8 row, const char *text)
oled_ssd1306_draw_text:
        CFI Block cfiBlock5 Using cfiCommon0
        CFI Function oled_ssd1306_draw_text
        CODE
//   63 {
        FUNCALL oled_ssd1306_draw_text, oled_set_pos
        LOCFRAME ISTACK, 0, STACK
        LOCFRAME PSTACK, 0, STACK
        LOCFRAME XSTACK, 16, STACK
        LOCFRAME IOVERLAY, 0, STATIC
        LOCFRAME DOVERLAY, 0, STATIC
        ARGFRAME ISTACK, 0, STACK
        ARGFRAME PSTACK, 0, STACK
        ARGFRAME XSTACK, 16, STACK
        ARGFRAME IOVERLAY, 0, STATIC
        ARGFRAME DOVERLAY, 0, STATIC
        FUNCALL oled_ssd1306_draw_text, oled_write
        LOCFRAME ISTACK, 0, STACK
        LOCFRAME PSTACK, 0, STACK
        LOCFRAME XSTACK, 16, STACK
        LOCFRAME IOVERLAY, 0, STATIC
        LOCFRAME DOVERLAY, 0, STATIC
        ARGFRAME ISTACK, 0, STACK
        ARGFRAME PSTACK, 0, STACK
        ARGFRAME XSTACK, 16, STACK
        ARGFRAME IOVERLAY, 0, STATIC
        ARGFRAME DOVERLAY, 0, STATIC
        FUNCALL oled_ssd1306_draw_text, oled_write
        LOCFRAME ISTACK, 0, STACK
        LOCFRAME PSTACK, 0, STACK
        LOCFRAME XSTACK, 16, STACK
        LOCFRAME IOVERLAY, 0, STATIC
        LOCFRAME DOVERLAY, 0, STATIC
        ARGFRAME ISTACK, 0, STACK
        ARGFRAME PSTACK, 0, STACK
        ARGFRAME XSTACK, 16, STACK
        ARGFRAME IOVERLAY, 0, STATIC
        ARGFRAME DOVERLAY, 0, STATIC
        FUNCALL oled_ssd1306_draw_text, oled_write
        LOCFRAME ISTACK, 0, STACK
        LOCFRAME PSTACK, 0, STACK
        LOCFRAME XSTACK, 16, STACK
        LOCFRAME IOVERLAY, 0, STATIC
        LOCFRAME DOVERLAY, 0, STATIC
        ARGFRAME ISTACK, 0, STACK
        ARGFRAME PSTACK, 0, STACK
        ARGFRAME XSTACK, 16, STACK
        ARGFRAME IOVERLAY, 0, STATIC
        ARGFRAME DOVERLAY, 0, STATIC
        FUNCALL oled_ssd1306_draw_text, oled_write
        LOCFRAME ISTACK, 0, STACK
        LOCFRAME PSTACK, 0, STACK
        LOCFRAME XSTACK, 16, STACK
        LOCFRAME IOVERLAY, 0, STATIC
        LOCFRAME DOVERLAY, 0, STATIC
        ARGFRAME ISTACK, 0, STACK
        ARGFRAME PSTACK, 0, STACK
        ARGFRAME XSTACK, 16, STACK
        ARGFRAME IOVERLAY, 0, STATIC
        ARGFRAME DOVERLAY, 0, STATIC
        FUNCALL oled_ssd1306_draw_text, oled_write
        LOCFRAME ISTACK, 0, STACK
        LOCFRAME PSTACK, 0, STACK
        LOCFRAME XSTACK, 16, STACK
        LOCFRAME IOVERLAY, 0, STATIC
        LOCFRAME DOVERLAY, 0, STATIC
        ARGFRAME ISTACK, 0, STACK
        ARGFRAME PSTACK, 0, STACK
        ARGFRAME XSTACK, 16, STACK
        ARGFRAME IOVERLAY, 0, STATIC
        ARGFRAME DOVERLAY, 0, STATIC
        FUNCALL oled_ssd1306_draw_text, oled_write
        LOCFRAME ISTACK, 0, STACK
        LOCFRAME PSTACK, 0, STACK
        LOCFRAME XSTACK, 16, STACK
        LOCFRAME IOVERLAY, 0, STATIC
        LOCFRAME DOVERLAY, 0, STATIC
        ARGFRAME ISTACK, 0, STACK
        ARGFRAME PSTACK, 0, STACK
        ARGFRAME XSTACK, 16, STACK
        ARGFRAME IOVERLAY, 0, STATIC
        ARGFRAME DOVERLAY, 0, STATIC
        FUNCALL oled_ssd1306_draw_text, oled_write
        LOCFRAME ISTACK, 0, STACK
        LOCFRAME PSTACK, 0, STACK
        LOCFRAME XSTACK, 16, STACK
        LOCFRAME IOVERLAY, 0, STATIC
        LOCFRAME DOVERLAY, 0, STATIC
        ARGFRAME ISTACK, 0, STACK
        ARGFRAME PSTACK, 0, STACK
        ARGFRAME XSTACK, 16, STACK
        ARGFRAME IOVERLAY, 0, STATIC
        ARGFRAME DOVERLAY, 0, STATIC
        FUNCALL oled_ssd1306_draw_text, oled_write
        LOCFRAME ISTACK, 0, STACK
        LOCFRAME PSTACK, 0, STACK
        LOCFRAME XSTACK, 16, STACK
        LOCFRAME IOVERLAY, 0, STATIC
        LOCFRAME DOVERLAY, 0, STATIC
        ARGFRAME ISTACK, 0, STACK
        ARGFRAME PSTACK, 0, STACK
        ARGFRAME XSTACK, 16, STACK
        ARGFRAME IOVERLAY, 0, STATIC
        ARGFRAME DOVERLAY, 0, STATIC
        FUNCALL oled_ssd1306_draw_text, oled_set_pos
        LOCFRAME ISTACK, 0, STACK
        LOCFRAME PSTACK, 0, STACK
        LOCFRAME XSTACK, 16, STACK
        LOCFRAME IOVERLAY, 0, STATIC
        LOCFRAME DOVERLAY, 0, STATIC
        ARGFRAME ISTACK, 0, STACK
        ARGFRAME PSTACK, 0, STACK
        ARGFRAME XSTACK, 16, STACK
        ARGFRAME IOVERLAY, 0, STATIC
        ARGFRAME DOVERLAY, 0, STATIC
        FUNCALL oled_ssd1306_draw_text, oled_write
        LOCFRAME ISTACK, 0, STACK
        LOCFRAME PSTACK, 0, STACK
        LOCFRAME XSTACK, 16, STACK
        LOCFRAME IOVERLAY, 0, STATIC
        LOCFRAME DOVERLAY, 0, STATIC
        ARGFRAME ISTACK, 0, STACK
        ARGFRAME PSTACK, 0, STACK
        ARGFRAME XSTACK, 16, STACK
        ARGFRAME IOVERLAY, 0, STATIC
        ARGFRAME DOVERLAY, 0, STATIC
        FUNCALL oled_ssd1306_draw_text, oled_write
        LOCFRAME ISTACK, 0, STACK
        LOCFRAME PSTACK, 0, STACK
        LOCFRAME XSTACK, 16, STACK
        LOCFRAME IOVERLAY, 0, STATIC
        LOCFRAME DOVERLAY, 0, STATIC
        ARGFRAME ISTACK, 0, STACK
        ARGFRAME PSTACK, 0, STACK
        ARGFRAME XSTACK, 16, STACK
        ARGFRAME IOVERLAY, 0, STATIC
        ARGFRAME DOVERLAY, 0, STATIC
        FUNCALL oled_ssd1306_draw_text, oled_write
        LOCFRAME ISTACK, 0, STACK
        LOCFRAME PSTACK, 0, STACK
        LOCFRAME XSTACK, 16, STACK
        LOCFRAME IOVERLAY, 0, STATIC
        LOCFRAME DOVERLAY, 0, STATIC
        ARGFRAME ISTACK, 0, STACK
        ARGFRAME PSTACK, 0, STACK
        ARGFRAME XSTACK, 16, STACK
        ARGFRAME IOVERLAY, 0, STATIC
        ARGFRAME DOVERLAY, 0, STATIC
        FUNCALL oled_ssd1306_draw_text, oled_write
        LOCFRAME ISTACK, 0, STACK
        LOCFRAME PSTACK, 0, STACK
        LOCFRAME XSTACK, 16, STACK
        LOCFRAME IOVERLAY, 0, STATIC
        LOCFRAME DOVERLAY, 0, STATIC
        ARGFRAME ISTACK, 0, STACK
        ARGFRAME PSTACK, 0, STACK
        ARGFRAME XSTACK, 16, STACK
        ARGFRAME IOVERLAY, 0, STATIC
        ARGFRAME DOVERLAY, 0, STATIC
        FUNCALL oled_ssd1306_draw_text, oled_write
        LOCFRAME ISTACK, 0, STACK
        LOCFRAME PSTACK, 0, STACK
        LOCFRAME XSTACK, 16, STACK
        LOCFRAME IOVERLAY, 0, STATIC
        LOCFRAME DOVERLAY, 0, STATIC
        ARGFRAME ISTACK, 0, STACK
        ARGFRAME PSTACK, 0, STACK
        ARGFRAME XSTACK, 16, STACK
        ARGFRAME IOVERLAY, 0, STATIC
        ARGFRAME DOVERLAY, 0, STATIC
        FUNCALL oled_ssd1306_draw_text, oled_write
        LOCFRAME ISTACK, 0, STACK
        LOCFRAME PSTACK, 0, STACK
        LOCFRAME XSTACK, 16, STACK
        LOCFRAME IOVERLAY, 0, STATIC
        LOCFRAME DOVERLAY, 0, STATIC
        ARGFRAME ISTACK, 0, STACK
        ARGFRAME PSTACK, 0, STACK
        ARGFRAME XSTACK, 16, STACK
        ARGFRAME IOVERLAY, 0, STATIC
        ARGFRAME DOVERLAY, 0, STATIC
        FUNCALL oled_ssd1306_draw_text, oled_write
        LOCFRAME ISTACK, 0, STACK
        LOCFRAME PSTACK, 0, STACK
        LOCFRAME XSTACK, 16, STACK
        LOCFRAME IOVERLAY, 0, STATIC
        LOCFRAME DOVERLAY, 0, STATIC
        ARGFRAME ISTACK, 0, STACK
        ARGFRAME PSTACK, 0, STACK
        ARGFRAME XSTACK, 16, STACK
        ARGFRAME IOVERLAY, 0, STATIC
        ARGFRAME DOVERLAY, 0, STATIC
        FUNCALL oled_ssd1306_draw_text, oled_write
        LOCFRAME ISTACK, 0, STACK
        LOCFRAME PSTACK, 0, STACK
        LOCFRAME XSTACK, 16, STACK
        LOCFRAME IOVERLAY, 0, STATIC
        LOCFRAME DOVERLAY, 0, STATIC
        ARGFRAME ISTACK, 0, STACK
        ARGFRAME PSTACK, 0, STACK
        ARGFRAME XSTACK, 16, STACK
        ARGFRAME IOVERLAY, 0, STATIC
        ARGFRAME DOVERLAY, 0, STATIC
        MOV     A,#-0x10
        LCALL   ?BANKED_ENTER_XDATA
        CFI DPH0 load(1, XDATA, add(CFA_XSP16, literal(-1)))
        CFI DPL0 load(1, XDATA, add(CFA_XSP16, literal(-2)))
        CFI ?BRET_EXT load(1, XDATA, add(CFA_XSP16, literal(-3)))
        CFI ?RET_HIGH load(1, XDATA, add(CFA_XSP16, literal(-4)))
        CFI ?RET_LOW load(1, XDATA, add(CFA_XSP16, literal(-5)))
        CFI R7 load(1, XDATA, add(CFA_XSP16, literal(-6)))
        CFI V7 load(1, XDATA, add(CFA_XSP16, literal(-7)))
        CFI V6 load(1, XDATA, add(CFA_XSP16, literal(-8)))
        CFI V5 load(1, XDATA, add(CFA_XSP16, literal(-9)))
        CFI V4 load(1, XDATA, add(CFA_XSP16, literal(-10)))
        CFI V3 load(1, XDATA, add(CFA_XSP16, literal(-11)))
        CFI V2 load(1, XDATA, add(CFA_XSP16, literal(-12)))
        CFI V1 load(1, XDATA, add(CFA_XSP16, literal(-13)))
        CFI V0 load(1, XDATA, add(CFA_XSP16, literal(-14)))
        CFI VB load(1, XDATA, add(CFA_XSP16, literal(-15)))
        CFI R6 load(1, XDATA, add(CFA_XSP16, literal(-16)))
        CFI CFA_SP SP+0
        CFI CFA_XSP16 add(XSP16, 16)
        ; Saved register size: 16
        ; Auto size: 0
        MOV     ?V0 + 4,R2
        MOV     ?V0 + 5,R3
//   64     uint8 i;
//   65     uint8 ch;
//   66     uint8 x;
//   67     uint8 page;
//   68 
//   69     if (row > 3u) {
        MOV     A,R1
        CLR     C
        SUBB    A,#0x4
        JC      $+5
        LJMP    ??oled_ssd1306_draw_text_0 & 0xFFFF
//   70         return;
//   71     }
//   72 
//   73     page = (uint8)(row * 2u);
        MOV     A,R1
        CLR     C
        RLC     A
        MOV     ?V0 + 2,A
//   74     x = 0u;
        MOV     ?V0 + 0,#0x0
//   75     for (i = 0; i < 16u; ++i) {
        MOV     ?V0 + 3,#0x0
//   76         ch = (text != 0 && text[i] != '\0') ? (uint8)text[i] : (uint8)' ';
??oled_ssd1306_draw_text_1:
        MOV     A,?V0 + 4
        ORL     A,?V0 + 5
        JZ      ??oled_ssd1306_draw_text_2
        MOV     ?V0 + 6,?V0 + 3
        MOV     A,?V0 + 4
        ADD     A,?V0 + 6
        MOV     DPL,A
        MOV     A,?V0 + 5
        ADDC    A,#0x0
        MOV     DPH,A
        MOVX    A,@DPTR
        JZ      ??oled_ssd1306_draw_text_2
        MOV     ?V0 + 6,A
        SJMP    ??oled_ssd1306_draw_text_3
??oled_ssd1306_draw_text_2:
        MOV     ?V0 + 6,#0x20
//   77         if (ch < 0x20u || ch > 0x7Eu) {
??oled_ssd1306_draw_text_3:
        MOV     A,#-0x20
        ADD     A,?V0 + 6
        CLR     C
        SUBB    A,#0x5f
        JC      ??oled_ssd1306_draw_text_4
//   78             ch = (uint8)'?';
        MOV     ?V0 + 6,#0x3f
//   79         }
//   80         oled_set_pos(x, page);
??oled_ssd1306_draw_text_4:
        ; Setup parameters for call to function oled_set_pos
        MOV     R2,?V0 + 2
        MOV     R1,?V0 + 0
        LCALL   ??oled_set_pos?relay
//   81         oled_write(OLED_DAT_MODE, asc2_1608[ch - 0x20u][0]);
        MOV     ?V0 + 7,#0x0
        MOV     A,#0x4
        MOV     R0,#?V0 + 6
        LCALL   ?S_SHL
        MOV     A,#asc2_1608 & 0xff
        ADD     A,?V0 + 6
        MOV     R6,A
        MOV     A,#(asc2_1608 >> 8) & 0xff
        ADDC    A,?V0 + 7
        MOV     R7,A
        ; Setup parameters for call to function oled_write
        MOV     A,R6
        ADD     A,#0x0
        LCALL   ?Subroutine1 & 0xFFFF
//   82         oled_write(OLED_DAT_MODE, asc2_1608[ch - 0x20u][1]);
??CrossCallReturnLabel_0:
        ADD     A,#0x1
        LCALL   ?Subroutine1 & 0xFFFF
//   83         oled_write(OLED_DAT_MODE, asc2_1608[ch - 0x20u][2]);
??CrossCallReturnLabel_1:
        ADD     A,#0x2
        LCALL   ?Subroutine1 & 0xFFFF
//   84         oled_write(OLED_DAT_MODE, asc2_1608[ch - 0x20u][3]);
??CrossCallReturnLabel_2:
        ADD     A,#0x3
        LCALL   ?Subroutine1 & 0xFFFF
//   85         oled_write(OLED_DAT_MODE, asc2_1608[ch - 0x20u][4]);
??CrossCallReturnLabel_3:
        ADD     A,#0x4
        LCALL   ?Subroutine1 & 0xFFFF
//   86         oled_write(OLED_DAT_MODE, asc2_1608[ch - 0x20u][5]);
??CrossCallReturnLabel_4:
        ADD     A,#0x5
        LCALL   ?Subroutine1 & 0xFFFF
//   87         oled_write(OLED_DAT_MODE, asc2_1608[ch - 0x20u][6]);
??CrossCallReturnLabel_5:
        ADD     A,#0x6
        LCALL   ?Subroutine1 & 0xFFFF
//   88         oled_write(OLED_DAT_MODE, asc2_1608[ch - 0x20u][7]);
??CrossCallReturnLabel_6:
        ADD     A,#0x7
        LCALL   ?Subroutine2 & 0xFFFF
//   89 
//   90         oled_set_pos(x, (uint8)(page + 1u));
??CrossCallReturnLabel_14:
        ; Setup parameters for call to function oled_set_pos
        MOV     A,#0x1
        ADD     A,?V0 + 2
        MOV     R2,A
        MOV     R1,?V0 + 0
        LCALL   ??oled_set_pos?relay
//   91         oled_write(OLED_DAT_MODE, asc2_1608[ch - 0x20u][8]);
        ; Setup parameters for call to function oled_write
        MOV     A,R6
        ADD     A,#0x8
        LCALL   ?Subroutine1 & 0xFFFF
//   92         oled_write(OLED_DAT_MODE, asc2_1608[ch - 0x20u][9]);
??CrossCallReturnLabel_7:
        ADD     A,#0x9
        LCALL   ?Subroutine1 & 0xFFFF
//   93         oled_write(OLED_DAT_MODE, asc2_1608[ch - 0x20u][10]);
??CrossCallReturnLabel_8:
        ADD     A,#0xa
        LCALL   ?Subroutine1 & 0xFFFF
//   94         oled_write(OLED_DAT_MODE, asc2_1608[ch - 0x20u][11]);
??CrossCallReturnLabel_9:
        ADD     A,#0xb
        LCALL   ?Subroutine1 & 0xFFFF
//   95         oled_write(OLED_DAT_MODE, asc2_1608[ch - 0x20u][12]);
??CrossCallReturnLabel_10:
        ADD     A,#0xc
        LCALL   ?Subroutine1 & 0xFFFF
//   96         oled_write(OLED_DAT_MODE, asc2_1608[ch - 0x20u][13]);
??CrossCallReturnLabel_11:
        ADD     A,#0xd
        LCALL   ?Subroutine1 & 0xFFFF
//   97         oled_write(OLED_DAT_MODE, asc2_1608[ch - 0x20u][14]);
??CrossCallReturnLabel_12:
        ADD     A,#0xe
        LCALL   ?Subroutine1 & 0xFFFF
//   98         oled_write(OLED_DAT_MODE, asc2_1608[ch - 0x20u][15]);
??CrossCallReturnLabel_13:
        ADD     A,#0xf
        LCALL   ?Subroutine2 & 0xFFFF
//   99 
//  100         x = (uint8)(x + 8u);
??CrossCallReturnLabel_15:
        MOV     A,#0x8
        ADD     A,?V0 + 0
        MOV     ?V0 + 0,A
//  101     }
        INC     ?V0 + 3
        MOV     A,?V0 + 3
        CLR     C
        SUBB    A,#0x10
        JNC     $+5
        LJMP    ??oled_ssd1306_draw_text_1 & 0xFFFF
??oled_ssd1306_draw_text_0:
        MOV     R7,#0x8
        LJMP    ?BANKED_LEAVE_XDATA
        CFI EndBlock cfiBlock5
//  102 }

        RSEG BANKED_CODE:CODE:NOROOT(0)
?Subroutine2:
        CFI Block cfiCond6 Using cfiCommon0
        CFI NoFunction
        CFI Conditional ??CrossCallReturnLabel_14
        CFI R6 load(1, XDATA, add(CFA_XSP16, literal(-16)))
        CFI VB load(1, XDATA, add(CFA_XSP16, literal(-15)))
        CFI V0 load(1, XDATA, add(CFA_XSP16, literal(-14)))
        CFI V1 load(1, XDATA, add(CFA_XSP16, literal(-13)))
        CFI V2 load(1, XDATA, add(CFA_XSP16, literal(-12)))
        CFI V3 load(1, XDATA, add(CFA_XSP16, literal(-11)))
        CFI V4 load(1, XDATA, add(CFA_XSP16, literal(-10)))
        CFI V5 load(1, XDATA, add(CFA_XSP16, literal(-9)))
        CFI V6 load(1, XDATA, add(CFA_XSP16, literal(-8)))
        CFI V7 load(1, XDATA, add(CFA_XSP16, literal(-7)))
        CFI R7 load(1, XDATA, add(CFA_XSP16, literal(-6)))
        CFI ?RET_LOW load(1, XDATA, add(CFA_XSP16, literal(-5)))
        CFI ?RET_HIGH load(1, XDATA, add(CFA_XSP16, literal(-4)))
        CFI ?BRET_EXT load(1, XDATA, add(CFA_XSP16, literal(-3)))
        CFI DPL0 load(1, XDATA, add(CFA_XSP16, literal(-2)))
        CFI DPH0 load(1, XDATA, add(CFA_XSP16, literal(-1)))
        CFI CFA_SP SP+0
        CFI CFA_XSP16 add(XSP16, 16)
        CFI Block cfiCond7 Using cfiCommon0
        CFI (cfiCond7) NoFunction
        CFI (cfiCond7) Conditional ??CrossCallReturnLabel_15
        CFI (cfiCond7) R6 load(1, XDATA, add(CFA_XSP16, literal(-16)))
        CFI (cfiCond7) VB load(1, XDATA, add(CFA_XSP16, literal(-15)))
        CFI (cfiCond7) V0 load(1, XDATA, add(CFA_XSP16, literal(-14)))
        CFI (cfiCond7) V1 load(1, XDATA, add(CFA_XSP16, literal(-13)))
        CFI (cfiCond7) V2 load(1, XDATA, add(CFA_XSP16, literal(-12)))
        CFI (cfiCond7) V3 load(1, XDATA, add(CFA_XSP16, literal(-11)))
        CFI (cfiCond7) V4 load(1, XDATA, add(CFA_XSP16, literal(-10)))
        CFI (cfiCond7) V5 load(1, XDATA, add(CFA_XSP16, literal(-9)))
        CFI (cfiCond7) V6 load(1, XDATA, add(CFA_XSP16, literal(-8)))
        CFI (cfiCond7) V7 load(1, XDATA, add(CFA_XSP16, literal(-7)))
        CFI (cfiCond7) R7 load(1, XDATA, add(CFA_XSP16, literal(-6)))
        CFI (cfiCond7) ?RET_LOW load(1, XDATA, add(CFA_XSP16, literal(-5)))
        CFI (cfiCond7) ?RET_HIGH load(1, XDATA, add(CFA_XSP16, literal(-4)))
        CFI (cfiCond7) ?BRET_EXT load(1, XDATA, add(CFA_XSP16, literal(-3)))
        CFI (cfiCond7) DPL0 load(1, XDATA, add(CFA_XSP16, literal(-2)))
        CFI (cfiCond7) DPH0 load(1, XDATA, add(CFA_XSP16, literal(-1)))
        CFI (cfiCond7) CFA_SP SP+0
        CFI (cfiCond7) CFA_XSP16 add(XSP16, 16)
        CFI Block cfiPicker8 Using cfiCommon1
        CFI (cfiPicker8) NoFunction
        CFI (cfiPicker8) Picker
        LCALL   ?Subroutine3 & 0xFFFF
??CrossCallReturnLabel_16:
        RET
        CFI EndBlock cfiCond6
        CFI EndBlock cfiCond7
        CFI EndBlock cfiPicker8

        RSEG BANKED_CODE:CODE:NOROOT(0)
?Subroutine3:
        CFI Block cfiCond9 Using cfiCommon0
        CFI NoFunction
        CFI Conditional ??CrossCallReturnLabel_16, ??CrossCallReturnLabel_14
        CFI R6 load(1, XDATA, add(CFA_XSP16, literal(-16)))
        CFI VB load(1, XDATA, add(CFA_XSP16, literal(-15)))
        CFI V0 load(1, XDATA, add(CFA_XSP16, literal(-14)))
        CFI V1 load(1, XDATA, add(CFA_XSP16, literal(-13)))
        CFI V2 load(1, XDATA, add(CFA_XSP16, literal(-12)))
        CFI V3 load(1, XDATA, add(CFA_XSP16, literal(-11)))
        CFI V4 load(1, XDATA, add(CFA_XSP16, literal(-10)))
        CFI V5 load(1, XDATA, add(CFA_XSP16, literal(-9)))
        CFI V6 load(1, XDATA, add(CFA_XSP16, literal(-8)))
        CFI V7 load(1, XDATA, add(CFA_XSP16, literal(-7)))
        CFI R7 load(1, XDATA, add(CFA_XSP16, literal(-6)))
        CFI ?RET_LOW load(1, XDATA, add(CFA_XSP16, literal(-5)))
        CFI ?RET_HIGH load(1, XDATA, add(CFA_XSP16, literal(-4)))
        CFI ?BRET_EXT load(1, XDATA, add(CFA_XSP16, literal(-3)))
        CFI DPL0 load(1, XDATA, add(CFA_XSP16, literal(-2)))
        CFI DPH0 load(1, XDATA, add(CFA_XSP16, literal(-1)))
        CFI CFA_SP SP+0
        CFI CFA_XSP16 add(XSP16, 16)
        CFI Block cfiCond10 Using cfiCommon0
        CFI (cfiCond10) NoFunction
        CFI (cfiCond10) Conditional ??CrossCallReturnLabel_16, ??CrossCallReturnLabel_15
        CFI (cfiCond10) R6 load(1, XDATA, add(CFA_XSP16, literal(-16)))
        CFI (cfiCond10) VB load(1, XDATA, add(CFA_XSP16, literal(-15)))
        CFI (cfiCond10) V0 load(1, XDATA, add(CFA_XSP16, literal(-14)))
        CFI (cfiCond10) V1 load(1, XDATA, add(CFA_XSP16, literal(-13)))
        CFI (cfiCond10) V2 load(1, XDATA, add(CFA_XSP16, literal(-12)))
        CFI (cfiCond10) V3 load(1, XDATA, add(CFA_XSP16, literal(-11)))
        CFI (cfiCond10) V4 load(1, XDATA, add(CFA_XSP16, literal(-10)))
        CFI (cfiCond10) V5 load(1, XDATA, add(CFA_XSP16, literal(-9)))
        CFI (cfiCond10) V6 load(1, XDATA, add(CFA_XSP16, literal(-8)))
        CFI (cfiCond10) V7 load(1, XDATA, add(CFA_XSP16, literal(-7)))
        CFI (cfiCond10) R7 load(1, XDATA, add(CFA_XSP16, literal(-6)))
        CFI (cfiCond10) ?RET_LOW load(1, XDATA, add(CFA_XSP16, literal(-5)))
        CFI (cfiCond10) ?RET_HIGH load(1, XDATA, add(CFA_XSP16, literal(-4)))
        CFI (cfiCond10) ?BRET_EXT load(1, XDATA, add(CFA_XSP16, literal(-3)))
        CFI (cfiCond10) DPL0 load(1, XDATA, add(CFA_XSP16, literal(-2)))
        CFI (cfiCond10) DPH0 load(1, XDATA, add(CFA_XSP16, literal(-1)))
        CFI (cfiCond10) CFA_SP SP+0
        CFI (cfiCond10) CFA_XSP16 add(XSP16, 16)
        CFI Block cfiCond11 Using cfiCommon0
        CFI (cfiCond11) NoFunction
        CFI (cfiCond11) Conditional ??CrossCallReturnLabel_17, ??CrossCallReturnLabel_0
        CFI (cfiCond11) R6 load(1, XDATA, add(CFA_XSP16, literal(-16)))
        CFI (cfiCond11) VB load(1, XDATA, add(CFA_XSP16, literal(-15)))
        CFI (cfiCond11) V0 load(1, XDATA, add(CFA_XSP16, literal(-14)))
        CFI (cfiCond11) V1 load(1, XDATA, add(CFA_XSP16, literal(-13)))
        CFI (cfiCond11) V2 load(1, XDATA, add(CFA_XSP16, literal(-12)))
        CFI (cfiCond11) V3 load(1, XDATA, add(CFA_XSP16, literal(-11)))
        CFI (cfiCond11) V4 load(1, XDATA, add(CFA_XSP16, literal(-10)))
        CFI (cfiCond11) V5 load(1, XDATA, add(CFA_XSP16, literal(-9)))
        CFI (cfiCond11) V6 load(1, XDATA, add(CFA_XSP16, literal(-8)))
        CFI (cfiCond11) V7 load(1, XDATA, add(CFA_XSP16, literal(-7)))
        CFI (cfiCond11) R7 load(1, XDATA, add(CFA_XSP16, literal(-6)))
        CFI (cfiCond11) ?RET_LOW load(1, XDATA, add(CFA_XSP16, literal(-5)))
        CFI (cfiCond11) ?RET_HIGH load(1, XDATA, add(CFA_XSP16, literal(-4)))
        CFI (cfiCond11) ?BRET_EXT load(1, XDATA, add(CFA_XSP16, literal(-3)))
        CFI (cfiCond11) DPL0 load(1, XDATA, add(CFA_XSP16, literal(-2)))
        CFI (cfiCond11) DPH0 load(1, XDATA, add(CFA_XSP16, literal(-1)))
        CFI (cfiCond11) CFA_SP SP+0
        CFI (cfiCond11) CFA_XSP16 add(XSP16, 16)
        CFI Block cfiCond12 Using cfiCommon0
        CFI (cfiCond12) NoFunction
        CFI (cfiCond12) Conditional ??CrossCallReturnLabel_17, ??CrossCallReturnLabel_1
        CFI (cfiCond12) R6 load(1, XDATA, add(CFA_XSP16, literal(-16)))
        CFI (cfiCond12) VB load(1, XDATA, add(CFA_XSP16, literal(-15)))
        CFI (cfiCond12) V0 load(1, XDATA, add(CFA_XSP16, literal(-14)))
        CFI (cfiCond12) V1 load(1, XDATA, add(CFA_XSP16, literal(-13)))
        CFI (cfiCond12) V2 load(1, XDATA, add(CFA_XSP16, literal(-12)))
        CFI (cfiCond12) V3 load(1, XDATA, add(CFA_XSP16, literal(-11)))
        CFI (cfiCond12) V4 load(1, XDATA, add(CFA_XSP16, literal(-10)))
        CFI (cfiCond12) V5 load(1, XDATA, add(CFA_XSP16, literal(-9)))
        CFI (cfiCond12) V6 load(1, XDATA, add(CFA_XSP16, literal(-8)))
        CFI (cfiCond12) V7 load(1, XDATA, add(CFA_XSP16, literal(-7)))
        CFI (cfiCond12) R7 load(1, XDATA, add(CFA_XSP16, literal(-6)))
        CFI (cfiCond12) ?RET_LOW load(1, XDATA, add(CFA_XSP16, literal(-5)))
        CFI (cfiCond12) ?RET_HIGH load(1, XDATA, add(CFA_XSP16, literal(-4)))
        CFI (cfiCond12) ?BRET_EXT load(1, XDATA, add(CFA_XSP16, literal(-3)))
        CFI (cfiCond12) DPL0 load(1, XDATA, add(CFA_XSP16, literal(-2)))
        CFI (cfiCond12) DPH0 load(1, XDATA, add(CFA_XSP16, literal(-1)))
        CFI (cfiCond12) CFA_SP SP+0
        CFI (cfiCond12) CFA_XSP16 add(XSP16, 16)
        CFI Block cfiCond13 Using cfiCommon0
        CFI (cfiCond13) NoFunction
        CFI (cfiCond13) Conditional ??CrossCallReturnLabel_17, ??CrossCallReturnLabel_2
        CFI (cfiCond13) R6 load(1, XDATA, add(CFA_XSP16, literal(-16)))
        CFI (cfiCond13) VB load(1, XDATA, add(CFA_XSP16, literal(-15)))
        CFI (cfiCond13) V0 load(1, XDATA, add(CFA_XSP16, literal(-14)))
        CFI (cfiCond13) V1 load(1, XDATA, add(CFA_XSP16, literal(-13)))
        CFI (cfiCond13) V2 load(1, XDATA, add(CFA_XSP16, literal(-12)))
        CFI (cfiCond13) V3 load(1, XDATA, add(CFA_XSP16, literal(-11)))
        CFI (cfiCond13) V4 load(1, XDATA, add(CFA_XSP16, literal(-10)))
        CFI (cfiCond13) V5 load(1, XDATA, add(CFA_XSP16, literal(-9)))
        CFI (cfiCond13) V6 load(1, XDATA, add(CFA_XSP16, literal(-8)))
        CFI (cfiCond13) V7 load(1, XDATA, add(CFA_XSP16, literal(-7)))
        CFI (cfiCond13) R7 load(1, XDATA, add(CFA_XSP16, literal(-6)))
        CFI (cfiCond13) ?RET_LOW load(1, XDATA, add(CFA_XSP16, literal(-5)))
        CFI (cfiCond13) ?RET_HIGH load(1, XDATA, add(CFA_XSP16, literal(-4)))
        CFI (cfiCond13) ?BRET_EXT load(1, XDATA, add(CFA_XSP16, literal(-3)))
        CFI (cfiCond13) DPL0 load(1, XDATA, add(CFA_XSP16, literal(-2)))
        CFI (cfiCond13) DPH0 load(1, XDATA, add(CFA_XSP16, literal(-1)))
        CFI (cfiCond13) CFA_SP SP+0
        CFI (cfiCond13) CFA_XSP16 add(XSP16, 16)
        CFI Block cfiCond14 Using cfiCommon0
        CFI (cfiCond14) NoFunction
        CFI (cfiCond14) Conditional ??CrossCallReturnLabel_17, ??CrossCallReturnLabel_3
        CFI (cfiCond14) R6 load(1, XDATA, add(CFA_XSP16, literal(-16)))
        CFI (cfiCond14) VB load(1, XDATA, add(CFA_XSP16, literal(-15)))
        CFI (cfiCond14) V0 load(1, XDATA, add(CFA_XSP16, literal(-14)))
        CFI (cfiCond14) V1 load(1, XDATA, add(CFA_XSP16, literal(-13)))
        CFI (cfiCond14) V2 load(1, XDATA, add(CFA_XSP16, literal(-12)))
        CFI (cfiCond14) V3 load(1, XDATA, add(CFA_XSP16, literal(-11)))
        CFI (cfiCond14) V4 load(1, XDATA, add(CFA_XSP16, literal(-10)))
        CFI (cfiCond14) V5 load(1, XDATA, add(CFA_XSP16, literal(-9)))
        CFI (cfiCond14) V6 load(1, XDATA, add(CFA_XSP16, literal(-8)))
        CFI (cfiCond14) V7 load(1, XDATA, add(CFA_XSP16, literal(-7)))
        CFI (cfiCond14) R7 load(1, XDATA, add(CFA_XSP16, literal(-6)))
        CFI (cfiCond14) ?RET_LOW load(1, XDATA, add(CFA_XSP16, literal(-5)))
        CFI (cfiCond14) ?RET_HIGH load(1, XDATA, add(CFA_XSP16, literal(-4)))
        CFI (cfiCond14) ?BRET_EXT load(1, XDATA, add(CFA_XSP16, literal(-3)))
        CFI (cfiCond14) DPL0 load(1, XDATA, add(CFA_XSP16, literal(-2)))
        CFI (cfiCond14) DPH0 load(1, XDATA, add(CFA_XSP16, literal(-1)))
        CFI (cfiCond14) CFA_SP SP+0
        CFI (cfiCond14) CFA_XSP16 add(XSP16, 16)
        CFI Block cfiCond15 Using cfiCommon0
        CFI (cfiCond15) NoFunction
        CFI (cfiCond15) Conditional ??CrossCallReturnLabel_17, ??CrossCallReturnLabel_4
        CFI (cfiCond15) R6 load(1, XDATA, add(CFA_XSP16, literal(-16)))
        CFI (cfiCond15) VB load(1, XDATA, add(CFA_XSP16, literal(-15)))
        CFI (cfiCond15) V0 load(1, XDATA, add(CFA_XSP16, literal(-14)))
        CFI (cfiCond15) V1 load(1, XDATA, add(CFA_XSP16, literal(-13)))
        CFI (cfiCond15) V2 load(1, XDATA, add(CFA_XSP16, literal(-12)))
        CFI (cfiCond15) V3 load(1, XDATA, add(CFA_XSP16, literal(-11)))
        CFI (cfiCond15) V4 load(1, XDATA, add(CFA_XSP16, literal(-10)))
        CFI (cfiCond15) V5 load(1, XDATA, add(CFA_XSP16, literal(-9)))
        CFI (cfiCond15) V6 load(1, XDATA, add(CFA_XSP16, literal(-8)))
        CFI (cfiCond15) V7 load(1, XDATA, add(CFA_XSP16, literal(-7)))
        CFI (cfiCond15) R7 load(1, XDATA, add(CFA_XSP16, literal(-6)))
        CFI (cfiCond15) ?RET_LOW load(1, XDATA, add(CFA_XSP16, literal(-5)))
        CFI (cfiCond15) ?RET_HIGH load(1, XDATA, add(CFA_XSP16, literal(-4)))
        CFI (cfiCond15) ?BRET_EXT load(1, XDATA, add(CFA_XSP16, literal(-3)))
        CFI (cfiCond15) DPL0 load(1, XDATA, add(CFA_XSP16, literal(-2)))
        CFI (cfiCond15) DPH0 load(1, XDATA, add(CFA_XSP16, literal(-1)))
        CFI (cfiCond15) CFA_SP SP+0
        CFI (cfiCond15) CFA_XSP16 add(XSP16, 16)
        CFI Block cfiCond16 Using cfiCommon0
        CFI (cfiCond16) NoFunction
        CFI (cfiCond16) Conditional ??CrossCallReturnLabel_17, ??CrossCallReturnLabel_5
        CFI (cfiCond16) R6 load(1, XDATA, add(CFA_XSP16, literal(-16)))
        CFI (cfiCond16) VB load(1, XDATA, add(CFA_XSP16, literal(-15)))
        CFI (cfiCond16) V0 load(1, XDATA, add(CFA_XSP16, literal(-14)))
        CFI (cfiCond16) V1 load(1, XDATA, add(CFA_XSP16, literal(-13)))
        CFI (cfiCond16) V2 load(1, XDATA, add(CFA_XSP16, literal(-12)))
        CFI (cfiCond16) V3 load(1, XDATA, add(CFA_XSP16, literal(-11)))
        CFI (cfiCond16) V4 load(1, XDATA, add(CFA_XSP16, literal(-10)))
        CFI (cfiCond16) V5 load(1, XDATA, add(CFA_XSP16, literal(-9)))
        CFI (cfiCond16) V6 load(1, XDATA, add(CFA_XSP16, literal(-8)))
        CFI (cfiCond16) V7 load(1, XDATA, add(CFA_XSP16, literal(-7)))
        CFI (cfiCond16) R7 load(1, XDATA, add(CFA_XSP16, literal(-6)))
        CFI (cfiCond16) ?RET_LOW load(1, XDATA, add(CFA_XSP16, literal(-5)))
        CFI (cfiCond16) ?RET_HIGH load(1, XDATA, add(CFA_XSP16, literal(-4)))
        CFI (cfiCond16) ?BRET_EXT load(1, XDATA, add(CFA_XSP16, literal(-3)))
        CFI (cfiCond16) DPL0 load(1, XDATA, add(CFA_XSP16, literal(-2)))
        CFI (cfiCond16) DPH0 load(1, XDATA, add(CFA_XSP16, literal(-1)))
        CFI (cfiCond16) CFA_SP SP+0
        CFI (cfiCond16) CFA_XSP16 add(XSP16, 16)
        CFI Block cfiCond17 Using cfiCommon0
        CFI (cfiCond17) NoFunction
        CFI (cfiCond17) Conditional ??CrossCallReturnLabel_17, ??CrossCallReturnLabel_6
        CFI (cfiCond17) R6 load(1, XDATA, add(CFA_XSP16, literal(-16)))
        CFI (cfiCond17) VB load(1, XDATA, add(CFA_XSP16, literal(-15)))
        CFI (cfiCond17) V0 load(1, XDATA, add(CFA_XSP16, literal(-14)))
        CFI (cfiCond17) V1 load(1, XDATA, add(CFA_XSP16, literal(-13)))
        CFI (cfiCond17) V2 load(1, XDATA, add(CFA_XSP16, literal(-12)))
        CFI (cfiCond17) V3 load(1, XDATA, add(CFA_XSP16, literal(-11)))
        CFI (cfiCond17) V4 load(1, XDATA, add(CFA_XSP16, literal(-10)))
        CFI (cfiCond17) V5 load(1, XDATA, add(CFA_XSP16, literal(-9)))
        CFI (cfiCond17) V6 load(1, XDATA, add(CFA_XSP16, literal(-8)))
        CFI (cfiCond17) V7 load(1, XDATA, add(CFA_XSP16, literal(-7)))
        CFI (cfiCond17) R7 load(1, XDATA, add(CFA_XSP16, literal(-6)))
        CFI (cfiCond17) ?RET_LOW load(1, XDATA, add(CFA_XSP16, literal(-5)))
        CFI (cfiCond17) ?RET_HIGH load(1, XDATA, add(CFA_XSP16, literal(-4)))
        CFI (cfiCond17) ?BRET_EXT load(1, XDATA, add(CFA_XSP16, literal(-3)))
        CFI (cfiCond17) DPL0 load(1, XDATA, add(CFA_XSP16, literal(-2)))
        CFI (cfiCond17) DPH0 load(1, XDATA, add(CFA_XSP16, literal(-1)))
        CFI (cfiCond17) CFA_SP SP+0
        CFI (cfiCond17) CFA_XSP16 add(XSP16, 16)
        CFI Block cfiCond18 Using cfiCommon0
        CFI (cfiCond18) NoFunction
        CFI (cfiCond18) Conditional ??CrossCallReturnLabel_17, ??CrossCallReturnLabel_7
        CFI (cfiCond18) R6 load(1, XDATA, add(CFA_XSP16, literal(-16)))
        CFI (cfiCond18) VB load(1, XDATA, add(CFA_XSP16, literal(-15)))
        CFI (cfiCond18) V0 load(1, XDATA, add(CFA_XSP16, literal(-14)))
        CFI (cfiCond18) V1 load(1, XDATA, add(CFA_XSP16, literal(-13)))
        CFI (cfiCond18) V2 load(1, XDATA, add(CFA_XSP16, literal(-12)))
        CFI (cfiCond18) V3 load(1, XDATA, add(CFA_XSP16, literal(-11)))
        CFI (cfiCond18) V4 load(1, XDATA, add(CFA_XSP16, literal(-10)))
        CFI (cfiCond18) V5 load(1, XDATA, add(CFA_XSP16, literal(-9)))
        CFI (cfiCond18) V6 load(1, XDATA, add(CFA_XSP16, literal(-8)))
        CFI (cfiCond18) V7 load(1, XDATA, add(CFA_XSP16, literal(-7)))
        CFI (cfiCond18) R7 load(1, XDATA, add(CFA_XSP16, literal(-6)))
        CFI (cfiCond18) ?RET_LOW load(1, XDATA, add(CFA_XSP16, literal(-5)))
        CFI (cfiCond18) ?RET_HIGH load(1, XDATA, add(CFA_XSP16, literal(-4)))
        CFI (cfiCond18) ?BRET_EXT load(1, XDATA, add(CFA_XSP16, literal(-3)))
        CFI (cfiCond18) DPL0 load(1, XDATA, add(CFA_XSP16, literal(-2)))
        CFI (cfiCond18) DPH0 load(1, XDATA, add(CFA_XSP16, literal(-1)))
        CFI (cfiCond18) CFA_SP SP+0
        CFI (cfiCond18) CFA_XSP16 add(XSP16, 16)
        CFI Block cfiCond19 Using cfiCommon0
        CFI (cfiCond19) NoFunction
        CFI (cfiCond19) Conditional ??CrossCallReturnLabel_17, ??CrossCallReturnLabel_8
        CFI (cfiCond19) R6 load(1, XDATA, add(CFA_XSP16, literal(-16)))
        CFI (cfiCond19) VB load(1, XDATA, add(CFA_XSP16, literal(-15)))
        CFI (cfiCond19) V0 load(1, XDATA, add(CFA_XSP16, literal(-14)))
        CFI (cfiCond19) V1 load(1, XDATA, add(CFA_XSP16, literal(-13)))
        CFI (cfiCond19) V2 load(1, XDATA, add(CFA_XSP16, literal(-12)))
        CFI (cfiCond19) V3 load(1, XDATA, add(CFA_XSP16, literal(-11)))
        CFI (cfiCond19) V4 load(1, XDATA, add(CFA_XSP16, literal(-10)))
        CFI (cfiCond19) V5 load(1, XDATA, add(CFA_XSP16, literal(-9)))
        CFI (cfiCond19) V6 load(1, XDATA, add(CFA_XSP16, literal(-8)))
        CFI (cfiCond19) V7 load(1, XDATA, add(CFA_XSP16, literal(-7)))
        CFI (cfiCond19) R7 load(1, XDATA, add(CFA_XSP16, literal(-6)))
        CFI (cfiCond19) ?RET_LOW load(1, XDATA, add(CFA_XSP16, literal(-5)))
        CFI (cfiCond19) ?RET_HIGH load(1, XDATA, add(CFA_XSP16, literal(-4)))
        CFI (cfiCond19) ?BRET_EXT load(1, XDATA, add(CFA_XSP16, literal(-3)))
        CFI (cfiCond19) DPL0 load(1, XDATA, add(CFA_XSP16, literal(-2)))
        CFI (cfiCond19) DPH0 load(1, XDATA, add(CFA_XSP16, literal(-1)))
        CFI (cfiCond19) CFA_SP SP+0
        CFI (cfiCond19) CFA_XSP16 add(XSP16, 16)
        CFI Block cfiCond20 Using cfiCommon0
        CFI (cfiCond20) NoFunction
        CFI (cfiCond20) Conditional ??CrossCallReturnLabel_17, ??CrossCallReturnLabel_9
        CFI (cfiCond20) R6 load(1, XDATA, add(CFA_XSP16, literal(-16)))
        CFI (cfiCond20) VB load(1, XDATA, add(CFA_XSP16, literal(-15)))
        CFI (cfiCond20) V0 load(1, XDATA, add(CFA_XSP16, literal(-14)))
        CFI (cfiCond20) V1 load(1, XDATA, add(CFA_XSP16, literal(-13)))
        CFI (cfiCond20) V2 load(1, XDATA, add(CFA_XSP16, literal(-12)))
        CFI (cfiCond20) V3 load(1, XDATA, add(CFA_XSP16, literal(-11)))
        CFI (cfiCond20) V4 load(1, XDATA, add(CFA_XSP16, literal(-10)))
        CFI (cfiCond20) V5 load(1, XDATA, add(CFA_XSP16, literal(-9)))
        CFI (cfiCond20) V6 load(1, XDATA, add(CFA_XSP16, literal(-8)))
        CFI (cfiCond20) V7 load(1, XDATA, add(CFA_XSP16, literal(-7)))
        CFI (cfiCond20) R7 load(1, XDATA, add(CFA_XSP16, literal(-6)))
        CFI (cfiCond20) ?RET_LOW load(1, XDATA, add(CFA_XSP16, literal(-5)))
        CFI (cfiCond20) ?RET_HIGH load(1, XDATA, add(CFA_XSP16, literal(-4)))
        CFI (cfiCond20) ?BRET_EXT load(1, XDATA, add(CFA_XSP16, literal(-3)))
        CFI (cfiCond20) DPL0 load(1, XDATA, add(CFA_XSP16, literal(-2)))
        CFI (cfiCond20) DPH0 load(1, XDATA, add(CFA_XSP16, literal(-1)))
        CFI (cfiCond20) CFA_SP SP+0
        CFI (cfiCond20) CFA_XSP16 add(XSP16, 16)
        CFI Block cfiCond21 Using cfiCommon0
        CFI (cfiCond21) NoFunction
        CFI (cfiCond21) Conditional ??CrossCallReturnLabel_17, ??CrossCallReturnLabel_10
        CFI (cfiCond21) R6 load(1, XDATA, add(CFA_XSP16, literal(-16)))
        CFI (cfiCond21) VB load(1, XDATA, add(CFA_XSP16, literal(-15)))
        CFI (cfiCond21) V0 load(1, XDATA, add(CFA_XSP16, literal(-14)))
        CFI (cfiCond21) V1 load(1, XDATA, add(CFA_XSP16, literal(-13)))
        CFI (cfiCond21) V2 load(1, XDATA, add(CFA_XSP16, literal(-12)))
        CFI (cfiCond21) V3 load(1, XDATA, add(CFA_XSP16, literal(-11)))
        CFI (cfiCond21) V4 load(1, XDATA, add(CFA_XSP16, literal(-10)))
        CFI (cfiCond21) V5 load(1, XDATA, add(CFA_XSP16, literal(-9)))
        CFI (cfiCond21) V6 load(1, XDATA, add(CFA_XSP16, literal(-8)))
        CFI (cfiCond21) V7 load(1, XDATA, add(CFA_XSP16, literal(-7)))
        CFI (cfiCond21) R7 load(1, XDATA, add(CFA_XSP16, literal(-6)))
        CFI (cfiCond21) ?RET_LOW load(1, XDATA, add(CFA_XSP16, literal(-5)))
        CFI (cfiCond21) ?RET_HIGH load(1, XDATA, add(CFA_XSP16, literal(-4)))
        CFI (cfiCond21) ?BRET_EXT load(1, XDATA, add(CFA_XSP16, literal(-3)))
        CFI (cfiCond21) DPL0 load(1, XDATA, add(CFA_XSP16, literal(-2)))
        CFI (cfiCond21) DPH0 load(1, XDATA, add(CFA_XSP16, literal(-1)))
        CFI (cfiCond21) CFA_SP SP+0
        CFI (cfiCond21) CFA_XSP16 add(XSP16, 16)
        CFI Block cfiCond22 Using cfiCommon0
        CFI (cfiCond22) NoFunction
        CFI (cfiCond22) Conditional ??CrossCallReturnLabel_17, ??CrossCallReturnLabel_11
        CFI (cfiCond22) R6 load(1, XDATA, add(CFA_XSP16, literal(-16)))
        CFI (cfiCond22) VB load(1, XDATA, add(CFA_XSP16, literal(-15)))
        CFI (cfiCond22) V0 load(1, XDATA, add(CFA_XSP16, literal(-14)))
        CFI (cfiCond22) V1 load(1, XDATA, add(CFA_XSP16, literal(-13)))
        CFI (cfiCond22) V2 load(1, XDATA, add(CFA_XSP16, literal(-12)))
        CFI (cfiCond22) V3 load(1, XDATA, add(CFA_XSP16, literal(-11)))
        CFI (cfiCond22) V4 load(1, XDATA, add(CFA_XSP16, literal(-10)))
        CFI (cfiCond22) V5 load(1, XDATA, add(CFA_XSP16, literal(-9)))
        CFI (cfiCond22) V6 load(1, XDATA, add(CFA_XSP16, literal(-8)))
        CFI (cfiCond22) V7 load(1, XDATA, add(CFA_XSP16, literal(-7)))
        CFI (cfiCond22) R7 load(1, XDATA, add(CFA_XSP16, literal(-6)))
        CFI (cfiCond22) ?RET_LOW load(1, XDATA, add(CFA_XSP16, literal(-5)))
        CFI (cfiCond22) ?RET_HIGH load(1, XDATA, add(CFA_XSP16, literal(-4)))
        CFI (cfiCond22) ?BRET_EXT load(1, XDATA, add(CFA_XSP16, literal(-3)))
        CFI (cfiCond22) DPL0 load(1, XDATA, add(CFA_XSP16, literal(-2)))
        CFI (cfiCond22) DPH0 load(1, XDATA, add(CFA_XSP16, literal(-1)))
        CFI (cfiCond22) CFA_SP SP+0
        CFI (cfiCond22) CFA_XSP16 add(XSP16, 16)
        CFI Block cfiCond23 Using cfiCommon0
        CFI (cfiCond23) NoFunction
        CFI (cfiCond23) Conditional ??CrossCallReturnLabel_17, ??CrossCallReturnLabel_12
        CFI (cfiCond23) R6 load(1, XDATA, add(CFA_XSP16, literal(-16)))
        CFI (cfiCond23) VB load(1, XDATA, add(CFA_XSP16, literal(-15)))
        CFI (cfiCond23) V0 load(1, XDATA, add(CFA_XSP16, literal(-14)))
        CFI (cfiCond23) V1 load(1, XDATA, add(CFA_XSP16, literal(-13)))
        CFI (cfiCond23) V2 load(1, XDATA, add(CFA_XSP16, literal(-12)))
        CFI (cfiCond23) V3 load(1, XDATA, add(CFA_XSP16, literal(-11)))
        CFI (cfiCond23) V4 load(1, XDATA, add(CFA_XSP16, literal(-10)))
        CFI (cfiCond23) V5 load(1, XDATA, add(CFA_XSP16, literal(-9)))
        CFI (cfiCond23) V6 load(1, XDATA, add(CFA_XSP16, literal(-8)))
        CFI (cfiCond23) V7 load(1, XDATA, add(CFA_XSP16, literal(-7)))
        CFI (cfiCond23) R7 load(1, XDATA, add(CFA_XSP16, literal(-6)))
        CFI (cfiCond23) ?RET_LOW load(1, XDATA, add(CFA_XSP16, literal(-5)))
        CFI (cfiCond23) ?RET_HIGH load(1, XDATA, add(CFA_XSP16, literal(-4)))
        CFI (cfiCond23) ?BRET_EXT load(1, XDATA, add(CFA_XSP16, literal(-3)))
        CFI (cfiCond23) DPL0 load(1, XDATA, add(CFA_XSP16, literal(-2)))
        CFI (cfiCond23) DPH0 load(1, XDATA, add(CFA_XSP16, literal(-1)))
        CFI (cfiCond23) CFA_SP SP+0
        CFI (cfiCond23) CFA_XSP16 add(XSP16, 16)
        CFI Block cfiCond24 Using cfiCommon0
        CFI (cfiCond24) NoFunction
        CFI (cfiCond24) Conditional ??CrossCallReturnLabel_17, ??CrossCallReturnLabel_13
        CFI (cfiCond24) R6 load(1, XDATA, add(CFA_XSP16, literal(-16)))
        CFI (cfiCond24) VB load(1, XDATA, add(CFA_XSP16, literal(-15)))
        CFI (cfiCond24) V0 load(1, XDATA, add(CFA_XSP16, literal(-14)))
        CFI (cfiCond24) V1 load(1, XDATA, add(CFA_XSP16, literal(-13)))
        CFI (cfiCond24) V2 load(1, XDATA, add(CFA_XSP16, literal(-12)))
        CFI (cfiCond24) V3 load(1, XDATA, add(CFA_XSP16, literal(-11)))
        CFI (cfiCond24) V4 load(1, XDATA, add(CFA_XSP16, literal(-10)))
        CFI (cfiCond24) V5 load(1, XDATA, add(CFA_XSP16, literal(-9)))
        CFI (cfiCond24) V6 load(1, XDATA, add(CFA_XSP16, literal(-8)))
        CFI (cfiCond24) V7 load(1, XDATA, add(CFA_XSP16, literal(-7)))
        CFI (cfiCond24) R7 load(1, XDATA, add(CFA_XSP16, literal(-6)))
        CFI (cfiCond24) ?RET_LOW load(1, XDATA, add(CFA_XSP16, literal(-5)))
        CFI (cfiCond24) ?RET_HIGH load(1, XDATA, add(CFA_XSP16, literal(-4)))
        CFI (cfiCond24) ?BRET_EXT load(1, XDATA, add(CFA_XSP16, literal(-3)))
        CFI (cfiCond24) DPL0 load(1, XDATA, add(CFA_XSP16, literal(-2)))
        CFI (cfiCond24) DPH0 load(1, XDATA, add(CFA_XSP16, literal(-1)))
        CFI (cfiCond24) CFA_SP SP+0
        CFI (cfiCond24) CFA_XSP16 add(XSP16, 16)
        CFI Block cfiPicker25 Using cfiCommon1
        CFI (cfiPicker25) NoFunction
        CFI (cfiPicker25) Picker
        MOV     DPL,A
        MOV     A,R7
        ADDC    A,#-0x2
        MOV     DPH,A
        MOVX    A,@DPTR
        MOV     R2,A
        MOV     R1,#0x40
        LCALL   ??oled_write?relay
        RET
        CFI EndBlock cfiCond9
        CFI EndBlock cfiCond10
        CFI EndBlock cfiCond11
        CFI EndBlock cfiCond12
        CFI EndBlock cfiCond13
        CFI EndBlock cfiCond14
        CFI EndBlock cfiCond15
        CFI EndBlock cfiCond16
        CFI EndBlock cfiCond17
        CFI EndBlock cfiCond18
        CFI EndBlock cfiCond19
        CFI EndBlock cfiCond20
        CFI EndBlock cfiCond21
        CFI EndBlock cfiCond22
        CFI EndBlock cfiCond23
        CFI EndBlock cfiCond24
        CFI EndBlock cfiPicker25

        RSEG BANKED_CODE:CODE:NOROOT(0)
?Subroutine1:
        CFI Block cfiCond26 Using cfiCommon0
        CFI NoFunction
        CFI Conditional ??CrossCallReturnLabel_0
        CFI R6 load(1, XDATA, add(CFA_XSP16, literal(-16)))
        CFI VB load(1, XDATA, add(CFA_XSP16, literal(-15)))
        CFI V0 load(1, XDATA, add(CFA_XSP16, literal(-14)))
        CFI V1 load(1, XDATA, add(CFA_XSP16, literal(-13)))
        CFI V2 load(1, XDATA, add(CFA_XSP16, literal(-12)))
        CFI V3 load(1, XDATA, add(CFA_XSP16, literal(-11)))
        CFI V4 load(1, XDATA, add(CFA_XSP16, literal(-10)))
        CFI V5 load(1, XDATA, add(CFA_XSP16, literal(-9)))
        CFI V6 load(1, XDATA, add(CFA_XSP16, literal(-8)))
        CFI V7 load(1, XDATA, add(CFA_XSP16, literal(-7)))
        CFI R7 load(1, XDATA, add(CFA_XSP16, literal(-6)))
        CFI ?RET_LOW load(1, XDATA, add(CFA_XSP16, literal(-5)))
        CFI ?RET_HIGH load(1, XDATA, add(CFA_XSP16, literal(-4)))
        CFI ?BRET_EXT load(1, XDATA, add(CFA_XSP16, literal(-3)))
        CFI DPL0 load(1, XDATA, add(CFA_XSP16, literal(-2)))
        CFI DPH0 load(1, XDATA, add(CFA_XSP16, literal(-1)))
        CFI CFA_SP SP+0
        CFI CFA_XSP16 add(XSP16, 16)
        CFI Block cfiCond27 Using cfiCommon0
        CFI (cfiCond27) NoFunction
        CFI (cfiCond27) Conditional ??CrossCallReturnLabel_1
        CFI (cfiCond27) R6 load(1, XDATA, add(CFA_XSP16, literal(-16)))
        CFI (cfiCond27) VB load(1, XDATA, add(CFA_XSP16, literal(-15)))
        CFI (cfiCond27) V0 load(1, XDATA, add(CFA_XSP16, literal(-14)))
        CFI (cfiCond27) V1 load(1, XDATA, add(CFA_XSP16, literal(-13)))
        CFI (cfiCond27) V2 load(1, XDATA, add(CFA_XSP16, literal(-12)))
        CFI (cfiCond27) V3 load(1, XDATA, add(CFA_XSP16, literal(-11)))
        CFI (cfiCond27) V4 load(1, XDATA, add(CFA_XSP16, literal(-10)))
        CFI (cfiCond27) V5 load(1, XDATA, add(CFA_XSP16, literal(-9)))
        CFI (cfiCond27) V6 load(1, XDATA, add(CFA_XSP16, literal(-8)))
        CFI (cfiCond27) V7 load(1, XDATA, add(CFA_XSP16, literal(-7)))
        CFI (cfiCond27) R7 load(1, XDATA, add(CFA_XSP16, literal(-6)))
        CFI (cfiCond27) ?RET_LOW load(1, XDATA, add(CFA_XSP16, literal(-5)))
        CFI (cfiCond27) ?RET_HIGH load(1, XDATA, add(CFA_XSP16, literal(-4)))
        CFI (cfiCond27) ?BRET_EXT load(1, XDATA, add(CFA_XSP16, literal(-3)))
        CFI (cfiCond27) DPL0 load(1, XDATA, add(CFA_XSP16, literal(-2)))
        CFI (cfiCond27) DPH0 load(1, XDATA, add(CFA_XSP16, literal(-1)))
        CFI (cfiCond27) CFA_SP SP+0
        CFI (cfiCond27) CFA_XSP16 add(XSP16, 16)
        CFI Block cfiCond28 Using cfiCommon0
        CFI (cfiCond28) NoFunction
        CFI (cfiCond28) Conditional ??CrossCallReturnLabel_2
        CFI (cfiCond28) R6 load(1, XDATA, add(CFA_XSP16, literal(-16)))
        CFI (cfiCond28) VB load(1, XDATA, add(CFA_XSP16, literal(-15)))
        CFI (cfiCond28) V0 load(1, XDATA, add(CFA_XSP16, literal(-14)))
        CFI (cfiCond28) V1 load(1, XDATA, add(CFA_XSP16, literal(-13)))
        CFI (cfiCond28) V2 load(1, XDATA, add(CFA_XSP16, literal(-12)))
        CFI (cfiCond28) V3 load(1, XDATA, add(CFA_XSP16, literal(-11)))
        CFI (cfiCond28) V4 load(1, XDATA, add(CFA_XSP16, literal(-10)))
        CFI (cfiCond28) V5 load(1, XDATA, add(CFA_XSP16, literal(-9)))
        CFI (cfiCond28) V6 load(1, XDATA, add(CFA_XSP16, literal(-8)))
        CFI (cfiCond28) V7 load(1, XDATA, add(CFA_XSP16, literal(-7)))
        CFI (cfiCond28) R7 load(1, XDATA, add(CFA_XSP16, literal(-6)))
        CFI (cfiCond28) ?RET_LOW load(1, XDATA, add(CFA_XSP16, literal(-5)))
        CFI (cfiCond28) ?RET_HIGH load(1, XDATA, add(CFA_XSP16, literal(-4)))
        CFI (cfiCond28) ?BRET_EXT load(1, XDATA, add(CFA_XSP16, literal(-3)))
        CFI (cfiCond28) DPL0 load(1, XDATA, add(CFA_XSP16, literal(-2)))
        CFI (cfiCond28) DPH0 load(1, XDATA, add(CFA_XSP16, literal(-1)))
        CFI (cfiCond28) CFA_SP SP+0
        CFI (cfiCond28) CFA_XSP16 add(XSP16, 16)
        CFI Block cfiCond29 Using cfiCommon0
        CFI (cfiCond29) NoFunction
        CFI (cfiCond29) Conditional ??CrossCallReturnLabel_3
        CFI (cfiCond29) R6 load(1, XDATA, add(CFA_XSP16, literal(-16)))
        CFI (cfiCond29) VB load(1, XDATA, add(CFA_XSP16, literal(-15)))
        CFI (cfiCond29) V0 load(1, XDATA, add(CFA_XSP16, literal(-14)))
        CFI (cfiCond29) V1 load(1, XDATA, add(CFA_XSP16, literal(-13)))
        CFI (cfiCond29) V2 load(1, XDATA, add(CFA_XSP16, literal(-12)))
        CFI (cfiCond29) V3 load(1, XDATA, add(CFA_XSP16, literal(-11)))
        CFI (cfiCond29) V4 load(1, XDATA, add(CFA_XSP16, literal(-10)))
        CFI (cfiCond29) V5 load(1, XDATA, add(CFA_XSP16, literal(-9)))
        CFI (cfiCond29) V6 load(1, XDATA, add(CFA_XSP16, literal(-8)))
        CFI (cfiCond29) V7 load(1, XDATA, add(CFA_XSP16, literal(-7)))
        CFI (cfiCond29) R7 load(1, XDATA, add(CFA_XSP16, literal(-6)))
        CFI (cfiCond29) ?RET_LOW load(1, XDATA, add(CFA_XSP16, literal(-5)))
        CFI (cfiCond29) ?RET_HIGH load(1, XDATA, add(CFA_XSP16, literal(-4)))
        CFI (cfiCond29) ?BRET_EXT load(1, XDATA, add(CFA_XSP16, literal(-3)))
        CFI (cfiCond29) DPL0 load(1, XDATA, add(CFA_XSP16, literal(-2)))
        CFI (cfiCond29) DPH0 load(1, XDATA, add(CFA_XSP16, literal(-1)))
        CFI (cfiCond29) CFA_SP SP+0
        CFI (cfiCond29) CFA_XSP16 add(XSP16, 16)
        CFI Block cfiCond30 Using cfiCommon0
        CFI (cfiCond30) NoFunction
        CFI (cfiCond30) Conditional ??CrossCallReturnLabel_4
        CFI (cfiCond30) R6 load(1, XDATA, add(CFA_XSP16, literal(-16)))
        CFI (cfiCond30) VB load(1, XDATA, add(CFA_XSP16, literal(-15)))
        CFI (cfiCond30) V0 load(1, XDATA, add(CFA_XSP16, literal(-14)))
        CFI (cfiCond30) V1 load(1, XDATA, add(CFA_XSP16, literal(-13)))
        CFI (cfiCond30) V2 load(1, XDATA, add(CFA_XSP16, literal(-12)))
        CFI (cfiCond30) V3 load(1, XDATA, add(CFA_XSP16, literal(-11)))
        CFI (cfiCond30) V4 load(1, XDATA, add(CFA_XSP16, literal(-10)))
        CFI (cfiCond30) V5 load(1, XDATA, add(CFA_XSP16, literal(-9)))
        CFI (cfiCond30) V6 load(1, XDATA, add(CFA_XSP16, literal(-8)))
        CFI (cfiCond30) V7 load(1, XDATA, add(CFA_XSP16, literal(-7)))
        CFI (cfiCond30) R7 load(1, XDATA, add(CFA_XSP16, literal(-6)))
        CFI (cfiCond30) ?RET_LOW load(1, XDATA, add(CFA_XSP16, literal(-5)))
        CFI (cfiCond30) ?RET_HIGH load(1, XDATA, add(CFA_XSP16, literal(-4)))
        CFI (cfiCond30) ?BRET_EXT load(1, XDATA, add(CFA_XSP16, literal(-3)))
        CFI (cfiCond30) DPL0 load(1, XDATA, add(CFA_XSP16, literal(-2)))
        CFI (cfiCond30) DPH0 load(1, XDATA, add(CFA_XSP16, literal(-1)))
        CFI (cfiCond30) CFA_SP SP+0
        CFI (cfiCond30) CFA_XSP16 add(XSP16, 16)
        CFI Block cfiCond31 Using cfiCommon0
        CFI (cfiCond31) NoFunction
        CFI (cfiCond31) Conditional ??CrossCallReturnLabel_5
        CFI (cfiCond31) R6 load(1, XDATA, add(CFA_XSP16, literal(-16)))
        CFI (cfiCond31) VB load(1, XDATA, add(CFA_XSP16, literal(-15)))
        CFI (cfiCond31) V0 load(1, XDATA, add(CFA_XSP16, literal(-14)))
        CFI (cfiCond31) V1 load(1, XDATA, add(CFA_XSP16, literal(-13)))
        CFI (cfiCond31) V2 load(1, XDATA, add(CFA_XSP16, literal(-12)))
        CFI (cfiCond31) V3 load(1, XDATA, add(CFA_XSP16, literal(-11)))
        CFI (cfiCond31) V4 load(1, XDATA, add(CFA_XSP16, literal(-10)))
        CFI (cfiCond31) V5 load(1, XDATA, add(CFA_XSP16, literal(-9)))
        CFI (cfiCond31) V6 load(1, XDATA, add(CFA_XSP16, literal(-8)))
        CFI (cfiCond31) V7 load(1, XDATA, add(CFA_XSP16, literal(-7)))
        CFI (cfiCond31) R7 load(1, XDATA, add(CFA_XSP16, literal(-6)))
        CFI (cfiCond31) ?RET_LOW load(1, XDATA, add(CFA_XSP16, literal(-5)))
        CFI (cfiCond31) ?RET_HIGH load(1, XDATA, add(CFA_XSP16, literal(-4)))
        CFI (cfiCond31) ?BRET_EXT load(1, XDATA, add(CFA_XSP16, literal(-3)))
        CFI (cfiCond31) DPL0 load(1, XDATA, add(CFA_XSP16, literal(-2)))
        CFI (cfiCond31) DPH0 load(1, XDATA, add(CFA_XSP16, literal(-1)))
        CFI (cfiCond31) CFA_SP SP+0
        CFI (cfiCond31) CFA_XSP16 add(XSP16, 16)
        CFI Block cfiCond32 Using cfiCommon0
        CFI (cfiCond32) NoFunction
        CFI (cfiCond32) Conditional ??CrossCallReturnLabel_6
        CFI (cfiCond32) R6 load(1, XDATA, add(CFA_XSP16, literal(-16)))
        CFI (cfiCond32) VB load(1, XDATA, add(CFA_XSP16, literal(-15)))
        CFI (cfiCond32) V0 load(1, XDATA, add(CFA_XSP16, literal(-14)))
        CFI (cfiCond32) V1 load(1, XDATA, add(CFA_XSP16, literal(-13)))
        CFI (cfiCond32) V2 load(1, XDATA, add(CFA_XSP16, literal(-12)))
        CFI (cfiCond32) V3 load(1, XDATA, add(CFA_XSP16, literal(-11)))
        CFI (cfiCond32) V4 load(1, XDATA, add(CFA_XSP16, literal(-10)))
        CFI (cfiCond32) V5 load(1, XDATA, add(CFA_XSP16, literal(-9)))
        CFI (cfiCond32) V6 load(1, XDATA, add(CFA_XSP16, literal(-8)))
        CFI (cfiCond32) V7 load(1, XDATA, add(CFA_XSP16, literal(-7)))
        CFI (cfiCond32) R7 load(1, XDATA, add(CFA_XSP16, literal(-6)))
        CFI (cfiCond32) ?RET_LOW load(1, XDATA, add(CFA_XSP16, literal(-5)))
        CFI (cfiCond32) ?RET_HIGH load(1, XDATA, add(CFA_XSP16, literal(-4)))
        CFI (cfiCond32) ?BRET_EXT load(1, XDATA, add(CFA_XSP16, literal(-3)))
        CFI (cfiCond32) DPL0 load(1, XDATA, add(CFA_XSP16, literal(-2)))
        CFI (cfiCond32) DPH0 load(1, XDATA, add(CFA_XSP16, literal(-1)))
        CFI (cfiCond32) CFA_SP SP+0
        CFI (cfiCond32) CFA_XSP16 add(XSP16, 16)
        CFI Block cfiCond33 Using cfiCommon0
        CFI (cfiCond33) NoFunction
        CFI (cfiCond33) Conditional ??CrossCallReturnLabel_7
        CFI (cfiCond33) R6 load(1, XDATA, add(CFA_XSP16, literal(-16)))
        CFI (cfiCond33) VB load(1, XDATA, add(CFA_XSP16, literal(-15)))
        CFI (cfiCond33) V0 load(1, XDATA, add(CFA_XSP16, literal(-14)))
        CFI (cfiCond33) V1 load(1, XDATA, add(CFA_XSP16, literal(-13)))
        CFI (cfiCond33) V2 load(1, XDATA, add(CFA_XSP16, literal(-12)))
        CFI (cfiCond33) V3 load(1, XDATA, add(CFA_XSP16, literal(-11)))
        CFI (cfiCond33) V4 load(1, XDATA, add(CFA_XSP16, literal(-10)))
        CFI (cfiCond33) V5 load(1, XDATA, add(CFA_XSP16, literal(-9)))
        CFI (cfiCond33) V6 load(1, XDATA, add(CFA_XSP16, literal(-8)))
        CFI (cfiCond33) V7 load(1, XDATA, add(CFA_XSP16, literal(-7)))
        CFI (cfiCond33) R7 load(1, XDATA, add(CFA_XSP16, literal(-6)))
        CFI (cfiCond33) ?RET_LOW load(1, XDATA, add(CFA_XSP16, literal(-5)))
        CFI (cfiCond33) ?RET_HIGH load(1, XDATA, add(CFA_XSP16, literal(-4)))
        CFI (cfiCond33) ?BRET_EXT load(1, XDATA, add(CFA_XSP16, literal(-3)))
        CFI (cfiCond33) DPL0 load(1, XDATA, add(CFA_XSP16, literal(-2)))
        CFI (cfiCond33) DPH0 load(1, XDATA, add(CFA_XSP16, literal(-1)))
        CFI (cfiCond33) CFA_SP SP+0
        CFI (cfiCond33) CFA_XSP16 add(XSP16, 16)
        CFI Block cfiCond34 Using cfiCommon0
        CFI (cfiCond34) NoFunction
        CFI (cfiCond34) Conditional ??CrossCallReturnLabel_8
        CFI (cfiCond34) R6 load(1, XDATA, add(CFA_XSP16, literal(-16)))
        CFI (cfiCond34) VB load(1, XDATA, add(CFA_XSP16, literal(-15)))
        CFI (cfiCond34) V0 load(1, XDATA, add(CFA_XSP16, literal(-14)))
        CFI (cfiCond34) V1 load(1, XDATA, add(CFA_XSP16, literal(-13)))
        CFI (cfiCond34) V2 load(1, XDATA, add(CFA_XSP16, literal(-12)))
        CFI (cfiCond34) V3 load(1, XDATA, add(CFA_XSP16, literal(-11)))
        CFI (cfiCond34) V4 load(1, XDATA, add(CFA_XSP16, literal(-10)))
        CFI (cfiCond34) V5 load(1, XDATA, add(CFA_XSP16, literal(-9)))
        CFI (cfiCond34) V6 load(1, XDATA, add(CFA_XSP16, literal(-8)))
        CFI (cfiCond34) V7 load(1, XDATA, add(CFA_XSP16, literal(-7)))
        CFI (cfiCond34) R7 load(1, XDATA, add(CFA_XSP16, literal(-6)))
        CFI (cfiCond34) ?RET_LOW load(1, XDATA, add(CFA_XSP16, literal(-5)))
        CFI (cfiCond34) ?RET_HIGH load(1, XDATA, add(CFA_XSP16, literal(-4)))
        CFI (cfiCond34) ?BRET_EXT load(1, XDATA, add(CFA_XSP16, literal(-3)))
        CFI (cfiCond34) DPL0 load(1, XDATA, add(CFA_XSP16, literal(-2)))
        CFI (cfiCond34) DPH0 load(1, XDATA, add(CFA_XSP16, literal(-1)))
        CFI (cfiCond34) CFA_SP SP+0
        CFI (cfiCond34) CFA_XSP16 add(XSP16, 16)
        CFI Block cfiCond35 Using cfiCommon0
        CFI (cfiCond35) NoFunction
        CFI (cfiCond35) Conditional ??CrossCallReturnLabel_9
        CFI (cfiCond35) R6 load(1, XDATA, add(CFA_XSP16, literal(-16)))
        CFI (cfiCond35) VB load(1, XDATA, add(CFA_XSP16, literal(-15)))
        CFI (cfiCond35) V0 load(1, XDATA, add(CFA_XSP16, literal(-14)))
        CFI (cfiCond35) V1 load(1, XDATA, add(CFA_XSP16, literal(-13)))
        CFI (cfiCond35) V2 load(1, XDATA, add(CFA_XSP16, literal(-12)))
        CFI (cfiCond35) V3 load(1, XDATA, add(CFA_XSP16, literal(-11)))
        CFI (cfiCond35) V4 load(1, XDATA, add(CFA_XSP16, literal(-10)))
        CFI (cfiCond35) V5 load(1, XDATA, add(CFA_XSP16, literal(-9)))
        CFI (cfiCond35) V6 load(1, XDATA, add(CFA_XSP16, literal(-8)))
        CFI (cfiCond35) V7 load(1, XDATA, add(CFA_XSP16, literal(-7)))
        CFI (cfiCond35) R7 load(1, XDATA, add(CFA_XSP16, literal(-6)))
        CFI (cfiCond35) ?RET_LOW load(1, XDATA, add(CFA_XSP16, literal(-5)))
        CFI (cfiCond35) ?RET_HIGH load(1, XDATA, add(CFA_XSP16, literal(-4)))
        CFI (cfiCond35) ?BRET_EXT load(1, XDATA, add(CFA_XSP16, literal(-3)))
        CFI (cfiCond35) DPL0 load(1, XDATA, add(CFA_XSP16, literal(-2)))
        CFI (cfiCond35) DPH0 load(1, XDATA, add(CFA_XSP16, literal(-1)))
        CFI (cfiCond35) CFA_SP SP+0
        CFI (cfiCond35) CFA_XSP16 add(XSP16, 16)
        CFI Block cfiCond36 Using cfiCommon0
        CFI (cfiCond36) NoFunction
        CFI (cfiCond36) Conditional ??CrossCallReturnLabel_10
        CFI (cfiCond36) R6 load(1, XDATA, add(CFA_XSP16, literal(-16)))
        CFI (cfiCond36) VB load(1, XDATA, add(CFA_XSP16, literal(-15)))
        CFI (cfiCond36) V0 load(1, XDATA, add(CFA_XSP16, literal(-14)))
        CFI (cfiCond36) V1 load(1, XDATA, add(CFA_XSP16, literal(-13)))
        CFI (cfiCond36) V2 load(1, XDATA, add(CFA_XSP16, literal(-12)))
        CFI (cfiCond36) V3 load(1, XDATA, add(CFA_XSP16, literal(-11)))
        CFI (cfiCond36) V4 load(1, XDATA, add(CFA_XSP16, literal(-10)))
        CFI (cfiCond36) V5 load(1, XDATA, add(CFA_XSP16, literal(-9)))
        CFI (cfiCond36) V6 load(1, XDATA, add(CFA_XSP16, literal(-8)))
        CFI (cfiCond36) V7 load(1, XDATA, add(CFA_XSP16, literal(-7)))
        CFI (cfiCond36) R7 load(1, XDATA, add(CFA_XSP16, literal(-6)))
        CFI (cfiCond36) ?RET_LOW load(1, XDATA, add(CFA_XSP16, literal(-5)))
        CFI (cfiCond36) ?RET_HIGH load(1, XDATA, add(CFA_XSP16, literal(-4)))
        CFI (cfiCond36) ?BRET_EXT load(1, XDATA, add(CFA_XSP16, literal(-3)))
        CFI (cfiCond36) DPL0 load(1, XDATA, add(CFA_XSP16, literal(-2)))
        CFI (cfiCond36) DPH0 load(1, XDATA, add(CFA_XSP16, literal(-1)))
        CFI (cfiCond36) CFA_SP SP+0
        CFI (cfiCond36) CFA_XSP16 add(XSP16, 16)
        CFI Block cfiCond37 Using cfiCommon0
        CFI (cfiCond37) NoFunction
        CFI (cfiCond37) Conditional ??CrossCallReturnLabel_11
        CFI (cfiCond37) R6 load(1, XDATA, add(CFA_XSP16, literal(-16)))
        CFI (cfiCond37) VB load(1, XDATA, add(CFA_XSP16, literal(-15)))
        CFI (cfiCond37) V0 load(1, XDATA, add(CFA_XSP16, literal(-14)))
        CFI (cfiCond37) V1 load(1, XDATA, add(CFA_XSP16, literal(-13)))
        CFI (cfiCond37) V2 load(1, XDATA, add(CFA_XSP16, literal(-12)))
        CFI (cfiCond37) V3 load(1, XDATA, add(CFA_XSP16, literal(-11)))
        CFI (cfiCond37) V4 load(1, XDATA, add(CFA_XSP16, literal(-10)))
        CFI (cfiCond37) V5 load(1, XDATA, add(CFA_XSP16, literal(-9)))
        CFI (cfiCond37) V6 load(1, XDATA, add(CFA_XSP16, literal(-8)))
        CFI (cfiCond37) V7 load(1, XDATA, add(CFA_XSP16, literal(-7)))
        CFI (cfiCond37) R7 load(1, XDATA, add(CFA_XSP16, literal(-6)))
        CFI (cfiCond37) ?RET_LOW load(1, XDATA, add(CFA_XSP16, literal(-5)))
        CFI (cfiCond37) ?RET_HIGH load(1, XDATA, add(CFA_XSP16, literal(-4)))
        CFI (cfiCond37) ?BRET_EXT load(1, XDATA, add(CFA_XSP16, literal(-3)))
        CFI (cfiCond37) DPL0 load(1, XDATA, add(CFA_XSP16, literal(-2)))
        CFI (cfiCond37) DPH0 load(1, XDATA, add(CFA_XSP16, literal(-1)))
        CFI (cfiCond37) CFA_SP SP+0
        CFI (cfiCond37) CFA_XSP16 add(XSP16, 16)
        CFI Block cfiCond38 Using cfiCommon0
        CFI (cfiCond38) NoFunction
        CFI (cfiCond38) Conditional ??CrossCallReturnLabel_12
        CFI (cfiCond38) R6 load(1, XDATA, add(CFA_XSP16, literal(-16)))
        CFI (cfiCond38) VB load(1, XDATA, add(CFA_XSP16, literal(-15)))
        CFI (cfiCond38) V0 load(1, XDATA, add(CFA_XSP16, literal(-14)))
        CFI (cfiCond38) V1 load(1, XDATA, add(CFA_XSP16, literal(-13)))
        CFI (cfiCond38) V2 load(1, XDATA, add(CFA_XSP16, literal(-12)))
        CFI (cfiCond38) V3 load(1, XDATA, add(CFA_XSP16, literal(-11)))
        CFI (cfiCond38) V4 load(1, XDATA, add(CFA_XSP16, literal(-10)))
        CFI (cfiCond38) V5 load(1, XDATA, add(CFA_XSP16, literal(-9)))
        CFI (cfiCond38) V6 load(1, XDATA, add(CFA_XSP16, literal(-8)))
        CFI (cfiCond38) V7 load(1, XDATA, add(CFA_XSP16, literal(-7)))
        CFI (cfiCond38) R7 load(1, XDATA, add(CFA_XSP16, literal(-6)))
        CFI (cfiCond38) ?RET_LOW load(1, XDATA, add(CFA_XSP16, literal(-5)))
        CFI (cfiCond38) ?RET_HIGH load(1, XDATA, add(CFA_XSP16, literal(-4)))
        CFI (cfiCond38) ?BRET_EXT load(1, XDATA, add(CFA_XSP16, literal(-3)))
        CFI (cfiCond38) DPL0 load(1, XDATA, add(CFA_XSP16, literal(-2)))
        CFI (cfiCond38) DPH0 load(1, XDATA, add(CFA_XSP16, literal(-1)))
        CFI (cfiCond38) CFA_SP SP+0
        CFI (cfiCond38) CFA_XSP16 add(XSP16, 16)
        CFI Block cfiCond39 Using cfiCommon0
        CFI (cfiCond39) NoFunction
        CFI (cfiCond39) Conditional ??CrossCallReturnLabel_13
        CFI (cfiCond39) R6 load(1, XDATA, add(CFA_XSP16, literal(-16)))
        CFI (cfiCond39) VB load(1, XDATA, add(CFA_XSP16, literal(-15)))
        CFI (cfiCond39) V0 load(1, XDATA, add(CFA_XSP16, literal(-14)))
        CFI (cfiCond39) V1 load(1, XDATA, add(CFA_XSP16, literal(-13)))
        CFI (cfiCond39) V2 load(1, XDATA, add(CFA_XSP16, literal(-12)))
        CFI (cfiCond39) V3 load(1, XDATA, add(CFA_XSP16, literal(-11)))
        CFI (cfiCond39) V4 load(1, XDATA, add(CFA_XSP16, literal(-10)))
        CFI (cfiCond39) V5 load(1, XDATA, add(CFA_XSP16, literal(-9)))
        CFI (cfiCond39) V6 load(1, XDATA, add(CFA_XSP16, literal(-8)))
        CFI (cfiCond39) V7 load(1, XDATA, add(CFA_XSP16, literal(-7)))
        CFI (cfiCond39) R7 load(1, XDATA, add(CFA_XSP16, literal(-6)))
        CFI (cfiCond39) ?RET_LOW load(1, XDATA, add(CFA_XSP16, literal(-5)))
        CFI (cfiCond39) ?RET_HIGH load(1, XDATA, add(CFA_XSP16, literal(-4)))
        CFI (cfiCond39) ?BRET_EXT load(1, XDATA, add(CFA_XSP16, literal(-3)))
        CFI (cfiCond39) DPL0 load(1, XDATA, add(CFA_XSP16, literal(-2)))
        CFI (cfiCond39) DPH0 load(1, XDATA, add(CFA_XSP16, literal(-1)))
        CFI (cfiCond39) CFA_SP SP+0
        CFI (cfiCond39) CFA_XSP16 add(XSP16, 16)
        CFI Block cfiPicker40 Using cfiCommon1
        CFI (cfiPicker40) NoFunction
        CFI (cfiPicker40) Picker
        LCALL   ?Subroutine3 & 0xFFFF
??CrossCallReturnLabel_17:
        ; Setup parameters for call to function oled_write
        ; Setup parameters for call to function oled_write
        ; Setup parameters for call to function oled_write
        ; Setup parameters for call to function oled_write
        ; Setup parameters for call to function oled_write
        ; Setup parameters for call to function oled_write
        ; Setup parameters for call to function oled_write
        ; Setup parameters for call to function oled_write
        ; Setup parameters for call to function oled_write
        ; Setup parameters for call to function oled_write
        ; Setup parameters for call to function oled_write
        ; Setup parameters for call to function oled_write
        ; Setup parameters for call to function oled_write
        ; Setup parameters for call to function oled_write
        MOV     A,R6
        RET
        CFI EndBlock cfiCond26
        CFI EndBlock cfiCond27
        CFI EndBlock cfiCond28
        CFI EndBlock cfiCond29
        CFI EndBlock cfiCond30
        CFI EndBlock cfiCond31
        CFI EndBlock cfiCond32
        CFI EndBlock cfiCond33
        CFI EndBlock cfiCond34
        CFI EndBlock cfiCond35
        CFI EndBlock cfiCond36
        CFI EndBlock cfiCond37
        CFI EndBlock cfiCond38
        CFI EndBlock cfiCond39
        CFI EndBlock cfiPicker40

        RSEG BANK_RELAYS:CODE:REORDER:NOROOT(0)
??oled_write?relay:
        LCALL   ?BDISPATCH
        DATA
        DC24    oled_write

        RSEG BANK_RELAYS:CODE:REORDER:NOROOT(0)
??oled_set_pos?relay:
        LCALL   ?BDISPATCH
        DATA
        DC24    oled_set_pos

        RSEG BANK_RELAYS:CODE:REORDER:NOROOT(0)
??oled_ssd1306_init?relay:
        LCALL   ?BDISPATCH
        DATA
        DC24    oled_ssd1306_init

        RSEG BANK_RELAYS:CODE:REORDER:NOROOT(0)
??oled_ssd1306_clear?relay:
        LCALL   ?BDISPATCH
        DATA
        DC24    oled_ssd1306_clear

        RSEG BANK_RELAYS:CODE:REORDER:NOROOT(0)
??oled_ssd1306_draw_text?relay:
        LCALL   ?BDISPATCH
        DATA
        DC24    oled_ssd1306_draw_text

        END
// 
//   396 bytes in segment BANKED_CODE
//    30 bytes in segment BANK_RELAYS
// 1 548 bytes in segment XDATA_ROM_C
// 
//   426 bytes of CODE  memory
// 1 548 bytes of CONST memory
//
//Errors: none
//Warnings: 1
