///////////////////////////////////////////////////////////////////////////////
//                                                                            /
// IAR C/C++ Compiler V8.10.3.10338/W32 for 8051        20/Apr/2026  15:53:30 /
// Copyright 2004-2011 IAR Systems AB.                                        /
//                                                                            /
//    Core               =  plain                                             /
//    Code model         =  banked                                            /
//    Data model         =  large                                             /
//    Calling convention =  xdata reentrant                                   /
//    Constant location  =  data                                              /
//    Dptr setup         =  1,16                                              /
//    Source file        =  D:\ZNJJ\ZStack-CC2530-2.5.1a\Projects\zstack\Samp /
//                          les\GwCoord\Source\zb_net.c                       /
//    Command line       =  -f D:\ZNJJ\ZStack-CC2530-2.5.1a\Projects\zstack\S /
//                          amples\GwCoord\CC2530DB\..\..\..\Tools\CC2530DB\f /
//                          8wCoord.cfg (-DCPU32MHZ -DROOT=__near_func        /
//                          -DMAC_CFG_APP_PENDING_QUEUE=TRUE                  /
//                          -DMAC_CFG_TX_DATA_MAX=5 -DMAC_CFG_TX_MAX=8        /
//                          -DMAC_CFG_RX_MAX=5 -DZDO_COORDINATOR -DRTR_NWK)   /
//                          -f D:\ZNJJ\ZStack-CC2530-2.5.1a\Projects\zstack\S /
//                          amples\GwCoord\CC2530DB\..\..\..\Tools\CC2530DB\f /
//                          8wConfig.cfg (-DZIGBEEPRO -DSECURE=0              /
//                          -DZG_SECURE_DYNAMIC=0 -DREFLECTOR                 /
//                          -DDEFAULT_CHANLIST=0x00000800                     /
//                          -DZDAPP_CONFIG_PAN_ID=0xFFFF                      /
//                          -DNWK_START_DELAY=100 -DEXTENDED_JOINING_RANDOM_M /
//                          ASK=0x007F -DBEACON_REQUEST_DELAY=100             /
//                          -DBEACON_REQ_DELAY_MASK=0x00FF                    /
//                          -DLINK_STATUS_JITTER_MASK=0x007F                  /
//                          -DROUTE_EXPIRY_TIME=30 -DAPSC_ACK_WAIT_DURATION_P /
//                          OLLED=3000 -DNWK_INDIRECT_MSG_TIMEOUT=7           /
//                          -DMAX_RREQ_ENTRIES=8 -DAPSC_MAX_FRAME_RETRIES=3   /
//                          -DNWK_MAX_DATA_RETRIES=2                          /
//                          -DMAX_POLL_FAILURE_RETRIES=2 -DMAX_BCAST=9        /
//                          -DAPS_MAX_GROUPS=16 -DMAX_RTG_ENTRIES=40          /
//                          -DNWK_MAX_BINDING_ENTRIES=4                       /
//                          -DMAX_BINDING_CLUSTER_IDS=4                       /
//                          "-DDEFAULT_KEY={0x01, 0x03, 0x05, 0x07, 0x09,     /
//                          0x0B, 0x0D, 0x0F, 0x00, 0x02, 0x04, 0x06, 0x08,   /
//                          0x0A, 0x0C, 0x0D}" -DMAC_MAX_FRAME_SIZE=116       /
//                          -DZDNWKMGR_MIN_TRANSMISSIONS=20 "-DCONST=const    /
//                          __code" -DGENERIC=__generic                       /
//                          -DRFD_RCVC_ALWAYS_ON=FALSE -DPOLL_RATE=1000       /
//                          -DQUEUED_POLL_RATE=100 -DRESPONSE_POLL_RATE=100)  /
//                          -DREJOIN_POLL_RATE=440 D:\ZNJJ\ZStack-CC2530-2.5. /
//                          1a\Projects\zstack\Samples\GwCoord\Source\zb_net. /
//                          c -D HAL_UART=TRUE -D HAL_LCD=FALSE -lC           /
//                          D:\ZNJJ\ZStack-CC2530-2.5.1a\Projects\zstack\Samp /
//                          les\GwCoord\CC2530DB\CoordinatorEB\List\ -lA      /
//                          D:\ZNJJ\ZStack-CC2530-2.5.1a\Projects\zstack\Samp /
//                          les\GwCoord\CC2530DB\CoordinatorEB\List\          /
//                          --diag_suppress Pe001,Pa010 -o                    /
//                          D:\ZNJJ\ZStack-CC2530-2.5.1a\Projects\zstack\Samp /
//                          les\GwCoord\CC2530DB\CoordinatorEB\Obj\ -e        /
//                          --no_code_motion --debug --core=plain             /
//                          --dptr=16,1 --data_model=large                    /
//                          --code_model=banked --calling_convention=xdata_re /
//                          entrant --place_constants=data --nr_virtual_regs  /
//                          16 -I D:\ZNJJ\ZStack-CC2530-2.5.1a\Projects\zstac /
//                          k\Samples\GwCoord\CC2530DB\ -I                    /
//                          D:\ZNJJ\ZStack-CC2530-2.5.1a\Projects\zstack\Samp /
//                          les\GwCoord\CC2530DB\..\Source\ -I                /
//                          D:\ZNJJ\ZStack-CC2530-2.5.1a\Projects\zstack\Samp /
//                          les\GwCoord\CC2530DB\..\..\..\ZMain\TI2530DB\ -I  /
//                          D:\ZNJJ\ZStack-CC2530-2.5.1a\Projects\zstack\Samp /
//                          les\GwCoord\CC2530DB\..\..\..\..\..\Components\ha /
//                          l\include\ -I D:\ZNJJ\ZStack-CC2530-2.5.1a\Projec /
//                          ts\zstack\Samples\GwCoord\CC2530DB\..\..\..\..\.. /
//                          \Components\hal\target\CC2530EB\ -I               /
//                          D:\ZNJJ\ZStack-CC2530-2.5.1a\Projects\zstack\Samp /
//                          les\GwCoord\CC2530DB\..\..\..\..\..\Components\ma /
//                          c\include\ -I D:\ZNJJ\ZStack-CC2530-2.5.1a\Projec /
//                          ts\zstack\Samples\GwCoord\CC2530DB\..\..\..\..\.. /
//                          \Components\mac\high_level\ -I                    /
//                          D:\ZNJJ\ZStack-CC2530-2.5.1a\Projects\zstack\Samp /
//                          les\GwCoord\CC2530DB\..\..\..\..\..\Components\ma /
//                          c\low_level\srf04\ -I D:\ZNJJ\ZStack-CC2530-2.5.1 /
//                          a\Projects\zstack\Samples\GwCoord\CC2530DB\..\..\ /
//                          ..\..\..\Components\mac\low_level\srf04\single_ch /
//                          ip\ -I D:\ZNJJ\ZStack-CC2530-2.5.1a\Projects\zsta /
//                          ck\Samples\GwCoord\CC2530DB\..\..\..\..\..\Compon /
//                          ents\mt\ -I D:\ZNJJ\ZStack-CC2530-2.5.1a\Projects /
//                          \zstack\Samples\GwCoord\CC2530DB\..\..\..\..\..\C /
//                          omponents\osal\include\ -I                        /
//                          D:\ZNJJ\ZStack-CC2530-2.5.1a\Projects\zstack\Samp /
//                          les\GwCoord\CC2530DB\..\..\..\..\..\Components\se /
//                          rvices\saddr\ -I D:\ZNJJ\ZStack-CC2530-2.5.1a\Pro /
//                          jects\zstack\Samples\GwCoord\CC2530DB\..\..\..\.. /
//                          \..\Components\services\sdata\ -I                 /
//                          D:\ZNJJ\ZStack-CC2530-2.5.1a\Projects\zstack\Samp /
//                          les\GwCoord\CC2530DB\..\..\..\..\..\Components\st /
//                          ack\af\ -I D:\ZNJJ\ZStack-CC2530-2.5.1a\Projects\ /
//                          zstack\Samples\GwCoord\CC2530DB\..\..\..\..\..\Co /
//                          mponents\stack\nwk\ -I D:\ZNJJ\ZStack-CC2530-2.5. /
//                          1a\Projects\zstack\Samples\GwCoord\CC2530DB\..\.. /
//                          \..\..\..\Components\stack\sapi\ -I               /
//                          D:\ZNJJ\ZStack-CC2530-2.5.1a\Projects\zstack\Samp /
//                          les\GwCoord\CC2530DB\..\..\..\..\..\Components\st /
//                          ack\sec\ -I D:\ZNJJ\ZStack-CC2530-2.5.1a\Projects /
//                          \zstack\Samples\GwCoord\CC2530DB\..\..\..\..\..\C /
//                          omponents\stack\sys\ -I                           /
//                          D:\ZNJJ\ZStack-CC2530-2.5.1a\Projects\zstack\Samp /
//                          les\GwCoord\CC2530DB\..\..\..\..\..\Components\st /
//                          ack\zdo\ -I D:\ZNJJ\ZStack-CC2530-2.5.1a\Projects /
//                          \zstack\Samples\GwCoord\CC2530DB\..\..\..\..\..\C /
//                          omponents\zmac\ -I D:\ZNJJ\ZStack-CC2530-2.5.1a\P /
//                          rojects\zstack\Samples\GwCoord\CC2530DB\..\..\..\ /
//                          ..\..\Components\zmac\f8w\ -Ohz                   /
//                          --require_prototypes                              /
//    List file          =  D:\ZNJJ\ZStack-CC2530-2.5.1a\Projects\zstack\Samp /
//                          les\GwCoord\CC2530DB\CoordinatorEB\List\zb_net.s5 /
//                          1                                                 /
//                                                                            /
//                                                                            /
///////////////////////////////////////////////////////////////////////////////

        NAME zb_net

        RTMODEL "__SystemLibrary", "CLib"
        RTMODEL "__calling_convention", "xdata_reentrant"
        RTMODEL "__code_model", "banked"
        RTMODEL "__core", "plain"
        RTMODEL "__data_model", "large"
        RTMODEL "__dptr_size", "16"
        RTMODEL "__extended_stack", "disabled"
        RTMODEL "__location_for_constants", "data"
        RTMODEL "__number_of_dptrs", "1"
        RTMODEL "__rt_version", "1"

        RSEG DOVERLAY:DATA:NOROOT(0)
        RSEG IOVERLAY:IDATA:NOROOT(0)
        RSEG ISTACK:IDATA:NOROOT(0)
        RSEG PSTACK:XDATA:NOROOT(0)
        RSEG XSTACK:XDATA:NOROOT(0)

        EXTERN ?ALLOC_XSTACK8
        EXTERN ?BANKED_ENTER_XDATA
        EXTERN ?BANKED_LEAVE_XDATA
        EXTERN ?BDISPATCH
        EXTERN ?BRET
        EXTERN ?DEALLOC_XSTACK8
        EXTERN ?L_MOV_TO_X
        EXTERN ?L_MOV_X
        EXTERN ?L_SUB_X
        EXTERN ?PUSH_XSTACK_I_ONE
        EXTERN ?PUSH_XSTACK_I_THREE
        EXTERN ?PUSH_XSTACK_I_TWO
        EXTERN ?UL_DIV_MOD
        EXTERN ?UL_GE_X
        EXTERN ?UL_GT
        EXTERN ?UL_GT_X
        EXTERN ?V0
        EXTERN ?XSP
        EXTERN ?XSTACK_DISP0_8
        EXTERN ?XSTORE_R2345
        EXTERN __INIT_XDATA_I
        EXTERN __INIT_XDATA_Z

        FUNCTION ??alloc_slot?relay,0203H
        FUNCTION ??find_slot?relay,0203H
        PUBLIC ??zb_net_allow_join?relay
        FUNCTION ??zb_net_allow_join?relay,0203H
        PUBLIC ??zb_net_at?relay
        FUNCTION ??zb_net_at?relay,0203H
        PUBLIC ??zb_net_count?relay
        FUNCTION ??zb_net_count?relay,0203H
        PUBLIC ??zb_net_find?relay
        FUNCTION ??zb_net_find?relay,0203H
        PUBLIC ??zb_net_find_by_role?relay
        FUNCTION ??zb_net_find_by_role?relay,0203H
        PUBLIC ??zb_net_get_status?relay
        FUNCTION ??zb_net_get_status?relay,0203H
        PUBLIC ??zb_net_init?relay
        FUNCTION ??zb_net_init?relay,0203H
        PUBLIC ??zb_net_mark_offline?relay
        FUNCTION ??zb_net_mark_offline?relay,0203H
        PUBLIC ??zb_net_on_state?relay
        FUNCTION ??zb_net_on_state?relay,0203H
        PUBLIC ??zb_net_online_count?relay
        FUNCTION ??zb_net_online_count?relay,0203H
        PUBLIC ??zb_net_send_onoff?relay
        FUNCTION ??zb_net_send_onoff?relay,0203H
        PUBLIC ??zb_net_tick?relay
        FUNCTION ??zb_net_tick?relay,0203H
        PUBLIC ??zb_net_touch?relay
        FUNCTION ??zb_net_touch?relay,0203H
        PUBWEAK __Constant_3e8
        PUBWEAK __Constant_bf21
        FUNCTION alloc_slot,021203H
        ARGFRAME XSTACK, 16, STACK
        ARGFRAME IOVERLAY, 0, STATIC
        ARGFRAME DOVERLAY, 0, STATIC
        LOCFRAME XSTACK, 16, STACK
        FUNCTION find_slot,0203H
        ARGFRAME XSTACK, 16, STACK
        ARGFRAME IOVERLAY, 0, STATIC
        ARGFRAME DOVERLAY, 0, STATIC
        LOCFRAME ISTACK, 2, STACK
        PUBLIC zb_net_allow_join
        FUNCTION zb_net_allow_join,021203H
        ARGFRAME XSTACK, 0, STACK
        LOCFRAME XSTACK, 9, STACK
        PUBLIC zb_net_at
        FUNCTION zb_net_at,0203H
        ARGFRAME XSTACK, 0, STACK
        LOCFRAME ISTACK, 2, STACK
        PUBLIC zb_net_count
        FUNCTION zb_net_count,0203H
        ARGFRAME XSTACK, 0, STACK
        LOCFRAME ISTACK, 2, STACK
        PUBLIC zb_net_find
        FUNCTION zb_net_find,021203H
        ARGFRAME XSTACK, 0, STACK
        LOCFRAME ISTACK, 2, STACK
        PUBLIC zb_net_find_by_role
        FUNCTION zb_net_find_by_role,0203H
        ARGFRAME XSTACK, 0, STACK
        LOCFRAME ISTACK, 2, STACK
        PUBLIC zb_net_get_status
        FUNCTION zb_net_get_status,021203H
        ARGFRAME XSTACK, 4, STACK
        LOCFRAME ISTACK, 1, STACK
        LOCFRAME XSTACK, 10, STACK
        PUBLIC zb_net_init
        FUNCTION zb_net_init,021203H
        ARGFRAME XSTACK, 0, STACK
        LOCFRAME ISTACK, 2, STACK
        LOCFRAME XSTACK, 3, STACK
        PUBLIC zb_net_mark_offline
        FUNCTION zb_net_mark_offline,021203H
        ARGFRAME XSTACK, 20, STACK
        ARGFRAME IOVERLAY, 0, STATIC
        ARGFRAME DOVERLAY, 0, STATIC
        LOCFRAME XSTACK, 10, STACK
        PUBLIC zb_net_on_state
        FUNCTION zb_net_on_state,021203H
        ARGFRAME XSTACK, 0, STACK
        LOCFRAME XSTACK, 11, STACK
        PUBLIC zb_net_online_count
        FUNCTION zb_net_online_count,0203H
        ARGFRAME XSTACK, 20, STACK
        ARGFRAME IOVERLAY, 0, STATIC
        ARGFRAME DOVERLAY, 0, STATIC
        LOCFRAME ISTACK, 2, STACK
        PUBLIC zb_net_send_onoff
        FUNCTION zb_net_send_onoff,021203H
        ARGFRAME XSTACK, 0, STACK
        LOCFRAME ISTACK, 1, STACK
        LOCFRAME XSTACK, 36, STACK
        PUBLIC zb_net_tick
        FUNCTION zb_net_tick,021203H
        ARGFRAME XSTACK, 0, STACK
        LOCFRAME XSTACK, 20, STACK
        PUBLIC zb_net_touch
        FUNCTION zb_net_touch,021203H
        ARGFRAME XSTACK, 1, STACK
        LOCFRAME ISTACK, 1, STACK
        LOCFRAME XSTACK, 19, STACK
        
        CFI Names cfiNames0
        CFI StackFrame CFA_SP SP IDATA
        CFI StackFrame CFA_PSP16 PSP16 XDATA
        CFI StackFrame CFA_XSP16 XSP16 XDATA
        CFI StaticOverlayFrame CFA_IOVERLAY IOVERLAY
        CFI StaticOverlayFrame CFA_DOVERLAY DOVERLAY
        CFI Resource `PSW.CY`:1, `B.BR0`:1, `B.BR1`:1, `B.BR2`:1, `B.BR3`:1
        CFI Resource `B.BR4`:1, `B.BR5`:1, `B.BR6`:1, `B.BR7`:1, `VB.BR8`:1
        CFI Resource `VB.BR9`:1, `VB.BR10`:1, `VB.BR11`:1, `VB.BR12`:1
        CFI Resource `VB.BR13`:1, `VB.BR14`:1, `VB.BR15`:1, VB:8, B:8, A:8
        CFI Resource PSW:8, DPL0:8, DPH0:8, R0:8, R1:8, R2:8, R3:8, R4:8, R5:8
        CFI Resource R6:8, R7:8, V0:8, V1:8, V2:8, V3:8, V4:8, V5:8, V6:8, V7:8
        CFI Resource V8:8, V9:8, V10:8, V11:8, V12:8, V13:8, V14:8, V15:8, SP:8
        CFI Resource PSPH:8, PSPL:8, PSP16:16, XSPH:8, XSPL:8, XSP16:16
        CFI VirtualResource ?RET:24
        CFI Resource ?BRET_EXT:8
        CFI VirtualResource ?RET_HIGH:8, ?RET_LOW:8
        CFI ResourceParts PSP16 PSPH, PSPL
        CFI ResourceParts XSP16 XSPH, XSPL
        CFI ResourceParts ?RET ?BRET_EXT, ?RET_HIGH, ?RET_LOW
        CFI EndNames cfiNames0
        
        CFI Common cfiCommon0 Using cfiNames0
        CFI CodeAlign 1
        CFI DataAlign -1
        CFI ReturnAddress ?RET CODE
        CFI CFA_DOVERLAY Used
        CFI CFA_IOVERLAY Used
        CFI CFA_SP SP+-3
        CFI CFA_PSP16 PSP16+0
        CFI CFA_XSP16 XSP16+0
        CFI `PSW.CY` SameValue
        CFI `B.BR0` SameValue
        CFI `B.BR1` SameValue
        CFI `B.BR2` SameValue
        CFI `B.BR3` SameValue
        CFI `B.BR4` SameValue
        CFI `B.BR5` SameValue
        CFI `B.BR6` SameValue
        CFI `B.BR7` SameValue
        CFI `VB.BR8` SameValue
        CFI `VB.BR9` SameValue
        CFI `VB.BR10` SameValue
        CFI `VB.BR11` SameValue
        CFI `VB.BR12` SameValue
        CFI `VB.BR13` SameValue
        CFI `VB.BR14` SameValue
        CFI `VB.BR15` SameValue
        CFI VB SameValue
        CFI B Undefined
        CFI A Undefined
        CFI PSW SameValue
        CFI DPL0 SameValue
        CFI DPH0 SameValue
        CFI R0 Undefined
        CFI R1 Undefined
        CFI R2 Undefined
        CFI R3 Undefined
        CFI R4 Undefined
        CFI R5 Undefined
        CFI R6 SameValue
        CFI R7 SameValue
        CFI V0 SameValue
        CFI V1 SameValue
        CFI V2 SameValue
        CFI V3 SameValue
        CFI V4 SameValue
        CFI V5 SameValue
        CFI V6 SameValue
        CFI V7 SameValue
        CFI V8 SameValue
        CFI V9 SameValue
        CFI V10 SameValue
        CFI V11 SameValue
        CFI V12 SameValue
        CFI V13 SameValue
        CFI V14 SameValue
        CFI V15 SameValue
        CFI PSPH Undefined
        CFI PSPL Undefined
        CFI XSPH Undefined
        CFI XSPL Undefined
        CFI ?RET Concat
        CFI ?BRET_EXT Frame(CFA_SP, 3)
        CFI ?RET_HIGH Frame(CFA_SP, 2)
        CFI ?RET_LOW Frame(CFA_SP, 1)
        CFI EndCommon cfiCommon0
        
        
        CFI Common cfiCommon1 Using cfiNames0
        CFI CodeAlign 1
        CFI DataAlign -1
        CFI ReturnAddress ?RET CODE
        CFI CFA_DOVERLAY Used
        CFI CFA_IOVERLAY Used
        CFI CFA_SP SP+-2
        CFI CFA_PSP16 PSP16+0
        CFI CFA_XSP16 XSP16+0
        CFI `PSW.CY` SameValue
        CFI `B.BR0` SameValue
        CFI `B.BR1` SameValue
        CFI `B.BR2` SameValue
        CFI `B.BR3` SameValue
        CFI `B.BR4` SameValue
        CFI `B.BR5` SameValue
        CFI `B.BR6` SameValue
        CFI `B.BR7` SameValue
        CFI `VB.BR8` SameValue
        CFI `VB.BR9` SameValue
        CFI `VB.BR10` SameValue
        CFI `VB.BR11` SameValue
        CFI `VB.BR12` SameValue
        CFI `VB.BR13` SameValue
        CFI `VB.BR14` SameValue
        CFI `VB.BR15` SameValue
        CFI VB SameValue
        CFI B SameValue
        CFI A SameValue
        CFI PSW SameValue
        CFI DPL0 SameValue
        CFI DPH0 SameValue
        CFI R0 SameValue
        CFI R1 SameValue
        CFI R2 SameValue
        CFI R3 SameValue
        CFI R4 SameValue
        CFI R5 SameValue
        CFI R6 SameValue
        CFI R7 SameValue
        CFI V0 SameValue
        CFI V1 SameValue
        CFI V2 SameValue
        CFI V3 SameValue
        CFI V4 SameValue
        CFI V5 SameValue
        CFI V6 SameValue
        CFI V7 SameValue
        CFI V8 SameValue
        CFI V9 SameValue
        CFI V10 SameValue
        CFI V11 SameValue
        CFI V12 SameValue
        CFI V13 SameValue
        CFI V14 SameValue
        CFI V15 SameValue
        CFI PSPH Undefined
        CFI PSPL Undefined
        CFI XSPH Undefined
        CFI XSPL Undefined
        CFI ?RET Concat
        CFI ?BRET_EXT SameValue
        CFI ?RET_HIGH Frame(CFA_SP, 2)
        CFI ?RET_LOW Frame(CFA_SP, 1)
        CFI EndCommon cfiCommon1
        
osal_memset         SYMBOL "osal_memset"
nv_load_u16         SYMBOL "nv_load_u16"
nv_load_u8          SYMBOL "nv_load_u8"
osal_GetSystemClock SYMBOL "osal_GetSystemClock"
NLME_PermitJoiningRequest SYMBOL "NLME_PermitJoiningRequest"
GwCoord_SendNetStatus SYMBOL "GwCoord_SendNetStatus"
osal_memcpy         SYMBOL "osal_memcpy"
GwCoord_SendNodeInfo SYMBOL "GwCoord_SendNodeInfo"
afFindEndPointDesc  SYMBOL "afFindEndPointDesc"
AF_DataRequest      SYMBOL "AF_DataRequest"
nv_save_u16         SYMBOL "nv_save_u16"
nv_save_u8          SYMBOL "nv_save_u8"
??AF_DataRequest?relay SYMBOL "?relay", AF_DataRequest
??GwCoord_SendNetStatus?relay SYMBOL "?relay", GwCoord_SendNetStatus
??GwCoord_SendNodeInfo?relay SYMBOL "?relay", GwCoord_SendNodeInfo
??NLME_PermitJoiningRequest?relay SYMBOL "?relay", NLME_PermitJoiningRequest
??afFindEndPointDesc?relay SYMBOL "?relay", afFindEndPointDesc
??nv_load_u16?relay SYMBOL "?relay", nv_load_u16
??nv_load_u8?relay  SYMBOL "?relay", nv_load_u8
??nv_save_u16?relay SYMBOL "?relay", nv_save_u16
??nv_save_u8?relay  SYMBOL "?relay", nv_save_u8
??osal_GetSystemClock?relay SYMBOL "?relay", osal_GetSystemClock
??osal_memcpy?relay SYMBOL "?relay", osal_memcpy
??osal_memset?relay SYMBOL "?relay", osal_memset
zb_net_allow_join   SYMBOL "zb_net_allow_join"
??zb_net_allow_join?relay SYMBOL "?relay", zb_net_allow_join
zb_net_at           SYMBOL "zb_net_at"
??zb_net_at?relay   SYMBOL "?relay", zb_net_at
zb_net_count        SYMBOL "zb_net_count"
??zb_net_count?relay SYMBOL "?relay", zb_net_count
zb_net_find         SYMBOL "zb_net_find"
??zb_net_find?relay SYMBOL "?relay", zb_net_find
zb_net_find_by_role SYMBOL "zb_net_find_by_role"
??zb_net_find_by_role?relay SYMBOL "?relay", zb_net_find_by_role
zb_net_get_status   SYMBOL "zb_net_get_status"
??zb_net_get_status?relay SYMBOL "?relay", zb_net_get_status
zb_net_init         SYMBOL "zb_net_init"
??zb_net_init?relay SYMBOL "?relay", zb_net_init
zb_net_mark_offline SYMBOL "zb_net_mark_offline"
??zb_net_mark_offline?relay SYMBOL "?relay", zb_net_mark_offline
zb_net_on_state     SYMBOL "zb_net_on_state"
??zb_net_on_state?relay SYMBOL "?relay", zb_net_on_state
zb_net_online_count SYMBOL "zb_net_online_count"
??zb_net_online_count?relay SYMBOL "?relay", zb_net_online_count
zb_net_send_onoff   SYMBOL "zb_net_send_onoff"
??zb_net_send_onoff?relay SYMBOL "?relay", zb_net_send_onoff
zb_net_tick         SYMBOL "zb_net_tick"
??zb_net_tick?relay SYMBOL "?relay", zb_net_tick
zb_net_touch        SYMBOL "zb_net_touch"
??zb_net_touch?relay SYMBOL "?relay", zb_net_touch

        EXTERN osal_memset
        FUNCTION osal_memset,0202H
        ARGFRAME ISTACK, 2, STACK
        ARGFRAME PSTACK, 0, STACK
        ARGFRAME XSTACK, 27, STACK
        ARGFRAME IOVERLAY, 0, STATIC
        ARGFRAME DOVERLAY, 0, STATIC
        EXTERN nv_load_u16
        FUNCTION nv_load_u16,0202H
        ARGFRAME ISTACK, 2, STACK
        ARGFRAME PSTACK, 0, STACK
        ARGFRAME XSTACK, 3, STACK
        ARGFRAME IOVERLAY, 0, STATIC
        ARGFRAME DOVERLAY, 0, STATIC
        EXTERN nv_load_u8
        FUNCTION nv_load_u8,0202H
        ARGFRAME ISTACK, 2, STACK
        ARGFRAME PSTACK, 0, STACK
        ARGFRAME XSTACK, 3, STACK
        ARGFRAME IOVERLAY, 0, STATIC
        ARGFRAME DOVERLAY, 0, STATIC
        EXTERN osal_GetSystemClock
        FUNCTION osal_GetSystemClock,0202H
        ARGFRAME ISTACK, 2, STACK
        ARGFRAME PSTACK, 0, STACK
        ARGFRAME XSTACK, 16, STACK
        ARGFRAME IOVERLAY, 0, STATIC
        ARGFRAME DOVERLAY, 0, STATIC
        EXTERN NLME_PermitJoiningRequest
        FUNCTION NLME_PermitJoiningRequest,0202H
        ARGFRAME ISTACK, 0, STACK
        ARGFRAME PSTACK, 0, STACK
        ARGFRAME XSTACK, 20, STACK
        ARGFRAME IOVERLAY, 0, STATIC
        ARGFRAME DOVERLAY, 0, STATIC
        EXTERN GwCoord_SendNetStatus
        FUNCTION GwCoord_SendNetStatus,0202H
        ARGFRAME ISTACK, 0, STACK
        ARGFRAME PSTACK, 0, STACK
        ARGFRAME XSTACK, 20, STACK
        ARGFRAME IOVERLAY, 0, STATIC
        ARGFRAME DOVERLAY, 0, STATIC
        EXTERN osal_memcpy
        FUNCTION osal_memcpy,0202H
        ARGFRAME ISTACK, 0, STACK
        ARGFRAME PSTACK, 0, STACK
        ARGFRAME XSTACK, 19, STACK
        ARGFRAME IOVERLAY, 0, STATIC
        ARGFRAME DOVERLAY, 0, STATIC
        EXTERN GwCoord_SendNodeInfo
        FUNCTION GwCoord_SendNodeInfo,0202H
        ARGFRAME ISTACK, 0, STACK
        ARGFRAME PSTACK, 0, STACK
        ARGFRAME XSTACK, 10, STACK
        ARGFRAME IOVERLAY, 0, STATIC
        ARGFRAME DOVERLAY, 0, STATIC
        EXTERN afFindEndPointDesc
        FUNCTION afFindEndPointDesc,0202H
        ARGFRAME ISTACK, 0, STACK
        ARGFRAME PSTACK, 0, STACK
        ARGFRAME XSTACK, 27, STACK
        ARGFRAME IOVERLAY, 0, STATIC
        ARGFRAME DOVERLAY, 0, STATIC
        EXTERN AF_DataRequest
        FUNCTION AF_DataRequest,0202H
        ARGFRAME ISTACK, 0, STACK
        ARGFRAME PSTACK, 0, STACK
        ARGFRAME XSTACK, 36, STACK
        ARGFRAME IOVERLAY, 0, STATIC
        ARGFRAME DOVERLAY, 0, STATIC
        EXTERN nv_save_u16
        FUNCTION nv_save_u16,0202H
        ARGFRAME ISTACK, 0, STACK
        ARGFRAME PSTACK, 0, STACK
        ARGFRAME XSTACK, 11, STACK
        ARGFRAME IOVERLAY, 0, STATIC
        ARGFRAME DOVERLAY, 0, STATIC
        EXTERN nv_save_u8
        FUNCTION nv_save_u8,0202H
        ARGFRAME ISTACK, 0, STACK
        ARGFRAME PSTACK, 0, STACK
        ARGFRAME XSTACK, 11, STACK
        ARGFRAME IOVERLAY, 0, STATIC
        ARGFRAME DOVERLAY, 0, STATIC
        EXTERN ??AF_DataRequest?relay
        FUNCTION ??AF_DataRequest?relay,00H
        EXTERN ??GwCoord_SendNetStatus?relay
        FUNCTION ??GwCoord_SendNetStatus?relay,00H
        EXTERN ??GwCoord_SendNodeInfo?relay
        FUNCTION ??GwCoord_SendNodeInfo?relay,00H
        EXTERN ??NLME_PermitJoiningRequest?relay
        FUNCTION ??NLME_PermitJoiningRequest?relay,00H
        EXTERN ??afFindEndPointDesc?relay
        FUNCTION ??afFindEndPointDesc?relay,00H
        EXTERN ??nv_load_u16?relay
        FUNCTION ??nv_load_u16?relay,00H
        EXTERN ??nv_load_u8?relay
        FUNCTION ??nv_load_u8?relay,00H
        EXTERN ??nv_save_u16?relay
        FUNCTION ??nv_save_u16?relay,00H
        EXTERN ??nv_save_u8?relay
        FUNCTION ??nv_save_u8?relay,00H
        EXTERN ??osal_GetSystemClock?relay
        FUNCTION ??osal_GetSystemClock?relay,00H
        EXTERN ??osal_memcpy?relay
        FUNCTION ??osal_memcpy?relay,00H
        EXTERN ??osal_memset?relay
        FUNCTION ??osal_memset?relay,00H
        EXTERN ZDO_Config_Node_Descriptor

// D:\ZNJJ\ZStack-CC2530-2.5.1a\Projects\zstack\Samples\GwCoord\Source\zb_net.c
//    1 /*
//    2  * Coordinator-side Zigbee node table and network state.
//    3  */
//    4 
//    5 #include "zb_net.h"
//    6 #include "gw_coord.h"
//    7 #include "nv_store.h"
//    8 
//    9 #include "OSAL.h"
//   10 #include "OSAL_Timers.h"
//   11 #include "ZDApp.h"
//   12 #include "ZDObject.h"
//   13 #include "ZDProfile.h"
//   14 #include "AF.h"
//   15 #include "nwk_util.h"
//   16 #include "ZGlobals.h"
//   17 

        RSEG XDATA_Z:XDATA:NOROOT(0)
        DATA8
//   18 static zb_node_t XDATA_QUAL s_nodes[ZB_NODE_MAX];
s_nodes:
        DS 216
        REQUIRE __INIT_XDATA_Z

        RSEG XDATA_Z:XDATA:NOROOT(0)
        DATA8
//   19 static uint8 s_node_cnt = 0;
s_node_cnt:
        DS 1
        REQUIRE __INIT_XDATA_Z
//   20 

        RSEG XDATA_Z:XDATA:NOROOT(0)
        DATA8
//   21 static uint8  s_dev_state = 0;
s_dev_state:
        DS 1
        REQUIRE __INIT_XDATA_Z

        RSEG XDATA_I:XDATA:NOROOT(0)
//   22 static uint16 s_panid = 0xFFFF;
s_panid:
        DATA16
        DS 2
        REQUIRE `?<Initializer for s_panid>`
        REQUIRE __INIT_XDATA_I

        RSEG XDATA_I:XDATA:NOROOT(0)
//   23 static uint8  s_channel = ZB_CHANNEL_DEFAULT;
s_channel:
        DATA8
        DS 1
        REQUIRE `?<Initializer for s_channel>`
        REQUIRE __INIT_XDATA_I

        RSEG XDATA_I:XDATA:NOROOT(0)
        DATA32
__Constant_3e8:
        DS 4
        REQUIRE `?<Initializer for __Constant_3e8>`
        REQUIRE __INIT_XDATA_I

        RSEG XDATA_I:XDATA:NOROOT(0)
        DATA32
__Constant_bf21:
        DS 4
        REQUIRE `?<Initializer for __Constant_bf21>`
        REQUIRE __INIT_XDATA_I

        RSEG XDATA_Z:XDATA:NOROOT(0)
        DATA8
//   24 static uint8  s_allow_join_rem_s = 0;
s_allow_join_rem_s:
        DS 1
        REQUIRE __INIT_XDATA_Z

        RSEG XDATA_Z:XDATA:NOROOT(0)
        DATA32
//   25 static uint32 s_last_tick_ms = 0;
s_last_tick_ms:
        DS 4
        REQUIRE __INIT_XDATA_Z
//   26 /* 无子节点时每 s_reopen_window_s 秒自动再开一次 60s 入网窗。
//   27  * 避免 STM32 那次 ZB_ALLOW_JOIN 时序不对（例如 coord 还没 form PAN 就收到命令）导致死窗。 */

        RSEG XDATA_Z:XDATA:NOROOT(0)
        DATA8
//   28 static uint8  s_reopen_window_s = 0;
s_reopen_window_s:
        DS 1
        REQUIRE __INIT_XDATA_Z
//   29 

        RSEG BANKED_CODE:CODE:NOROOT(0)
//   30 static zb_node_t *find_slot(uint16 nodeid)
find_slot:
        CFI Block cfiBlock0 Using cfiCommon0
        CFI Function find_slot
        CODE
//   31 {
        PUSH    DPL
        CFI DPL0 Frame(CFA_SP, 4)
        CFI CFA_SP SP+-4
        PUSH    DPH
        CFI DPH0 Frame(CFA_SP, 5)
        CFI CFA_SP SP+-5
        ; Saved register size: 2
        ; Auto size: 0
//   32     uint8 i;
//   33 
//   34     for (i = 0; i < s_node_cnt; ++i) {
        MOV     R5,#0x0
        SJMP    ??find_slot_0
??find_slot_1:
        INC     R5
??find_slot_0:
        MOV     DPTR,#s_node_cnt
        MOVX    A,@DPTR
        MOV     R0,A
        MOV     A,R5
        CLR     C
        SUBB    A,R0
        JNC     ??find_slot_2
//   35         if (s_nodes[i].nodeid == nodeid) {
        MOV     A,R5
        MOV     B,#0x1b
        MUL     AB
        MOV     R0,A
        MOV     R1,B
        LCALL   ?Subroutine5 & 0xFFFF
??CrossCallReturnLabel_6:
        XRL     A,R2
        JNZ     ??find_slot_3
        INC     DPTR
        MOVX    A,@DPTR
        XRL     A,R3
??find_slot_3:
        JNZ     ??find_slot_1
//   36             return &s_nodes[i];
        MOV     A,#s_nodes & 0xff
        ADD     A,R0
        MOV     R2,A
        MOV     A,#(s_nodes >> 8) & 0xff
        ADDC    A,R1
        MOV     R3,A
        SJMP    ??find_slot_4
//   37         }
//   38     }
//   39     return 0;
??find_slot_2:
        MOV     R2,#0x0
        MOV     R3,#0x0
??find_slot_4:
        LJMP    ?Subroutine0 & 0xFFFF
        CFI EndBlock cfiBlock0
//   40 }
//   41 

        RSEG BANKED_CODE:CODE:NOROOT(0)
//   42 static zb_node_t *alloc_slot(void)
alloc_slot:
        CFI Block cfiBlock1 Using cfiCommon0
        CFI Function alloc_slot
        CODE
//   43 {
        FUNCALL alloc_slot, osal_memset
        LOCFRAME ISTACK, 0, STACK
        LOCFRAME PSTACK, 0, STACK
        LOCFRAME XSTACK, 16, STACK
        LOCFRAME IOVERLAY, 0, STATIC
        LOCFRAME DOVERLAY, 0, STATIC
        ARGFRAME ISTACK, 0, STACK
        ARGFRAME PSTACK, 0, STACK
        ARGFRAME XSTACK, 16, STACK
        ARGFRAME IOVERLAY, 0, STATIC
        ARGFRAME DOVERLAY, 0, STATIC
        FUNCALL alloc_slot, osal_memset
        LOCFRAME ISTACK, 0, STACK
        LOCFRAME PSTACK, 0, STACK
        LOCFRAME XSTACK, 16, STACK
        LOCFRAME IOVERLAY, 0, STATIC
        LOCFRAME DOVERLAY, 0, STATIC
        ARGFRAME ISTACK, 0, STACK
        ARGFRAME PSTACK, 0, STACK
        ARGFRAME XSTACK, 16, STACK
        ARGFRAME IOVERLAY, 0, STATIC
        ARGFRAME DOVERLAY, 0, STATIC
        MOV     A,#-0x10
        LCALL   ?BANKED_ENTER_XDATA
        CFI DPH0 load(1, XDATA, add(CFA_XSP16, literal(-1)))
        CFI DPL0 load(1, XDATA, add(CFA_XSP16, literal(-2)))
        CFI ?BRET_EXT load(1, XDATA, add(CFA_XSP16, literal(-3)))
        CFI ?RET_HIGH load(1, XDATA, add(CFA_XSP16, literal(-4)))
        CFI ?RET_LOW load(1, XDATA, add(CFA_XSP16, literal(-5)))
        CFI R7 load(1, XDATA, add(CFA_XSP16, literal(-6)))
        CFI V7 load(1, XDATA, add(CFA_XSP16, literal(-7)))
        CFI V6 load(1, XDATA, add(CFA_XSP16, literal(-8)))
        CFI V5 load(1, XDATA, add(CFA_XSP16, literal(-9)))
        CFI V4 load(1, XDATA, add(CFA_XSP16, literal(-10)))
        CFI V3 load(1, XDATA, add(CFA_XSP16, literal(-11)))
        CFI V2 load(1, XDATA, add(CFA_XSP16, literal(-12)))
        CFI V1 load(1, XDATA, add(CFA_XSP16, literal(-13)))
        CFI V0 load(1, XDATA, add(CFA_XSP16, literal(-14)))
        CFI VB load(1, XDATA, add(CFA_XSP16, literal(-15)))
        CFI R6 load(1, XDATA, add(CFA_XSP16, literal(-16)))
        CFI CFA_SP SP+0
        CFI CFA_XSP16 add(XSP16, 16)
        ; Saved register size: 16
        ; Auto size: 0
//   44     if (s_node_cnt >= ZB_NODE_MAX) {
        MOV     DPTR,#s_node_cnt
        MOVX    A,@DPTR
        CLR     C
        SUBB    A,#0x8
        JC      ??alloc_slot_0
//   45         uint8 i;
//   46         uint8 oldest = 0;
        MOV     ?V0 + 0,#0x0
//   47         uint32 oldest_ms = s_nodes[0].last_seen_ms;
        MOV     DPTR,#s_nodes + 13
        MOV     R0,#?V0 + 4
        LCALL   ?L_MOV_X
//   48 
//   49         for (i = 1; i < ZB_NODE_MAX; ++i) {
        MOV     R3,#0x1
//   50             if (s_nodes[i].last_seen_ms < oldest_ms) {
??alloc_slot_1:
        MOV     A,R3
        MOV     B,#0x1b
        MUL     AB
        MOV     R0,A
        MOV     R1,B
        LCALL   ?Subroutine3 & 0xFFFF
??CrossCallReturnLabel_0:
        LCALL   ?UL_GT_X
        JNC     ??alloc_slot_2
//   51                 oldest_ms = s_nodes[i].last_seen_ms;
        MOV     A,R3
        MOV     B,#0x1b
        MUL     AB
        MOV     R0,A
        LCALL   ?Subroutine3 & 0xFFFF
??CrossCallReturnLabel_1:
        LCALL   ?L_MOV_X
//   52                 oldest = i;
        MOV     ?V0 + 0,R3
//   53             }
//   54         }
??alloc_slot_2:
        INC     R3
        MOV     A,R3
        CLR     C
        SUBB    A,#0x8
        JC      ??alloc_slot_1
//   55         osal_memset(&s_nodes[oldest], 0, sizeof(zb_node_t));
        MOV     A,?V0 + 0
        MOV     B,#0x1b
        MUL     AB
        MOV     R0,A
        MOV     R1,B
        MOV     A,#s_nodes & 0xff
        ADD     A,R0
        MOV     R6,A
        MOV     A,#(s_nodes >> 8) & 0xff
        ADDC    A,R1
        MOV     R7,A
        ; Setup parameters for call to function osal_memset
        MOV     R4,#0x1b
        MOV     R5,#0x0
        MOV     R1,#0x0
        MOV     A,R6
        MOV     R2,A
        MOV     A,R7
        MOV     R3,A
        LCALL   ??osal_memset?relay
//   56         return &s_nodes[oldest];
        MOV     A,R6
        MOV     R2,A
        MOV     A,R7
        SJMP    ??alloc_slot_3
//   57     }
//   58 
//   59     osal_memset(&s_nodes[s_node_cnt], 0, sizeof(zb_node_t));
??alloc_slot_0:
        ; Setup parameters for call to function osal_memset
        MOV     R4,#0x1b
        MOV     R5,#0x0
        MOV     R1,#0x0
        MOVX    A,@DPTR
        MOV     B,R4
        LCALL   ?Subroutine6 & 0xFFFF
??CrossCallReturnLabel_16:
        LCALL   ??osal_memset?relay
//   60     return &s_nodes[s_node_cnt++];
        MOV     DPTR,#s_node_cnt
        MOVX    A,@DPTR
        MOV     R0,A
        MOV     A,#0x1
        ADD     A,R0
        MOVX    @DPTR,A
        MOV     A,R0
        MOV     B,#0x1b
        MUL     AB
        MOV     R0,A
        MOV     R1,B
        MOV     A,#s_nodes & 0xff
        ADD     A,R0
        MOV     R2,A
        MOV     A,#(s_nodes >> 8) & 0xff
        ADDC    A,R1
??alloc_slot_3:
        MOV     R3,A
        CFI EndBlock cfiBlock1
        REQUIRE ?Subroutine1
        ; // Fall through to label ?Subroutine1
//   61 }

        RSEG BANKED_CODE:CODE:NOROOT(0)
?Subroutine1:
        CFI Block cfiBlock2 Using cfiCommon0
        CFI NoFunction
        CFI CFA_SP SP+0
        CFI CFA_XSP16 add(XSP16, 16)
        CFI VB load(1, XDATA, add(CFA_XSP16, literal(-15)))
        CFI DPL0 load(1, XDATA, add(CFA_XSP16, literal(-2)))
        CFI DPH0 load(1, XDATA, add(CFA_XSP16, literal(-1)))
        CFI R6 load(1, XDATA, add(CFA_XSP16, literal(-16)))
        CFI R7 load(1, XDATA, add(CFA_XSP16, literal(-6)))
        CFI V0 load(1, XDATA, add(CFA_XSP16, literal(-14)))
        CFI V1 load(1, XDATA, add(CFA_XSP16, literal(-13)))
        CFI V2 load(1, XDATA, add(CFA_XSP16, literal(-12)))
        CFI V3 load(1, XDATA, add(CFA_XSP16, literal(-11)))
        CFI V4 load(1, XDATA, add(CFA_XSP16, literal(-10)))
        CFI V5 load(1, XDATA, add(CFA_XSP16, literal(-9)))
        CFI V6 load(1, XDATA, add(CFA_XSP16, literal(-8)))
        CFI V7 load(1, XDATA, add(CFA_XSP16, literal(-7)))
        CFI ?BRET_EXT load(1, XDATA, add(CFA_XSP16, literal(-3)))
        CFI ?RET_HIGH load(1, XDATA, add(CFA_XSP16, literal(-4)))
        CFI ?RET_LOW load(1, XDATA, add(CFA_XSP16, literal(-5)))
        MOV     R7,#0x8
        LJMP    ?BANKED_LEAVE_XDATA
        CFI EndBlock cfiBlock2

        RSEG BANKED_CODE:CODE:NOROOT(0)
?Subroutine6:
        CFI Block cfiCond3 Using cfiCommon0
        CFI NoFunction
        CFI Conditional ??CrossCallReturnLabel_16
        CFI R6 load(1, XDATA, add(CFA_XSP16, literal(-16)))
        CFI VB load(1, XDATA, add(CFA_XSP16, literal(-15)))
        CFI V0 load(1, XDATA, add(CFA_XSP16, literal(-14)))
        CFI V1 load(1, XDATA, add(CFA_XSP16, literal(-13)))
        CFI V2 load(1, XDATA, add(CFA_XSP16, literal(-12)))
        CFI V3 load(1, XDATA, add(CFA_XSP16, literal(-11)))
        CFI V4 load(1, XDATA, add(CFA_XSP16, literal(-10)))
        CFI V5 load(1, XDATA, add(CFA_XSP16, literal(-9)))
        CFI V6 load(1, XDATA, add(CFA_XSP16, literal(-8)))
        CFI V7 load(1, XDATA, add(CFA_XSP16, literal(-7)))
        CFI R7 load(1, XDATA, add(CFA_XSP16, literal(-6)))
        CFI ?RET_LOW load(1, XDATA, add(CFA_XSP16, literal(-5)))
        CFI ?RET_HIGH load(1, XDATA, add(CFA_XSP16, literal(-4)))
        CFI ?BRET_EXT load(1, XDATA, add(CFA_XSP16, literal(-3)))
        CFI DPL0 load(1, XDATA, add(CFA_XSP16, literal(-2)))
        CFI DPH0 load(1, XDATA, add(CFA_XSP16, literal(-1)))
        CFI CFA_SP SP+0
        CFI CFA_XSP16 add(XSP16, 16)
        CFI Block cfiCond4 Using cfiCommon0
        CFI (cfiCond4) NoFunction
        CFI (cfiCond4) Conditional ??CrossCallReturnLabel_17
        CFI (cfiCond4) DPL0 Frame(CFA_SP, 4)
        CFI (cfiCond4) DPH0 Frame(CFA_SP, 5)
        CFI (cfiCond4) CFA_SP SP+-5
        CFI Block cfiPicker5 Using cfiCommon1
        CFI (cfiPicker5) NoFunction
        CFI (cfiPicker5) Picker
        MUL     AB
        MOV     R2,A
        MOV     R3,B
        CFI EndBlock cfiCond3
        CFI EndBlock cfiCond4
        CFI EndBlock cfiPicker5
        REQUIRE ??Subroutine10_0
        ; // Fall through to label ??Subroutine10_0

        RSEG BANKED_CODE:CODE:NOROOT(0)
??Subroutine10_0:
        CFI Block cfiCond6 Using cfiCommon0
        CFI NoFunction
        CFI Conditional ??CrossCallReturnLabel_15
        CFI DPL0 Frame(CFA_SP, 4)
        CFI DPH0 Frame(CFA_SP, 5)
        CFI CFA_SP SP+-5
        CFI Block cfiCond7 Using cfiCommon0
        CFI (cfiCond7) NoFunction
        CFI (cfiCond7) Conditional ??CrossCallReturnLabel_16
        CFI (cfiCond7) R6 load(1, XDATA, add(CFA_XSP16, literal(-16)))
        CFI (cfiCond7) VB load(1, XDATA, add(CFA_XSP16, literal(-15)))
        CFI (cfiCond7) V0 load(1, XDATA, add(CFA_XSP16, literal(-14)))
        CFI (cfiCond7) V1 load(1, XDATA, add(CFA_XSP16, literal(-13)))
        CFI (cfiCond7) V2 load(1, XDATA, add(CFA_XSP16, literal(-12)))
        CFI (cfiCond7) V3 load(1, XDATA, add(CFA_XSP16, literal(-11)))
        CFI (cfiCond7) V4 load(1, XDATA, add(CFA_XSP16, literal(-10)))
        CFI (cfiCond7) V5 load(1, XDATA, add(CFA_XSP16, literal(-9)))
        CFI (cfiCond7) V6 load(1, XDATA, add(CFA_XSP16, literal(-8)))
        CFI (cfiCond7) V7 load(1, XDATA, add(CFA_XSP16, literal(-7)))
        CFI (cfiCond7) R7 load(1, XDATA, add(CFA_XSP16, literal(-6)))
        CFI (cfiCond7) ?RET_LOW load(1, XDATA, add(CFA_XSP16, literal(-5)))
        CFI (cfiCond7) ?RET_HIGH load(1, XDATA, add(CFA_XSP16, literal(-4)))
        CFI (cfiCond7) ?BRET_EXT load(1, XDATA, add(CFA_XSP16, literal(-3)))
        CFI (cfiCond7) DPL0 load(1, XDATA, add(CFA_XSP16, literal(-2)))
        CFI (cfiCond7) DPH0 load(1, XDATA, add(CFA_XSP16, literal(-1)))
        CFI (cfiCond7) CFA_SP SP+0
        CFI (cfiCond7) CFA_XSP16 add(XSP16, 16)
        CFI Block cfiCond8 Using cfiCommon0
        CFI (cfiCond8) NoFunction
        CFI (cfiCond8) Conditional ??CrossCallReturnLabel_17
        CFI (cfiCond8) DPL0 Frame(CFA_SP, 4)
        CFI (cfiCond8) DPH0 Frame(CFA_SP, 5)
        CFI (cfiCond8) CFA_SP SP+-5
        CFI Block cfiPicker9 Using cfiCommon1
        CFI (cfiPicker9) NoFunction
        CFI (cfiPicker9) Picker
        MOV     A,#s_nodes & 0xff
        ADD     A,R2
        MOV     R2,A
        MOV     A,#(s_nodes >> 8) & 0xff
        ADDC    A,R3
        MOV     R3,A
        RET
        CFI EndBlock cfiCond6
        CFI EndBlock cfiCond7
        CFI EndBlock cfiCond8
        CFI EndBlock cfiPicker9

        RSEG BANKED_CODE:CODE:NOROOT(0)
?Subroutine3:
        CFI Block cfiCond10 Using cfiCommon0
        CFI NoFunction
        CFI Conditional ??CrossCallReturnLabel_0
        CFI R6 load(1, XDATA, add(CFA_XSP16, literal(-16)))
        CFI VB load(1, XDATA, add(CFA_XSP16, literal(-15)))
        CFI V0 load(1, XDATA, add(CFA_XSP16, literal(-14)))
        CFI V1 load(1, XDATA, add(CFA_XSP16, literal(-13)))
        CFI V2 load(1, XDATA, add(CFA_XSP16, literal(-12)))
        CFI V3 load(1, XDATA, add(CFA_XSP16, literal(-11)))
        CFI V4 load(1, XDATA, add(CFA_XSP16, literal(-10)))
        CFI V5 load(1, XDATA, add(CFA_XSP16, literal(-9)))
        CFI V6 load(1, XDATA, add(CFA_XSP16, literal(-8)))
        CFI V7 load(1, XDATA, add(CFA_XSP16, literal(-7)))
        CFI R7 load(1, XDATA, add(CFA_XSP16, literal(-6)))
        CFI ?RET_LOW load(1, XDATA, add(CFA_XSP16, literal(-5)))
        CFI ?RET_HIGH load(1, XDATA, add(CFA_XSP16, literal(-4)))
        CFI ?BRET_EXT load(1, XDATA, add(CFA_XSP16, literal(-3)))
        CFI DPL0 load(1, XDATA, add(CFA_XSP16, literal(-2)))
        CFI DPH0 load(1, XDATA, add(CFA_XSP16, literal(-1)))
        CFI CFA_SP SP+0
        CFI CFA_XSP16 add(XSP16, 16)
        CFI Block cfiCond11 Using cfiCommon0
        CFI (cfiCond11) NoFunction
        CFI (cfiCond11) Conditional ??CrossCallReturnLabel_1
        CFI (cfiCond11) R6 load(1, XDATA, add(CFA_XSP16, literal(-16)))
        CFI (cfiCond11) VB load(1, XDATA, add(CFA_XSP16, literal(-15)))
        CFI (cfiCond11) V0 load(1, XDATA, add(CFA_XSP16, literal(-14)))
        CFI (cfiCond11) V1 load(1, XDATA, add(CFA_XSP16, literal(-13)))
        CFI (cfiCond11) V2 load(1, XDATA, add(CFA_XSP16, literal(-12)))
        CFI (cfiCond11) V3 load(1, XDATA, add(CFA_XSP16, literal(-11)))
        CFI (cfiCond11) V4 load(1, XDATA, add(CFA_XSP16, literal(-10)))
        CFI (cfiCond11) V5 load(1, XDATA, add(CFA_XSP16, literal(-9)))
        CFI (cfiCond11) V6 load(1, XDATA, add(CFA_XSP16, literal(-8)))
        CFI (cfiCond11) V7 load(1, XDATA, add(CFA_XSP16, literal(-7)))
        CFI (cfiCond11) R7 load(1, XDATA, add(CFA_XSP16, literal(-6)))
        CFI (cfiCond11) ?RET_LOW load(1, XDATA, add(CFA_XSP16, literal(-5)))
        CFI (cfiCond11) ?RET_HIGH load(1, XDATA, add(CFA_XSP16, literal(-4)))
        CFI (cfiCond11) ?BRET_EXT load(1, XDATA, add(CFA_XSP16, literal(-3)))
        CFI (cfiCond11) DPL0 load(1, XDATA, add(CFA_XSP16, literal(-2)))
        CFI (cfiCond11) DPH0 load(1, XDATA, add(CFA_XSP16, literal(-1)))
        CFI (cfiCond11) CFA_SP SP+0
        CFI (cfiCond11) CFA_XSP16 add(XSP16, 16)
        CFI Block cfiPicker12 Using cfiCommon1
        CFI (cfiPicker12) NoFunction
        CFI (cfiPicker12) Picker
        LCALL   ?Subroutine8 & 0xFFFF
??CrossCallReturnLabel_11:
        MOV     R0,#?V0 + 4
        RET
        CFI EndBlock cfiCond10
        CFI EndBlock cfiCond11
        CFI EndBlock cfiPicker12
//   62 

        RSEG BANKED_CODE:CODE:NOROOT(0)
//   63 void zb_net_init(void)
zb_net_init:
        CFI Block cfiBlock13 Using cfiCommon0
        CFI Function zb_net_init
        CODE
//   64 {
        FUNCALL zb_net_init, osal_memset
        LOCFRAME ISTACK, 2, STACK
        LOCFRAME PSTACK, 0, STACK
        LOCFRAME XSTACK, 3, STACK
        LOCFRAME IOVERLAY, 0, STATIC
        LOCFRAME DOVERLAY, 0, STATIC
        ARGFRAME ISTACK, 2, STACK
        ARGFRAME PSTACK, 0, STACK
        ARGFRAME XSTACK, 3, STACK
        ARGFRAME IOVERLAY, 0, STATIC
        ARGFRAME DOVERLAY, 0, STATIC
        FUNCALL zb_net_init, nv_load_u16
        LOCFRAME ISTACK, 2, STACK
        LOCFRAME PSTACK, 0, STACK
        LOCFRAME XSTACK, 3, STACK
        LOCFRAME IOVERLAY, 0, STATIC
        LOCFRAME DOVERLAY, 0, STATIC
        ARGFRAME ISTACK, 2, STACK
        ARGFRAME PSTACK, 0, STACK
        ARGFRAME XSTACK, 3, STACK
        ARGFRAME IOVERLAY, 0, STATIC
        ARGFRAME DOVERLAY, 0, STATIC
        FUNCALL zb_net_init, nv_load_u8
        LOCFRAME ISTACK, 2, STACK
        LOCFRAME PSTACK, 0, STACK
        LOCFRAME XSTACK, 3, STACK
        LOCFRAME IOVERLAY, 0, STATIC
        LOCFRAME DOVERLAY, 0, STATIC
        ARGFRAME ISTACK, 2, STACK
        ARGFRAME PSTACK, 0, STACK
        ARGFRAME XSTACK, 3, STACK
        ARGFRAME IOVERLAY, 0, STATIC
        ARGFRAME DOVERLAY, 0, STATIC
        FUNCALL zb_net_init, osal_GetSystemClock
        LOCFRAME ISTACK, 2, STACK
        LOCFRAME PSTACK, 0, STACK
        LOCFRAME XSTACK, 3, STACK
        LOCFRAME IOVERLAY, 0, STATIC
        LOCFRAME DOVERLAY, 0, STATIC
        ARGFRAME ISTACK, 2, STACK
        ARGFRAME PSTACK, 0, STACK
        ARGFRAME XSTACK, 3, STACK
        ARGFRAME IOVERLAY, 0, STATIC
        ARGFRAME DOVERLAY, 0, STATIC
        PUSH    DPL
        CFI DPL0 Frame(CFA_SP, 4)
        CFI CFA_SP SP+-4
        PUSH    DPH
        CFI DPH0 Frame(CFA_SP, 5)
        CFI CFA_SP SP+-5
        ; Saved register size: 2
        ; Auto size: 3
        MOV     A,#-0x3
        LCALL   ?ALLOC_XSTACK8
        CFI CFA_XSP16 add(XSP16, 3)
//   65     uint16 nv_pan = 0xFFFF;
        MOV     A,#0x1
        LCALL   ?XSTACK_DISP0_8
        MOV     A,#-0x1
        MOVX    @DPTR,A
        INC     DPTR
        MOVX    @DPTR,A
//   66     uint8 nv_ch = ZB_CHANNEL_DEFAULT;
        MOV     DPL,?XSP + 0
        MOV     DPH,?XSP + 1
        MOV     A,#0xf
        MOVX    @DPTR,A
//   67 
//   68     osal_memset(s_nodes, 0, sizeof(s_nodes));
        ; Setup parameters for call to function osal_memset
        MOV     R4,#-0x28
        MOV     R5,#0x0
        MOV     R1,#0x0
        MOV     R2,#s_nodes & 0xff
        MOV     R3,#(s_nodes >> 8) & 0xff
        LCALL   ??osal_memset?relay
//   69     s_node_cnt = 0;
        MOV     DPTR,#s_node_cnt
        CLR     A
        MOVX    @DPTR,A
//   70 
//   71     if (nv_load_u16(NV_ID_PANID, &nv_pan) == 0 && nv_pan != 0xFFFF) {
        ; Setup parameters for call to function nv_load_u16
        INC     A
        LCALL   ?XSTACK_DISP0_8
        MOV     R4,DPL
        MOV     R5,DPH
        MOV     R2,#0x1
        MOV     R3,#-0x10
        LCALL   ??nv_load_u16?relay
        MOV     A,R1
        JNZ     ??zb_net_init_0
        MOV     A,#0x1
        LCALL   ?XSTACK_DISP0_8
        MOVX    A,@DPTR
        CPL     A
        JNZ     ??zb_net_init_1
        INC     DPTR
        MOVX    A,@DPTR
        CPL     A
??zb_net_init_1:
        JZ      ??zb_net_init_0
//   72         s_panid = nv_pan;
        MOV     A,#0x1
        LCALL   ?XSTACK_DISP0_8
        LCALL   ?Subroutine4 & 0xFFFF
??CrossCallReturnLabel_2:
        MOV     DPTR,#s_panid
        MOV     A,R0
        MOVX    @DPTR,A
        INC     DPTR
        MOV     A,R1
        MOVX    @DPTR,A
//   73         ZDO_Config_Node_Descriptor.LogicalType = NODETYPE_COORDINATOR;
        MOV     DPTR,#ZDO_Config_Node_Descriptor
        MOVX    A,@DPTR
        ANL     A,#0xf8
        MOVX    @DPTR,A
//   74     }
//   75     if (nv_load_u8(NV_ID_CHANNEL, &nv_ch) == 0 && nv_ch != 0xFF) {
??zb_net_init_0:
        ; Setup parameters for call to function nv_load_u8
        MOV     DPL,?XSP + 0
        MOV     DPH,?XSP + 1
        MOV     R4,DPL
        MOV     R5,DPH
        MOV     R2,#0x2
        MOV     R3,#-0x10
        LCALL   ??nv_load_u8?relay
        MOV     A,R1
        JNZ     ??zb_net_init_2
        MOV     DPL,?XSP + 0
        MOV     DPH,?XSP + 1
        MOVX    A,@DPTR
        CPL     A
        JZ      ??zb_net_init_2
//   76         s_channel = nv_ch;
        MOVX    A,@DPTR
        MOV     DPTR,#s_channel
        MOVX    @DPTR,A
//   77     }
//   78     s_last_tick_ms = osal_GetSystemClock();
??zb_net_init_2:
        ; Setup parameters for call to function osal_GetSystemClock
        LCALL   ??osal_GetSystemClock?relay
        MOV     DPTR,#s_last_tick_ms
        LCALL   ?XSTORE_R2345
//   79 }
        MOV     A,#0x3
        LCALL   ?DEALLOC_XSTACK8
        CFI CFA_XSP16 XSP16+0
        LJMP    ?Subroutine0 & 0xFFFF
        CFI EndBlock cfiBlock13
//   80 

        RSEG BANKED_CODE:CODE:NOROOT(0)
//   81 void zb_net_tick(uint32 now_ms)
zb_net_tick:
        CFI Block cfiBlock14 Using cfiCommon0
        CFI Function zb_net_tick
        CODE
//   82 {
        FUNCALL zb_net_tick, NLME_PermitJoiningRequest
        LOCFRAME ISTACK, 0, STACK
        LOCFRAME PSTACK, 0, STACK
        LOCFRAME XSTACK, 20, STACK
        LOCFRAME IOVERLAY, 0, STATIC
        LOCFRAME DOVERLAY, 0, STATIC
        ARGFRAME ISTACK, 0, STACK
        ARGFRAME PSTACK, 0, STACK
        ARGFRAME XSTACK, 20, STACK
        ARGFRAME IOVERLAY, 0, STATIC
        ARGFRAME DOVERLAY, 0, STATIC
        FUNCALL zb_net_tick, zb_net_online_count
        LOCFRAME ISTACK, 0, STACK
        LOCFRAME PSTACK, 0, STACK
        LOCFRAME XSTACK, 20, STACK
        LOCFRAME IOVERLAY, 0, STATIC
        LOCFRAME DOVERLAY, 0, STATIC
        ARGFRAME ISTACK, 0, STACK
        ARGFRAME PSTACK, 0, STACK
        ARGFRAME XSTACK, 20, STACK
        ARGFRAME IOVERLAY, 0, STATIC
        ARGFRAME DOVERLAY, 0, STATIC
        FUNCALL zb_net_tick, NLME_PermitJoiningRequest
        LOCFRAME ISTACK, 0, STACK
        LOCFRAME PSTACK, 0, STACK
        LOCFRAME XSTACK, 20, STACK
        LOCFRAME IOVERLAY, 0, STATIC
        LOCFRAME DOVERLAY, 0, STATIC
        ARGFRAME ISTACK, 0, STACK
        ARGFRAME PSTACK, 0, STACK
        ARGFRAME XSTACK, 20, STACK
        ARGFRAME IOVERLAY, 0, STATIC
        ARGFRAME DOVERLAY, 0, STATIC
        FUNCALL zb_net_tick, GwCoord_SendNetStatus
        LOCFRAME ISTACK, 0, STACK
        LOCFRAME PSTACK, 0, STACK
        LOCFRAME XSTACK, 20, STACK
        LOCFRAME IOVERLAY, 0, STATIC
        LOCFRAME DOVERLAY, 0, STATIC
        ARGFRAME ISTACK, 0, STACK
        ARGFRAME PSTACK, 0, STACK
        ARGFRAME XSTACK, 20, STACK
        ARGFRAME IOVERLAY, 0, STATIC
        ARGFRAME DOVERLAY, 0, STATIC
        FUNCALL zb_net_tick, zb_net_mark_offline
        LOCFRAME ISTACK, 0, STACK
        LOCFRAME PSTACK, 0, STACK
        LOCFRAME XSTACK, 20, STACK
        LOCFRAME IOVERLAY, 0, STATIC
        LOCFRAME DOVERLAY, 0, STATIC
        ARGFRAME ISTACK, 0, STACK
        ARGFRAME PSTACK, 0, STACK
        ARGFRAME XSTACK, 20, STACK
        ARGFRAME IOVERLAY, 0, STATIC
        ARGFRAME DOVERLAY, 0, STATIC
        MOV     A,#-0x14
        LCALL   ?BANKED_ENTER_XDATA
        CFI DPH0 load(1, XDATA, add(CFA_XSP16, literal(-1)))
        CFI DPL0 load(1, XDATA, add(CFA_XSP16, literal(-2)))
        CFI ?BRET_EXT load(1, XDATA, add(CFA_XSP16, literal(-3)))
        CFI ?RET_HIGH load(1, XDATA, add(CFA_XSP16, literal(-4)))
        CFI ?RET_LOW load(1, XDATA, add(CFA_XSP16, literal(-5)))
        CFI R7 load(1, XDATA, add(CFA_XSP16, literal(-6)))
        CFI V11 load(1, XDATA, add(CFA_XSP16, literal(-7)))
        CFI V10 load(1, XDATA, add(CFA_XSP16, literal(-8)))
        CFI V9 load(1, XDATA, add(CFA_XSP16, literal(-9)))
        CFI V8 load(1, XDATA, add(CFA_XSP16, literal(-10)))
        CFI V7 load(1, XDATA, add(CFA_XSP16, literal(-11)))
        CFI V6 load(1, XDATA, add(CFA_XSP16, literal(-12)))
        CFI V5 load(1, XDATA, add(CFA_XSP16, literal(-13)))
        CFI V4 load(1, XDATA, add(CFA_XSP16, literal(-14)))
        CFI V3 load(1, XDATA, add(CFA_XSP16, literal(-15)))
        CFI V2 load(1, XDATA, add(CFA_XSP16, literal(-16)))
        CFI V1 load(1, XDATA, add(CFA_XSP16, literal(-17)))
        CFI V0 load(1, XDATA, add(CFA_XSP16, literal(-18)))
        CFI VB load(1, XDATA, add(CFA_XSP16, literal(-19)))
        CFI R6 load(1, XDATA, add(CFA_XSP16, literal(-20)))
        CFI CFA_SP SP+0
        CFI CFA_XSP16 add(XSP16, 20)
        ; Saved register size: 20
        ; Auto size: 0
        MOV     ?V0 + 8,R2
        MOV     ?V0 + 9,R3
        MOV     ?V0 + 10,R4
        MOV     ?V0 + 11,R5
//   83     uint32 delta;
//   84     uint8 i;
//   85 
//   86     if (now_ms - s_last_tick_ms < 1000u) {
        MOV     ?V0 + 0,R2
        MOV     ?V0 + 1,R3
        MOV     ?V0 + 2,R4
        MOV     ?V0 + 3,R5
        MOV     DPTR,#s_last_tick_ms
        MOV     R0,#?V0 + 0
        LCALL   ?L_SUB_X
        MOV     DPTR,#__Constant_3e8
        MOV     R0,#?V0 + 0
        LCALL   ?UL_GE_X
        JC      $+5
        LJMP    ??zb_net_tick_0 & 0xFFFF
//   87         return;
//   88     }
//   89     delta = (now_ms - s_last_tick_ms) / 1000u;
        MOV     ?V0 + 4,R2
        MOV     ?V0 + 5,R3
        MOV     ?V0 + 6,R4
        MOV     ?V0 + 7,R5
        MOV     DPTR,#s_last_tick_ms
        MOV     R0,#?V0 + 4
        LCALL   ?L_SUB_X
        MOV     DPTR,#__Constant_3e8
        MOV     R0,#?V0 + 0
        LCALL   ?L_MOV_X
        MOV     R0,#?V0 + 4
        MOV     R1,#?V0 + 0
        LCALL   ?UL_DIV_MOD
//   90     s_last_tick_ms = now_ms;
        MOV     DPTR,#s_last_tick_ms
        MOV     R0,#?V0 + 8
        LCALL   ?L_MOV_TO_X
//   91 
//   92     if (s_allow_join_rem_s != 0xFFu && s_allow_join_rem_s > 0u) {
        MOV     DPTR,#s_allow_join_rem_s
        MOVX    A,@DPTR
        CPL     A
        JZ      ??zb_net_tick_1
        MOVX    A,@DPTR
        JZ      ??zb_net_tick_1
//   93         if (delta >= s_allow_join_rem_s) {
        MOV     ?V0 + 0,A
        CLR     A
        MOV     ?V0 + 1,A
        MOV     ?V0 + 2,A
        MOV     ?V0 + 3,A
        MOV     R0,#?V0 + 0
        MOV     R1,#?V0 + 4
        LCALL   ?UL_GT
        JC      ??zb_net_tick_2
//   94             s_allow_join_rem_s = 0;
        CLR     A
        MOVX    @DPTR,A
//   95             NLME_PermitJoiningRequest(0);
        ; Setup parameters for call to function NLME_PermitJoiningRequest
        MOV     R1,A
        LCALL   ??NLME_PermitJoiningRequest?relay
        SJMP    ??zb_net_tick_1
//   96         } else {
//   97             s_allow_join_rem_s = (uint8)(s_allow_join_rem_s - delta);
??zb_net_tick_2:
        MOV     ?V0 + 0,?V0 + 4
        MOVX    A,@DPTR
        CLR     C
        SUBB    A,?V0 + 0
        MOVX    @DPTR,A
//   98         }
//   99     }
//  100 
//  101     /* 若网络已就绪但一个节点都没加入，每 30s 自动再开 60s 入网窗。
//  102      * 这样即便 STM32 侧 ZB_ALLOW_JOIN 丢帧或节点来得晚，也能一直有机会重试。 */
//  103     if (s_dev_state == DEV_ZB_COORD && zb_net_online_count() == 0u) {
??zb_net_tick_1:
        MOV     DPTR,#s_dev_state
        MOVX    A,@DPTR
        XRL     A,#0x9
        JNZ     ??zb_net_tick_3
        ; Setup parameters for call to function zb_net_online_count
        LCALL   ??zb_net_online_count?relay
        MOV     A,R1
        JNZ     ??zb_net_tick_3
//  104         if (s_reopen_window_s <= delta) {
        MOV     DPTR,#s_reopen_window_s
        MOVX    A,@DPTR
        MOV     ?V0 + 0,A
        CLR     A
        MOV     ?V0 + 1,A
        MOV     ?V0 + 2,A
        MOV     ?V0 + 3,A
        MOV     R0,#?V0 + 0
        MOV     R1,#?V0 + 4
        LCALL   ?UL_GT
        JC      ??zb_net_tick_4
//  105             s_reopen_window_s = 30u;
        MOV     A,#0x1e
        MOVX    @DPTR,A
//  106             if (s_allow_join_rem_s < 60u) {
        MOV     DPTR,#s_allow_join_rem_s
        MOVX    A,@DPTR
        CLR     C
        SUBB    A,#0x3c
        JNC     ??zb_net_tick_5
//  107                 NLME_PermitJoiningRequest(60);
        ; Setup parameters for call to function NLME_PermitJoiningRequest
        MOV     R1,#0x3c
        LCALL   ?Subroutine9 & 0xFFFF
//  108                 s_allow_join_rem_s = 60u;
??CrossCallReturnLabel_12:
        MOV     A,#0x3c
        MOVX    @DPTR,A
//  109                 GwCoord_SendNetStatus();
        ; Setup parameters for call to function GwCoord_SendNetStatus
        LCALL   ??GwCoord_SendNetStatus?relay
        SJMP    ??zb_net_tick_5
//  110             }
//  111         } else {
//  112             s_reopen_window_s = (uint8)(s_reopen_window_s - delta);
??zb_net_tick_4:
        MOVX    A,@DPTR
        CLR     C
        SUBB    A,?V0 + 4
        SJMP    ??zb_net_tick_6
//  113         }
//  114     } else {
//  115         s_reopen_window_s = 0;
??zb_net_tick_3:
        MOV     DPTR,#s_reopen_window_s
        CLR     A
??zb_net_tick_6:
        MOVX    @DPTR,A
//  116     }
//  117 
//  118     for (i = 0; i < s_node_cnt; ++i) {
??zb_net_tick_5:
        MOV     R6,#0x0
        SJMP    ??zb_net_tick_7
//  119         if ((s_nodes[i].flags & 0x01u) &&
//  120             (now_ms - s_nodes[i].last_seen_ms) > (uint32)(3u * ZB_HEARTBEAT_S * 1000u)) {
??zb_net_tick_8:
        MOV     A,R6
        MOV     B,#0x1b
        MUL     AB
        MOV     R0,A
        MOV     R1,B
        MOV     A,#(s_nodes + 17) & 0xff
        ADD     A,R0
        MOV     DPL,A
        MOV     A,#((s_nodes + 17) >> 8) & 0xff
        ADDC    A,R1
        MOV     DPH,A
        MOVX    A,@DPTR
        MOV     C,0xE0 /* A   */.0
        JNC     ??zb_net_tick_9
        MOV     ?V0 + 0,?V0 + 8
        MOV     ?V0 + 1,?V0 + 9
        MOV     ?V0 + 2,?V0 + 10
        MOV     ?V0 + 3,?V0 + 11
        LCALL   ?Subroutine8 & 0xFFFF
??CrossCallReturnLabel_10:
        MOV     R0,#?V0 + 0
        LCALL   ?L_SUB_X
        MOV     DPTR,#__Constant_bf21
        MOV     R0,#?V0 + 0
        LCALL   ?UL_GE_X
        JNC     ??zb_net_tick_9
//  121             zb_net_mark_offline(s_nodes[i].nodeid);
        ; Setup parameters for call to function zb_net_mark_offline
        MOV     A,R6
        MOV     B,#0x1b
        MUL     AB
        MOV     R0,A
        LCALL   ?Subroutine5 & 0xFFFF
//  122         }
//  123     }
??CrossCallReturnLabel_7:
        MOV     R2,A
        INC     DPTR
        MOVX    A,@DPTR
        MOV     R3,A
        LCALL   ??zb_net_mark_offline?relay
??zb_net_tick_9:
        INC     R6
??zb_net_tick_7:
        MOV     DPTR,#s_node_cnt
        MOVX    A,@DPTR
        MOV     R0,A
        MOV     A,R6
        CLR     C
        SUBB    A,R0
        JC      ??zb_net_tick_8
??zb_net_tick_0:
        MOV     R7,#0xc
        LJMP    ?BANKED_LEAVE_XDATA
        CFI EndBlock cfiBlock14
//  124 }

        RSEG BANKED_CODE:CODE:NOROOT(0)
?Subroutine8:
        CFI Block cfiCond15 Using cfiCommon0
        CFI NoFunction
        CFI Conditional ??CrossCallReturnLabel_11, ??CrossCallReturnLabel_0
        CFI R6 load(1, XDATA, add(CFA_XSP16, literal(-16)))
        CFI VB load(1, XDATA, add(CFA_XSP16, literal(-15)))
        CFI V0 load(1, XDATA, add(CFA_XSP16, literal(-14)))
        CFI V1 load(1, XDATA, add(CFA_XSP16, literal(-13)))
        CFI V2 load(1, XDATA, add(CFA_XSP16, literal(-12)))
        CFI V3 load(1, XDATA, add(CFA_XSP16, literal(-11)))
        CFI V4 load(1, XDATA, add(CFA_XSP16, literal(-10)))
        CFI V5 load(1, XDATA, add(CFA_XSP16, literal(-9)))
        CFI V6 load(1, XDATA, add(CFA_XSP16, literal(-8)))
        CFI V7 load(1, XDATA, add(CFA_XSP16, literal(-7)))
        CFI R7 load(1, XDATA, add(CFA_XSP16, literal(-6)))
        CFI ?RET_LOW load(1, XDATA, add(CFA_XSP16, literal(-5)))
        CFI ?RET_HIGH load(1, XDATA, add(CFA_XSP16, literal(-4)))
        CFI ?BRET_EXT load(1, XDATA, add(CFA_XSP16, literal(-3)))
        CFI DPL0 load(1, XDATA, add(CFA_XSP16, literal(-2)))
        CFI DPH0 load(1, XDATA, add(CFA_XSP16, literal(-1)))
        CFI CFA_SP SP+0
        CFI CFA_XSP16 add(XSP16, 16)
        CFI Block cfiCond16 Using cfiCommon0
        CFI (cfiCond16) NoFunction
        CFI (cfiCond16) Conditional ??CrossCallReturnLabel_11, ??CrossCallReturnLabel_1
        CFI (cfiCond16) R6 load(1, XDATA, add(CFA_XSP16, literal(-16)))
        CFI (cfiCond16) VB load(1, XDATA, add(CFA_XSP16, literal(-15)))
        CFI (cfiCond16) V0 load(1, XDATA, add(CFA_XSP16, literal(-14)))
        CFI (cfiCond16) V1 load(1, XDATA, add(CFA_XSP16, literal(-13)))
        CFI (cfiCond16) V2 load(1, XDATA, add(CFA_XSP16, literal(-12)))
        CFI (cfiCond16) V3 load(1, XDATA, add(CFA_XSP16, literal(-11)))
        CFI (cfiCond16) V4 load(1, XDATA, add(CFA_XSP16, literal(-10)))
        CFI (cfiCond16) V5 load(1, XDATA, add(CFA_XSP16, literal(-9)))
        CFI (cfiCond16) V6 load(1, XDATA, add(CFA_XSP16, literal(-8)))
        CFI (cfiCond16) V7 load(1, XDATA, add(CFA_XSP16, literal(-7)))
        CFI (cfiCond16) R7 load(1, XDATA, add(CFA_XSP16, literal(-6)))
        CFI (cfiCond16) ?RET_LOW load(1, XDATA, add(CFA_XSP16, literal(-5)))
        CFI (cfiCond16) ?RET_HIGH load(1, XDATA, add(CFA_XSP16, literal(-4)))
        CFI (cfiCond16) ?BRET_EXT load(1, XDATA, add(CFA_XSP16, literal(-3)))
        CFI (cfiCond16) DPL0 load(1, XDATA, add(CFA_XSP16, literal(-2)))
        CFI (cfiCond16) DPH0 load(1, XDATA, add(CFA_XSP16, literal(-1)))
        CFI (cfiCond16) CFA_SP SP+0
        CFI (cfiCond16) CFA_XSP16 add(XSP16, 16)
        CFI Block cfiCond17 Using cfiCommon0
        CFI (cfiCond17) NoFunction
        CFI (cfiCond17) Conditional ??CrossCallReturnLabel_10
        CFI (cfiCond17) R6 load(1, XDATA, add(CFA_XSP16, literal(-20)))
        CFI (cfiCond17) VB load(1, XDATA, add(CFA_XSP16, literal(-19)))
        CFI (cfiCond17) V0 load(1, XDATA, add(CFA_XSP16, literal(-18)))
        CFI (cfiCond17) V1 load(1, XDATA, add(CFA_XSP16, literal(-17)))
        CFI (cfiCond17) V2 load(1, XDATA, add(CFA_XSP16, literal(-16)))
        CFI (cfiCond17) V3 load(1, XDATA, add(CFA_XSP16, literal(-15)))
        CFI (cfiCond17) V4 load(1, XDATA, add(CFA_XSP16, literal(-14)))
        CFI (cfiCond17) V5 load(1, XDATA, add(CFA_XSP16, literal(-13)))
        CFI (cfiCond17) V6 load(1, XDATA, add(CFA_XSP16, literal(-12)))
        CFI (cfiCond17) V7 load(1, XDATA, add(CFA_XSP16, literal(-11)))
        CFI (cfiCond17) V8 load(1, XDATA, add(CFA_XSP16, literal(-10)))
        CFI (cfiCond17) V9 load(1, XDATA, add(CFA_XSP16, literal(-9)))
        CFI (cfiCond17) V10 load(1, XDATA, add(CFA_XSP16, literal(-8)))
        CFI (cfiCond17) V11 load(1, XDATA, add(CFA_XSP16, literal(-7)))
        CFI (cfiCond17) R7 load(1, XDATA, add(CFA_XSP16, literal(-6)))
        CFI (cfiCond17) ?RET_LOW load(1, XDATA, add(CFA_XSP16, literal(-5)))
        CFI (cfiCond17) ?RET_HIGH load(1, XDATA, add(CFA_XSP16, literal(-4)))
        CFI (cfiCond17) ?BRET_EXT load(1, XDATA, add(CFA_XSP16, literal(-3)))
        CFI (cfiCond17) DPL0 load(1, XDATA, add(CFA_XSP16, literal(-2)))
        CFI (cfiCond17) DPH0 load(1, XDATA, add(CFA_XSP16, literal(-1)))
        CFI (cfiCond17) CFA_SP SP+0
        CFI (cfiCond17) CFA_XSP16 add(XSP16, 20)
        CFI Block cfiPicker18 Using cfiCommon1
        CFI (cfiPicker18) NoFunction
        CFI (cfiPicker18) Picker
        MOV     A,#(s_nodes + 13) & 0xff
        ADD     A,R0
        MOV     DPL,A
        MOV     A,#((s_nodes + 13) >> 8) & 0xff
        ADDC    A,R1
        MOV     DPH,A
        RET
        CFI EndBlock cfiCond15
        CFI EndBlock cfiCond16
        CFI EndBlock cfiCond17
        CFI EndBlock cfiPicker18

        RSEG BANKED_CODE:CODE:NOROOT(0)
?Subroutine5:
        CFI Block cfiCond19 Using cfiCommon0
        CFI NoFunction
        CFI Conditional ??CrossCallReturnLabel_6
        CFI DPL0 Frame(CFA_SP, 4)
        CFI DPH0 Frame(CFA_SP, 5)
        CFI CFA_SP SP+-5
        CFI Block cfiCond20 Using cfiCommon0
        CFI (cfiCond20) NoFunction
        CFI (cfiCond20) Conditional ??CrossCallReturnLabel_7
        CFI (cfiCond20) R6 load(1, XDATA, add(CFA_XSP16, literal(-20)))
        CFI (cfiCond20) VB load(1, XDATA, add(CFA_XSP16, literal(-19)))
        CFI (cfiCond20) V0 load(1, XDATA, add(CFA_XSP16, literal(-18)))
        CFI (cfiCond20) V1 load(1, XDATA, add(CFA_XSP16, literal(-17)))
        CFI (cfiCond20) V2 load(1, XDATA, add(CFA_XSP16, literal(-16)))
        CFI (cfiCond20) V3 load(1, XDATA, add(CFA_XSP16, literal(-15)))
        CFI (cfiCond20) V4 load(1, XDATA, add(CFA_XSP16, literal(-14)))
        CFI (cfiCond20) V5 load(1, XDATA, add(CFA_XSP16, literal(-13)))
        CFI (cfiCond20) V6 load(1, XDATA, add(CFA_XSP16, literal(-12)))
        CFI (cfiCond20) V7 load(1, XDATA, add(CFA_XSP16, literal(-11)))
        CFI (cfiCond20) V8 load(1, XDATA, add(CFA_XSP16, literal(-10)))
        CFI (cfiCond20) V9 load(1, XDATA, add(CFA_XSP16, literal(-9)))
        CFI (cfiCond20) V10 load(1, XDATA, add(CFA_XSP16, literal(-8)))
        CFI (cfiCond20) V11 load(1, XDATA, add(CFA_XSP16, literal(-7)))
        CFI (cfiCond20) R7 load(1, XDATA, add(CFA_XSP16, literal(-6)))
        CFI (cfiCond20) ?RET_LOW load(1, XDATA, add(CFA_XSP16, literal(-5)))
        CFI (cfiCond20) ?RET_HIGH load(1, XDATA, add(CFA_XSP16, literal(-4)))
        CFI (cfiCond20) ?BRET_EXT load(1, XDATA, add(CFA_XSP16, literal(-3)))
        CFI (cfiCond20) DPL0 load(1, XDATA, add(CFA_XSP16, literal(-2)))
        CFI (cfiCond20) DPH0 load(1, XDATA, add(CFA_XSP16, literal(-1)))
        CFI (cfiCond20) CFA_SP SP+0
        CFI (cfiCond20) CFA_XSP16 add(XSP16, 20)
        CFI Block cfiPicker21 Using cfiCommon1
        CFI (cfiPicker21) NoFunction
        CFI (cfiPicker21) Picker
        MOV     A,#s_nodes & 0xff
        ADD     A,R0
        MOV     DPL,A
        MOV     A,#(s_nodes >> 8) & 0xff
        ADDC    A,R1
        MOV     DPH,A
        MOVX    A,@DPTR
        RET
        CFI EndBlock cfiCond19
        CFI EndBlock cfiCond20
        CFI EndBlock cfiPicker21
//  125 

        RSEG BANKED_CODE:CODE:NOROOT(0)
//  126 void zb_net_allow_join(uint8 sec)
zb_net_allow_join:
        CFI Block cfiBlock22 Using cfiCommon0
        CFI Function zb_net_allow_join
        CODE
//  127 {
        FUNCALL zb_net_allow_join, NLME_PermitJoiningRequest
        LOCFRAME ISTACK, 0, STACK
        LOCFRAME PSTACK, 0, STACK
        LOCFRAME XSTACK, 9, STACK
        LOCFRAME IOVERLAY, 0, STATIC
        LOCFRAME DOVERLAY, 0, STATIC
        ARGFRAME ISTACK, 0, STACK
        ARGFRAME PSTACK, 0, STACK
        ARGFRAME XSTACK, 9, STACK
        ARGFRAME IOVERLAY, 0, STATIC
        ARGFRAME DOVERLAY, 0, STATIC
        FUNCALL zb_net_allow_join, NLME_PermitJoiningRequest
        LOCFRAME ISTACK, 0, STACK
        LOCFRAME PSTACK, 0, STACK
        LOCFRAME XSTACK, 9, STACK
        LOCFRAME IOVERLAY, 0, STATIC
        LOCFRAME DOVERLAY, 0, STATIC
        ARGFRAME ISTACK, 0, STACK
        ARGFRAME PSTACK, 0, STACK
        ARGFRAME XSTACK, 9, STACK
        ARGFRAME IOVERLAY, 0, STATIC
        ARGFRAME DOVERLAY, 0, STATIC
        FUNCALL zb_net_allow_join, NLME_PermitJoiningRequest
        LOCFRAME ISTACK, 0, STACK
        LOCFRAME PSTACK, 0, STACK
        LOCFRAME XSTACK, 9, STACK
        LOCFRAME IOVERLAY, 0, STATIC
        LOCFRAME DOVERLAY, 0, STATIC
        ARGFRAME ISTACK, 0, STACK
        ARGFRAME PSTACK, 0, STACK
        ARGFRAME XSTACK, 9, STACK
        ARGFRAME IOVERLAY, 0, STATIC
        ARGFRAME DOVERLAY, 0, STATIC
        MOV     A,#-0x9
        LCALL   ?BANKED_ENTER_XDATA
        CFI DPH0 load(1, XDATA, add(CFA_XSP16, literal(-1)))
        CFI DPL0 load(1, XDATA, add(CFA_XSP16, literal(-2)))
        CFI ?BRET_EXT load(1, XDATA, add(CFA_XSP16, literal(-3)))
        CFI ?RET_HIGH load(1, XDATA, add(CFA_XSP16, literal(-4)))
        CFI ?RET_LOW load(1, XDATA, add(CFA_XSP16, literal(-5)))
        CFI R7 load(1, XDATA, add(CFA_XSP16, literal(-6)))
        CFI V0 load(1, XDATA, add(CFA_XSP16, literal(-7)))
        CFI VB load(1, XDATA, add(CFA_XSP16, literal(-8)))
        CFI R6 load(1, XDATA, add(CFA_XSP16, literal(-9)))
        CFI CFA_SP SP+0
        CFI CFA_XSP16 add(XSP16, 9)
        ; Saved register size: 9
        ; Auto size: 0
        MOV     A,R1
        MOV     R6,A
//  128     if (sec == 0u) {
        JNZ     ??zb_net_allow_join_0
//  129         NLME_PermitJoiningRequest(0);
        ; Setup parameters for call to function NLME_PermitJoiningRequest
        MOV     R1,#0x0
        LCALL   ?Subroutine9 & 0xFFFF
//  130         s_allow_join_rem_s = 0;
//  131     } else if (sec == 0xFFu) {
??CrossCallReturnLabel_13:
        CLR     A
        SJMP    ??zb_net_allow_join_1
??zb_net_allow_join_0:
        MOV     A,#-0x1
        XRL     A,R6
        JNZ     ??zb_net_allow_join_2
//  132         NLME_PermitJoiningRequest(0xFFu);
        ; Setup parameters for call to function NLME_PermitJoiningRequest
        LCALL   ?Subroutine7 & 0xFFFF
//  133         s_allow_join_rem_s = 0xFFu;
//  134     } else {
??CrossCallReturnLabel_8:
        SJMP    ??zb_net_allow_join_1
//  135         NLME_PermitJoiningRequest(sec);
??zb_net_allow_join_2:
        ; Setup parameters for call to function NLME_PermitJoiningRequest
        LCALL   ??NLME_PermitJoiningRequest?relay
//  136         s_allow_join_rem_s = sec;
        MOV     A,R6
        MOV     DPTR,#s_allow_join_rem_s
??zb_net_allow_join_1:
        MOVX    @DPTR,A
//  137     }
//  138 }
        MOV     R7,#0x1
        LJMP    ?BANKED_LEAVE_XDATA
        CFI EndBlock cfiBlock22

        RSEG BANKED_CODE:CODE:NOROOT(0)
?Subroutine9:
        CFI Block cfiCond23 Using cfiCommon0
        CFI NoFunction
        CFI Conditional ??CrossCallReturnLabel_12
        CFI R6 load(1, XDATA, add(CFA_XSP16, literal(-20)))
        CFI VB load(1, XDATA, add(CFA_XSP16, literal(-19)))
        CFI V0 load(1, XDATA, add(CFA_XSP16, literal(-18)))
        CFI V1 load(1, XDATA, add(CFA_XSP16, literal(-17)))
        CFI V2 load(1, XDATA, add(CFA_XSP16, literal(-16)))
        CFI V3 load(1, XDATA, add(CFA_XSP16, literal(-15)))
        CFI V4 load(1, XDATA, add(CFA_XSP16, literal(-14)))
        CFI V5 load(1, XDATA, add(CFA_XSP16, literal(-13)))
        CFI V6 load(1, XDATA, add(CFA_XSP16, literal(-12)))
        CFI V7 load(1, XDATA, add(CFA_XSP16, literal(-11)))
        CFI V8 load(1, XDATA, add(CFA_XSP16, literal(-10)))
        CFI V9 load(1, XDATA, add(CFA_XSP16, literal(-9)))
        CFI V10 load(1, XDATA, add(CFA_XSP16, literal(-8)))
        CFI V11 load(1, XDATA, add(CFA_XSP16, literal(-7)))
        CFI R7 load(1, XDATA, add(CFA_XSP16, literal(-6)))
        CFI ?RET_LOW load(1, XDATA, add(CFA_XSP16, literal(-5)))
        CFI ?RET_HIGH load(1, XDATA, add(CFA_XSP16, literal(-4)))
        CFI ?BRET_EXT load(1, XDATA, add(CFA_XSP16, literal(-3)))
        CFI DPL0 load(1, XDATA, add(CFA_XSP16, literal(-2)))
        CFI DPH0 load(1, XDATA, add(CFA_XSP16, literal(-1)))
        CFI CFA_SP SP+0
        CFI CFA_XSP16 add(XSP16, 20)
        CFI Block cfiCond24 Using cfiCommon0
        CFI (cfiCond24) NoFunction
        CFI (cfiCond24) Conditional ??CrossCallReturnLabel_13
        CFI (cfiCond24) R6 load(1, XDATA, add(CFA_XSP16, literal(-9)))
        CFI (cfiCond24) VB load(1, XDATA, add(CFA_XSP16, literal(-8)))
        CFI (cfiCond24) V0 load(1, XDATA, add(CFA_XSP16, literal(-7)))
        CFI (cfiCond24) R7 load(1, XDATA, add(CFA_XSP16, literal(-6)))
        CFI (cfiCond24) ?RET_LOW load(1, XDATA, add(CFA_XSP16, literal(-5)))
        CFI (cfiCond24) ?RET_HIGH load(1, XDATA, add(CFA_XSP16, literal(-4)))
        CFI (cfiCond24) ?BRET_EXT load(1, XDATA, add(CFA_XSP16, literal(-3)))
        CFI (cfiCond24) DPL0 load(1, XDATA, add(CFA_XSP16, literal(-2)))
        CFI (cfiCond24) DPH0 load(1, XDATA, add(CFA_XSP16, literal(-1)))
        CFI (cfiCond24) CFA_SP SP+0
        CFI (cfiCond24) CFA_XSP16 add(XSP16, 9)
        CFI Block cfiCond25 Using cfiCommon0
        CFI (cfiCond25) NoFunction
        CFI (cfiCond25) Conditional ??CrossCallReturnLabel_14, ??CrossCallReturnLabel_8
        CFI (cfiCond25) R6 load(1, XDATA, add(CFA_XSP16, literal(-9)))
        CFI (cfiCond25) VB load(1, XDATA, add(CFA_XSP16, literal(-8)))
        CFI (cfiCond25) V0 load(1, XDATA, add(CFA_XSP16, literal(-7)))
        CFI (cfiCond25) R7 load(1, XDATA, add(CFA_XSP16, literal(-6)))
        CFI (cfiCond25) ?RET_LOW load(1, XDATA, add(CFA_XSP16, literal(-5)))
        CFI (cfiCond25) ?RET_HIGH load(1, XDATA, add(CFA_XSP16, literal(-4)))
        CFI (cfiCond25) ?BRET_EXT load(1, XDATA, add(CFA_XSP16, literal(-3)))
        CFI (cfiCond25) DPL0 load(1, XDATA, add(CFA_XSP16, literal(-2)))
        CFI (cfiCond25) DPH0 load(1, XDATA, add(CFA_XSP16, literal(-1)))
        CFI (cfiCond25) CFA_SP SP+0
        CFI (cfiCond25) CFA_XSP16 add(XSP16, 9)
        CFI Block cfiCond26 Using cfiCommon0
        CFI (cfiCond26) NoFunction
        CFI (cfiCond26) Conditional ??CrossCallReturnLabel_14, ??CrossCallReturnLabel_9
        CFI (cfiCond26) R6 load(1, XDATA, add(CFA_XSP16, literal(-11)))
        CFI (cfiCond26) VB load(1, XDATA, add(CFA_XSP16, literal(-10)))
        CFI (cfiCond26) V0 load(1, XDATA, add(CFA_XSP16, literal(-9)))
        CFI (cfiCond26) V1 load(1, XDATA, add(CFA_XSP16, literal(-8)))
        CFI (cfiCond26) V2 load(1, XDATA, add(CFA_XSP16, literal(-7)))
        CFI (cfiCond26) R7 load(1, XDATA, add(CFA_XSP16, literal(-6)))
        CFI (cfiCond26) ?RET_LOW load(1, XDATA, add(CFA_XSP16, literal(-5)))
        CFI (cfiCond26) ?RET_HIGH load(1, XDATA, add(CFA_XSP16, literal(-4)))
        CFI (cfiCond26) ?BRET_EXT load(1, XDATA, add(CFA_XSP16, literal(-3)))
        CFI (cfiCond26) DPL0 load(1, XDATA, add(CFA_XSP16, literal(-2)))
        CFI (cfiCond26) DPH0 load(1, XDATA, add(CFA_XSP16, literal(-1)))
        CFI (cfiCond26) CFA_SP SP+0
        CFI (cfiCond26) CFA_XSP16 add(XSP16, 11)
        CFI Block cfiPicker27 Using cfiCommon1
        CFI (cfiPicker27) NoFunction
        CFI (cfiPicker27) Picker
        LCALL   ??NLME_PermitJoiningRequest?relay
        MOV     DPTR,#s_allow_join_rem_s
        RET
        CFI EndBlock cfiCond23
        CFI EndBlock cfiCond24
        CFI EndBlock cfiCond25
        CFI EndBlock cfiCond26
        CFI EndBlock cfiPicker27
//  139 

        RSEG BANKED_CODE:CODE:NOROOT(0)
//  140 zb_node_t *zb_net_find(uint16 nodeid)
zb_net_find:
        CFI Block cfiBlock28 Using cfiCommon0
        CFI Function zb_net_find
        CODE
//  141 {
        FUNCALL zb_net_find, find_slot
        LOCFRAME ISTACK, 2, STACK
        LOCFRAME PSTACK, 0, STACK
        LOCFRAME XSTACK, 0, STACK
        LOCFRAME IOVERLAY, 0, STATIC
        LOCFRAME DOVERLAY, 0, STATIC
        ARGFRAME ISTACK, 2, STACK
        ARGFRAME PSTACK, 0, STACK
        ARGFRAME XSTACK, 0, STACK
        ARGFRAME IOVERLAY, 0, STATIC
        ARGFRAME DOVERLAY, 0, STATIC
        PUSH    DPL
        CFI DPL0 Frame(CFA_SP, 4)
        CFI CFA_SP SP+-4
        PUSH    DPH
        CFI DPH0 Frame(CFA_SP, 5)
        CFI CFA_SP SP+-5
        ; Saved register size: 2
        ; Auto size: 0
//  142     return find_slot(nodeid);
        ; Setup parameters for call to function find_slot
        LCALL   ??find_slot?relay
        LJMP    ?Subroutine0 & 0xFFFF
        CFI EndBlock cfiBlock28
//  143 }
//  144 

        RSEG BANKED_CODE:CODE:NOROOT(0)
//  145 zb_node_t *zb_net_touch(uint16 nodeid, const uint8 *ieee, uint8 type, int8 rssi)
zb_net_touch:
        CFI Block cfiBlock29 Using cfiCommon0
        CFI Function zb_net_touch
        CODE
//  146 {
        FUNCALL zb_net_touch, find_slot
        LOCFRAME ISTACK, 0, STACK
        LOCFRAME PSTACK, 0, STACK
        LOCFRAME XSTACK, 16, STACK
        LOCFRAME IOVERLAY, 0, STATIC
        LOCFRAME DOVERLAY, 0, STATIC
        ARGFRAME ISTACK, 0, STACK
        ARGFRAME PSTACK, 0, STACK
        ARGFRAME XSTACK, 16, STACK
        ARGFRAME IOVERLAY, 0, STATIC
        ARGFRAME DOVERLAY, 0, STATIC
        FUNCALL zb_net_touch, alloc_slot
        LOCFRAME ISTACK, 0, STACK
        LOCFRAME PSTACK, 0, STACK
        LOCFRAME XSTACK, 16, STACK
        LOCFRAME IOVERLAY, 0, STATIC
        LOCFRAME DOVERLAY, 0, STATIC
        ARGFRAME ISTACK, 0, STACK
        ARGFRAME PSTACK, 0, STACK
        ARGFRAME XSTACK, 16, STACK
        ARGFRAME IOVERLAY, 0, STATIC
        ARGFRAME DOVERLAY, 0, STATIC
        FUNCALL zb_net_touch, osal_memcpy
        LOCFRAME ISTACK, 0, STACK
        LOCFRAME PSTACK, 0, STACK
        LOCFRAME XSTACK, 19, STACK
        LOCFRAME IOVERLAY, 0, STATIC
        LOCFRAME DOVERLAY, 0, STATIC
        ARGFRAME ISTACK, 0, STACK
        ARGFRAME PSTACK, 0, STACK
        ARGFRAME XSTACK, 19, STACK
        ARGFRAME IOVERLAY, 0, STATIC
        ARGFRAME DOVERLAY, 0, STATIC
        FUNCALL zb_net_touch, osal_GetSystemClock
        LOCFRAME ISTACK, 0, STACK
        LOCFRAME PSTACK, 0, STACK
        LOCFRAME XSTACK, 16, STACK
        LOCFRAME IOVERLAY, 0, STATIC
        LOCFRAME DOVERLAY, 0, STATIC
        ARGFRAME ISTACK, 0, STACK
        ARGFRAME PSTACK, 0, STACK
        ARGFRAME XSTACK, 16, STACK
        ARGFRAME IOVERLAY, 0, STATIC
        ARGFRAME DOVERLAY, 0, STATIC
        MOV     A,#-0x10
        LCALL   ?BANKED_ENTER_XDATA
        CFI DPH0 load(1, XDATA, add(CFA_XSP16, literal(-1)))
        CFI DPL0 load(1, XDATA, add(CFA_XSP16, literal(-2)))
        CFI ?BRET_EXT load(1, XDATA, add(CFA_XSP16, literal(-3)))
        CFI ?RET_HIGH load(1, XDATA, add(CFA_XSP16, literal(-4)))
        CFI ?RET_LOW load(1, XDATA, add(CFA_XSP16, literal(-5)))
        CFI R7 load(1, XDATA, add(CFA_XSP16, literal(-6)))
        CFI V7 load(1, XDATA, add(CFA_XSP16, literal(-7)))
        CFI V6 load(1, XDATA, add(CFA_XSP16, literal(-8)))
        CFI V5 load(1, XDATA, add(CFA_XSP16, literal(-9)))
        CFI V4 load(1, XDATA, add(CFA_XSP16, literal(-10)))
        CFI V3 load(1, XDATA, add(CFA_XSP16, literal(-11)))
        CFI V2 load(1, XDATA, add(CFA_XSP16, literal(-12)))
        CFI V1 load(1, XDATA, add(CFA_XSP16, literal(-13)))
        CFI V0 load(1, XDATA, add(CFA_XSP16, literal(-14)))
        CFI VB load(1, XDATA, add(CFA_XSP16, literal(-15)))
        CFI R6 load(1, XDATA, add(CFA_XSP16, literal(-16)))
        CFI CFA_SP SP+0
        CFI CFA_XSP16 add(XSP16, 16)
        ; Saved register size: 16
        ; Auto size: 0
        MOV     ?V0 + 4,R2
        MOV     ?V0 + 5,R3
        MOV     ?V0 + 0,R4
        MOV     ?V0 + 1,R5
        MOV     ?V0 + 2,R1
        MOV     A,#0x10
        LCALL   ?XSTACK_DISP0_8
        MOVX    A,@DPTR
        MOV     ?V0 + 3,A
//  147     zb_node_t *n;
//  148 
//  149     n = find_slot(nodeid);
        ; Setup parameters for call to function find_slot
        LCALL   ??find_slot?relay
        MOV     ?V0 + 6,R2
        MOV     ?V0 + 7,R3
        MOV     R6,?V0 + 6
        MOV     R7,?V0 + 7
//  150     if (n == 0) {
        MOV     A,R6
        ORL     A,R7
        JNZ     ??zb_net_touch_0
//  151         n = alloc_slot();
        ; Setup parameters for call to function alloc_slot
        LCALL   ??alloc_slot?relay
        MOV     ?V0 + 6,R2
        MOV     ?V0 + 7,R3
        MOV     R6,?V0 + 6
        MOV     R7,?V0 + 7
//  152     }
//  153     if (n == 0) {
??zb_net_touch_0:
        MOV     A,R6
        ORL     A,R7
        JNZ     ??zb_net_touch_1
//  154         return 0;
        MOV     R2,#0x0
        MOV     R3,#0x0
        LJMP    ??zb_net_touch_2 & 0xFFFF
//  155     }
//  156 
//  157     n->nodeid = nodeid;
??zb_net_touch_1:
        MOV     DPL,R6
        MOV     DPH,R7
        MOV     A,?V0 + 4
        MOVX    @DPTR,A
        INC     DPTR
        MOV     A,?V0 + 5
        MOVX    @DPTR,A
//  158     if (ieee != 0) {
        MOV     A,?V0 + 0
        ORL     A,?V0 + 1
        JZ      ??zb_net_touch_3
//  159         osal_memcpy(n->ieee, ieee, 8);
        ; Setup parameters for call to function osal_memcpy
        MOV     ?V0 + 4,?V0 + 0
        MOV     ?V0 + 5,?V0 + 1
        MOV     ?V0 + 6,#0x0
        MOV     R0,#?V0 + 4
        LCALL   ?PUSH_XSTACK_I_THREE
        CFI CFA_XSP16 add(XSP16, 19)
        MOV     R4,#0x8
        MOV     R5,#0x0
        MOV     A,R6
        ADD     A,#0x2
        MOV     R2,A
        MOV     A,R7
        ADDC    A,#0x0
        MOV     R3,A
        LCALL   ??osal_memcpy?relay
        MOV     A,#0x3
        LCALL   ?DEALLOC_XSTACK8
        CFI CFA_XSP16 add(XSP16, 16)
//  160     }
//  161     if (type != ZB_DEV_UNKNOWN) {
??zb_net_touch_3:
        MOV     A,?V0 + 2
        JZ      ??zb_net_touch_4
//  162         n->type = type;
        MOV     DPL,R6
        MOV     DPH,R7
        INC     DPTR
        INC     DPTR
        INC     DPTR
        INC     DPTR
        INC     DPTR
        INC     DPTR
        INC     DPTR
        INC     DPTR
        INC     DPTR
        INC     DPTR
        MOVX    @DPTR,A
//  163     }
//  164     n->rssi = rssi;
??zb_net_touch_4:
        MOV     A,R6
        ADD     A,#0xc
        MOV     DPL,A
        MOV     A,R7
        ADDC    A,#0x0
        MOV     DPH,A
        MOV     A,?V0 + 3
        MOVX    @DPTR,A
//  165     n->last_seen_ms = osal_GetSystemClock();
        ; Setup parameters for call to function osal_GetSystemClock
        LCALL   ??osal_GetSystemClock?relay
        MOV     A,R6
        ADD     A,#0xd
        MOV     DPL,A
        MOV     A,R7
        ADDC    A,#0x0
        MOV     DPH,A
        LCALL   ?XSTORE_R2345
//  166     n->flags |= 0x01u;
        MOV     A,R6
        ADD     A,#0x11
        MOV     DPL,A
        MOV     A,R7
        ADDC    A,#0x0
        MOV     DPH,A
        MOVX    A,@DPTR
        SETB    0xE0 /* A   */.0
        MOVX    @DPTR,A
//  167     n->miss_cnt = 0;
        MOV     A,R6
        ADD     A,#0x12
        MOV     DPL,A
        MOV     A,R7
        ADDC    A,#0x0
        MOV     DPH,A
        CLR     A
        MOVX    @DPTR,A
//  168     return n;
        MOV     A,R6
        MOV     R2,A
        MOV     A,R7
        MOV     R3,A
??zb_net_touch_2:
        LJMP    ?Subroutine1 & 0xFFFF
        CFI EndBlock cfiBlock29
//  169 }
//  170 

        RSEG BANKED_CODE:CODE:NOROOT(0)
//  171 const zb_node_t *zb_net_find_by_role(uint8 role)
zb_net_find_by_role:
        CFI Block cfiBlock30 Using cfiCommon0
        CFI Function zb_net_find_by_role
        CODE
//  172 {
        PUSH    DPL
        CFI DPL0 Frame(CFA_SP, 4)
        CFI CFA_SP SP+-4
        PUSH    DPH
        CFI DPH0 Frame(CFA_SP, 5)
        CFI CFA_SP SP+-5
        ; Saved register size: 2
        ; Auto size: 0
//  173     uint8 i;
//  174 
//  175     for (i = 0; i < s_node_cnt; ++i) {
        MOV     R4,#0x0
        SJMP    ??zb_net_find_by_role_0
??zb_net_find_by_role_1:
        INC     R4
??zb_net_find_by_role_0:
        MOV     DPTR,#s_node_cnt
        MOVX    A,@DPTR
        MOV     R0,A
        MOV     A,R4
        CLR     C
        SUBB    A,R0
        JNC     ??zb_net_find_by_role_2
//  176         if (s_nodes[i].role == role) {
        MOV     A,R4
        MOV     B,#0x1b
        MUL     AB
        MOV     R2,A
        MOV     R3,B
        MOV     A,#(s_nodes + 11) & 0xff
        ADD     A,R2
        MOV     DPL,A
        MOV     A,#((s_nodes + 11) >> 8) & 0xff
        ADDC    A,R3
        MOV     DPH,A
        MOVX    A,@DPTR
        XRL     A,R1
        JNZ     ??zb_net_find_by_role_1
//  177             return &s_nodes[i];
        LCALL   ??Subroutine10_0 & 0xFFFF
//  178         }
//  179     }
??CrossCallReturnLabel_15:
        SJMP    ??zb_net_find_by_role_3
//  180     return 0;
??zb_net_find_by_role_2:
        MOV     R2,#0x0
        MOV     R3,#0x0
        CFI EndBlock cfiBlock30
??zb_net_find_by_role_3:
        REQUIRE ?Subroutine0
        ; // Fall through to label ?Subroutine0
//  181 }

        RSEG BANKED_CODE:CODE:NOROOT(0)
?Subroutine0:
        CFI Block cfiBlock31 Using cfiCommon0
        CFI NoFunction
        CFI CFA_SP SP+-5
        CFI DPL0 Frame(CFA_SP, 4)
        CFI DPH0 Frame(CFA_SP, 5)
        POP     DPH
        CFI CFA_SP SP+-4
        CFI DPH0 SameValue
        POP     DPL
        CFI CFA_SP SP+-3
        CFI DPL0 SameValue
        LJMP    ?BRET
        CFI EndBlock cfiBlock31
//  182 

        RSEG BANKED_CODE:CODE:NOROOT(0)
//  183 uint8 zb_net_count(void)
zb_net_count:
        CFI Block cfiBlock32 Using cfiCommon0
        CFI Function zb_net_count
        CODE
//  184 {
        PUSH    DPL
        CFI DPL0 Frame(CFA_SP, 4)
        CFI CFA_SP SP+-4
        PUSH    DPH
        CFI DPH0 Frame(CFA_SP, 5)
        CFI CFA_SP SP+-5
        ; Saved register size: 2
        ; Auto size: 0
//  185     return s_node_cnt;
        MOV     DPTR,#s_node_cnt
        MOVX    A,@DPTR
        MOV     R1,A
        SJMP    ?Subroutine0
        CFI EndBlock cfiBlock32
//  186 }
//  187 

        RSEG BANKED_CODE:CODE:NOROOT(0)
//  188 uint8 zb_net_online_count(void)
zb_net_online_count:
        CFI Block cfiBlock33 Using cfiCommon0
        CFI Function zb_net_online_count
        CODE
//  189 {
        PUSH    DPL
        CFI DPL0 Frame(CFA_SP, 4)
        CFI CFA_SP SP+-4
        PUSH    DPH
        CFI DPH0 Frame(CFA_SP, 5)
        CFI CFA_SP SP+-5
        ; Saved register size: 2
        ; Auto size: 0
//  190     uint8 i;
//  191     uint8 cnt = 0;
        MOV     R1,#0x0
//  192 
//  193     for (i = 0; i < s_node_cnt; ++i) {
        MOV     R4,#0x0
        SJMP    ??zb_net_online_count_0
//  194         if (s_nodes[i].flags & 0x01u) {
??zb_net_online_count_1:
        MOV     A,R4
        MOV     B,#0x1b
        MUL     AB
        MOV     R2,A
        MOV     R3,B
        MOV     A,#(s_nodes + 17) & 0xff
        ADD     A,R2
        MOV     DPL,A
        MOV     A,#((s_nodes + 17) >> 8) & 0xff
        ADDC    A,R3
        MOV     DPH,A
        MOVX    A,@DPTR
        MOV     C,0xE0 /* A   */.0
        JNC     ??zb_net_online_count_2
//  195             cnt++;
        INC     R1
//  196         }
//  197     }
??zb_net_online_count_2:
        INC     R4
??zb_net_online_count_0:
        MOV     DPTR,#s_node_cnt
        MOVX    A,@DPTR
        MOV     R0,A
        MOV     A,R4
        CLR     C
        SUBB    A,R0
        JC      ??zb_net_online_count_1
//  198     return cnt;
        SJMP    ?Subroutine0
        CFI EndBlock cfiBlock33
//  199 }
//  200 

        RSEG BANKED_CODE:CODE:NOROOT(0)
//  201 const zb_node_t *zb_net_at(uint8 idx)
zb_net_at:
        CFI Block cfiBlock34 Using cfiCommon0
        CFI Function zb_net_at
        CODE
//  202 {
        PUSH    DPL
        CFI DPL0 Frame(CFA_SP, 4)
        CFI CFA_SP SP+-4
        PUSH    DPH
        CFI DPH0 Frame(CFA_SP, 5)
        CFI CFA_SP SP+-5
        ; Saved register size: 2
        ; Auto size: 0
//  203     if (idx >= s_node_cnt) {
        MOV     DPTR,#s_node_cnt
        MOVX    A,@DPTR
        MOV     R0,A
        MOV     A,R1
        CLR     C
        SUBB    A,R0
        JC      ??zb_net_at_0
//  204         return 0;
        MOV     R2,#0x0
        MOV     R3,#0x0
        SJMP    ??CrossCallReturnLabel_17
//  205     }
//  206     return &s_nodes[idx];
??zb_net_at_0:
        MOV     A,R1
        MOV     B,#0x1b
        LCALL   ?Subroutine6 & 0xFFFF
??CrossCallReturnLabel_17:
        SJMP    ?Subroutine0
        CFI EndBlock cfiBlock34
//  207 }
//  208 

        RSEG BANKED_CODE:CODE:NOROOT(0)
//  209 void zb_net_mark_offline(uint16 nodeid)
zb_net_mark_offline:
        CFI Block cfiBlock35 Using cfiCommon0
        CFI Function zb_net_mark_offline
        CODE
//  210 {
        FUNCALL zb_net_mark_offline, find_slot
        LOCFRAME ISTACK, 0, STACK
        LOCFRAME PSTACK, 0, STACK
        LOCFRAME XSTACK, 10, STACK
        LOCFRAME IOVERLAY, 0, STATIC
        LOCFRAME DOVERLAY, 0, STATIC
        ARGFRAME ISTACK, 0, STACK
        ARGFRAME PSTACK, 0, STACK
        ARGFRAME XSTACK, 10, STACK
        ARGFRAME IOVERLAY, 0, STATIC
        ARGFRAME DOVERLAY, 0, STATIC
        FUNCALL zb_net_mark_offline, GwCoord_SendNodeInfo
        LOCFRAME ISTACK, 0, STACK
        LOCFRAME PSTACK, 0, STACK
        LOCFRAME XSTACK, 10, STACK
        LOCFRAME IOVERLAY, 0, STATIC
        LOCFRAME DOVERLAY, 0, STATIC
        ARGFRAME ISTACK, 0, STACK
        ARGFRAME PSTACK, 0, STACK
        ARGFRAME XSTACK, 10, STACK
        ARGFRAME IOVERLAY, 0, STATIC
        ARGFRAME DOVERLAY, 0, STATIC
        FUNCALL zb_net_mark_offline, GwCoord_SendNetStatus
        LOCFRAME ISTACK, 0, STACK
        LOCFRAME PSTACK, 0, STACK
        LOCFRAME XSTACK, 10, STACK
        LOCFRAME IOVERLAY, 0, STATIC
        LOCFRAME DOVERLAY, 0, STATIC
        ARGFRAME ISTACK, 0, STACK
        ARGFRAME PSTACK, 0, STACK
        ARGFRAME XSTACK, 10, STACK
        ARGFRAME IOVERLAY, 0, STATIC
        ARGFRAME DOVERLAY, 0, STATIC
        MOV     A,#-0xa
        LCALL   ?BANKED_ENTER_XDATA
        CFI DPH0 load(1, XDATA, add(CFA_XSP16, literal(-1)))
        CFI DPL0 load(1, XDATA, add(CFA_XSP16, literal(-2)))
        CFI ?BRET_EXT load(1, XDATA, add(CFA_XSP16, literal(-3)))
        CFI ?RET_HIGH load(1, XDATA, add(CFA_XSP16, literal(-4)))
        CFI ?RET_LOW load(1, XDATA, add(CFA_XSP16, literal(-5)))
        CFI R7 load(1, XDATA, add(CFA_XSP16, literal(-6)))
        CFI V1 load(1, XDATA, add(CFA_XSP16, literal(-7)))
        CFI V0 load(1, XDATA, add(CFA_XSP16, literal(-8)))
        CFI VB load(1, XDATA, add(CFA_XSP16, literal(-9)))
        CFI R6 load(1, XDATA, add(CFA_XSP16, literal(-10)))
        CFI CFA_SP SP+0
        CFI CFA_XSP16 add(XSP16, 10)
        ; Saved register size: 10
        ; Auto size: 0
//  211     zb_node_t *n;
//  212 
//  213     n = find_slot(nodeid);
        ; Setup parameters for call to function find_slot
        LCALL   ??find_slot?relay
//  214     if (n == 0) {
        MOV     A,R2
        ORL     A,R3
        JZ      ??zb_net_mark_offline_0
//  215         return;
//  216     }
//  217     if ((n->flags & 0x01u) == 0u) {
        MOV     A,R2
        ADD     A,#0x11
        MOV     DPL,A
        MOV     A,R3
        ADDC    A,#0x0
        MOV     DPH,A
        MOVX    A,@DPTR
        MOV     C,0xE0 /* A   */.0
        JNC     ??zb_net_mark_offline_0
//  218         return;
//  219     }
//  220 
//  221     n->flags &= (uint8)~0x01u;
        CLR     0xE0 /* A   */.0
        MOVX    @DPTR,A
//  222     GwCoord_SendNodeInfo(n);
        ; Setup parameters for call to function GwCoord_SendNodeInfo
        LCALL   ??GwCoord_SendNodeInfo?relay
//  223     GwCoord_SendNetStatus();
        ; Setup parameters for call to function GwCoord_SendNetStatus
        LCALL   ??GwCoord_SendNetStatus?relay
        CFI EndBlock cfiBlock35
//  224 }
??zb_net_mark_offline_0:
        REQUIRE ?Subroutine2
        ; // Fall through to label ?Subroutine2

        RSEG BANKED_CODE:CODE:NOROOT(0)
?Subroutine2:
        CFI Block cfiBlock36 Using cfiCommon0
        CFI NoFunction
        CFI CFA_SP SP+0
        CFI CFA_XSP16 add(XSP16, 10)
        CFI VB load(1, XDATA, add(CFA_XSP16, literal(-9)))
        CFI DPL0 load(1, XDATA, add(CFA_XSP16, literal(-2)))
        CFI DPH0 load(1, XDATA, add(CFA_XSP16, literal(-1)))
        CFI R6 load(1, XDATA, add(CFA_XSP16, literal(-10)))
        CFI R7 load(1, XDATA, add(CFA_XSP16, literal(-6)))
        CFI V0 load(1, XDATA, add(CFA_XSP16, literal(-8)))
        CFI V1 load(1, XDATA, add(CFA_XSP16, literal(-7)))
        CFI ?BRET_EXT load(1, XDATA, add(CFA_XSP16, literal(-3)))
        CFI ?RET_HIGH load(1, XDATA, add(CFA_XSP16, literal(-4)))
        CFI ?RET_LOW load(1, XDATA, add(CFA_XSP16, literal(-5)))
        MOV     R7,#0x2
        LJMP    ?BANKED_LEAVE_XDATA
        CFI EndBlock cfiBlock36
//  225 

        RSEG BANKED_CODE:CODE:NOROOT(0)
//  226 int8 zb_net_send_onoff(uint16 nodeid, uint8 ep, uint8 onoff)
zb_net_send_onoff:
        CFI Block cfiBlock37 Using cfiCommon0
        CFI Function zb_net_send_onoff
        CODE
//  227 {
        FUNCALL zb_net_send_onoff, osal_memset
        LOCFRAME ISTACK, 0, STACK
        LOCFRAME PSTACK, 0, STACK
        LOCFRAME XSTACK, 27, STACK
        LOCFRAME IOVERLAY, 0, STATIC
        LOCFRAME DOVERLAY, 0, STATIC
        ARGFRAME ISTACK, 0, STACK
        ARGFRAME PSTACK, 0, STACK
        ARGFRAME XSTACK, 27, STACK
        ARGFRAME IOVERLAY, 0, STATIC
        ARGFRAME DOVERLAY, 0, STATIC
        FUNCALL zb_net_send_onoff, afFindEndPointDesc
        LOCFRAME ISTACK, 0, STACK
        LOCFRAME PSTACK, 0, STACK
        LOCFRAME XSTACK, 27, STACK
        LOCFRAME IOVERLAY, 0, STATIC
        LOCFRAME DOVERLAY, 0, STATIC
        ARGFRAME ISTACK, 0, STACK
        ARGFRAME PSTACK, 0, STACK
        ARGFRAME XSTACK, 27, STACK
        ARGFRAME IOVERLAY, 0, STATIC
        ARGFRAME DOVERLAY, 0, STATIC
        FUNCALL zb_net_send_onoff, AF_DataRequest
        LOCFRAME ISTACK, 0, STACK
        LOCFRAME PSTACK, 0, STACK
        LOCFRAME XSTACK, 36, STACK
        LOCFRAME IOVERLAY, 0, STATIC
        LOCFRAME DOVERLAY, 0, STATIC
        ARGFRAME ISTACK, 0, STACK
        ARGFRAME PSTACK, 0, STACK
        ARGFRAME XSTACK, 36, STACK
        ARGFRAME IOVERLAY, 0, STATIC
        ARGFRAME DOVERLAY, 0, STATIC
        MOV     A,#-0xc
        LCALL   ?BANKED_ENTER_XDATA
        CFI DPH0 load(1, XDATA, add(CFA_XSP16, literal(-1)))
        CFI DPL0 load(1, XDATA, add(CFA_XSP16, literal(-2)))
        CFI ?BRET_EXT load(1, XDATA, add(CFA_XSP16, literal(-3)))
        CFI ?RET_HIGH load(1, XDATA, add(CFA_XSP16, literal(-4)))
        CFI ?RET_LOW load(1, XDATA, add(CFA_XSP16, literal(-5)))
        CFI R7 load(1, XDATA, add(CFA_XSP16, literal(-6)))
        CFI V3 load(1, XDATA, add(CFA_XSP16, literal(-7)))
        CFI V2 load(1, XDATA, add(CFA_XSP16, literal(-8)))
        CFI V1 load(1, XDATA, add(CFA_XSP16, literal(-9)))
        CFI V0 load(1, XDATA, add(CFA_XSP16, literal(-10)))
        CFI VB load(1, XDATA, add(CFA_XSP16, literal(-11)))
        CFI R6 load(1, XDATA, add(CFA_XSP16, literal(-12)))
        CFI CFA_SP SP+0
        CFI CFA_XSP16 add(XSP16, 12)
        ; Saved register size: 12
        ; Auto size: 15
        MOV     A,#-0xf
        LCALL   ?ALLOC_XSTACK8
        CFI CFA_XSP16 add(XSP16, 27)
        MOV     A,R2
        MOV     R6,A
        MOV     A,R3
        MOV     R7,A
        MOV     ?V0 + 2,R1
        MOV     ?V0 + 3,R4
//  228     afAddrType_t dst;
//  229     uint8 zcl_buf[3];
//  230     static uint8 s_zcl_seq = 0;
//  231     uint8 rc;
//  232     endPointDesc_t *ep_desc;
//  233 
//  234     osal_memset(&dst, 0, sizeof(dst));
        ; Setup parameters for call to function osal_memset
        MOV     R4,#0xc
        MOV     R5,#0x0
        MOV     R1,#0x0
        MOV     A,#0x3
        LCALL   ?XSTACK_DISP0_8
        MOV     R2,DPL
        MOV     R3,DPH
        LCALL   ??osal_memset?relay
//  235     dst.addrMode = (afAddrMode_t)Addr16Bit;
        MOV     A,#0xb
        LCALL   ?XSTACK_DISP0_8
        MOV     A,#0x2
        MOVX    @DPTR,A
//  236     dst.addr.shortAddr = nodeid;
        INC     A
        LCALL   ?XSTACK_DISP0_8
        MOV     A,R6
        MOVX    @DPTR,A
        INC     DPTR
        MOV     A,R7
        MOVX    @DPTR,A
//  237     dst.endPoint = ep;
        MOV     A,#0xc
        LCALL   ?XSTACK_DISP0_8
        MOV     A,?V0 + 2
        MOVX    @DPTR,A
//  238 
//  239     zcl_buf[0] = 0x01;
        MOV     DPL,?XSP + 0
        MOV     DPH,?XSP + 1
        MOV     A,#0x1
        MOVX    @DPTR,A
//  240     zcl_buf[1] = ++s_zcl_seq;
        MOV     DPTR,#??s_zcl_seq
        MOVX    A,@DPTR
        INC     A
        MOVX    @DPTR,A
        PUSH    A
        CFI CFA_SP SP+-1
        MOV     A,#0x1
        LCALL   ?XSTACK_DISP0_8
        POP     A
        CFI CFA_SP SP+0
        MOVX    @DPTR,A
//  241     zcl_buf[2] = onoff ? 0x01 : 0x00;
        MOV     A,?V0 + 3
        JZ      ??zb_net_send_onoff_0
        MOV     A,#0x2
        LCALL   ?XSTACK_DISP0_8
        MOV     A,#0x1
        SJMP    ??zb_net_send_onoff_1
??zb_net_send_onoff_0:
        MOV     A,#0x2
        LCALL   ?XSTACK_DISP0_8
        CLR     A
??zb_net_send_onoff_1:
        MOVX    @DPTR,A
//  242 
//  243     ep_desc = afFindEndPointDesc(GWCOORD_ENDPOINT);
        ; Setup parameters for call to function afFindEndPointDesc
        MOV     R1,#0x1
        LCALL   ??afFindEndPointDesc?relay
        MOV     ?V0 + 0,R2
        MOV     ?V0 + 1,R3
        MOV     R4,?V0 + 0
        MOV     R5,?V0 + 1
//  244     if (ep_desc == 0) {
        MOV     A,R4
        ORL     A,R5
        JZ      ??zb_net_send_onoff_2
//  245         return (int8)RC_ERR_PARAM;
//  246     }
//  247 
//  248     rc = AF_DataRequest(&dst, ep_desc, ZCL_CLU_ONOFF,
//  249                         sizeof(zcl_buf), zcl_buf,
//  250                         &s_zcl_seq, AF_DISCV_ROUTE, AF_DEFAULT_RADIUS);
//  251     return (rc == afStatus_SUCCESS) ? 0 : (int8)-1;
        ; Setup parameters for call to function AF_DataRequest
        MOV     ?V0 + 0,#0x1e
        MOV     R0,#?V0 + 0
        LCALL   ?PUSH_XSTACK_I_ONE
        CFI CFA_XSP16 add(XSP16, 28)
        MOV     ?V0 + 0,#??s_zcl_seq & 0xff
        MOV     ?V0 + 1,#(??s_zcl_seq >> 8) & 0xff
        MOV     R0,#?V0 + 0
        LCALL   ?PUSH_XSTACK_I_TWO
        CFI CFA_XSP16 add(XSP16, 30)
        MOV     A,#0x3
        LCALL   ?XSTACK_DISP0_8
        MOV     ?V0 + 0,DPL
        MOV     ?V0 + 1,DPH
        MOV     R0,#?V0 + 0
        LCALL   ?PUSH_XSTACK_I_TWO
        CFI CFA_XSP16 add(XSP16, 32)
        MOV     ?V0 + 0,#0x3
        MOV     ?V0 + 1,#0x0
        MOV     R0,#?V0 + 0
        LCALL   ?PUSH_XSTACK_I_TWO
        CFI CFA_XSP16 add(XSP16, 34)
        MOV     ?V0 + 0,#0x6
        MOV     R0,#?V0 + 0
        LCALL   ?PUSH_XSTACK_I_TWO
        CFI CFA_XSP16 add(XSP16, 36)
        MOV     R1,#0x20
        MOV     A,#0xc
        LCALL   ?XSTACK_DISP0_8
        MOV     R2,DPL
        MOV     R3,DPH
        LCALL   ??AF_DataRequest?relay
        MOV     A,#0x9
        LCALL   ?DEALLOC_XSTACK8
        CFI CFA_XSP16 add(XSP16, 27)
        MOV     A,R1
        JNZ     ??zb_net_send_onoff_2
        MOV     R1,#0x0
        SJMP    ??zb_net_send_onoff_3
??zb_net_send_onoff_2:
        MOV     R1,#-0x1
??zb_net_send_onoff_3:
        MOV     A,#0xf
        LCALL   ?DEALLOC_XSTACK8
        CFI CFA_XSP16 add(XSP16, 12)
        MOV     R7,#0x4
        LJMP    ?BANKED_LEAVE_XDATA
        CFI EndBlock cfiBlock37
//  252 }

        RSEG XDATA_Z:XDATA:NOROOT(0)
        DATA8
??s_zcl_seq:
        DS 1
        REQUIRE __INIT_XDATA_Z
//  253 

        RSEG BANKED_CODE:CODE:NOROOT(0)
//  254 void zb_net_on_state(uint8 state, uint16 panid, uint8 channel)
zb_net_on_state:
        CFI Block cfiBlock38 Using cfiCommon0
        CFI Function zb_net_on_state
        CODE
//  255 {
        FUNCALL zb_net_on_state, GwCoord_SendNetStatus
        LOCFRAME ISTACK, 0, STACK
        LOCFRAME PSTACK, 0, STACK
        LOCFRAME XSTACK, 11, STACK
        LOCFRAME IOVERLAY, 0, STATIC
        LOCFRAME DOVERLAY, 0, STATIC
        ARGFRAME ISTACK, 0, STACK
        ARGFRAME PSTACK, 0, STACK
        ARGFRAME XSTACK, 11, STACK
        ARGFRAME IOVERLAY, 0, STATIC
        ARGFRAME DOVERLAY, 0, STATIC
        FUNCALL zb_net_on_state, nv_save_u16
        LOCFRAME ISTACK, 0, STACK
        LOCFRAME PSTACK, 0, STACK
        LOCFRAME XSTACK, 11, STACK
        LOCFRAME IOVERLAY, 0, STATIC
        LOCFRAME DOVERLAY, 0, STATIC
        ARGFRAME ISTACK, 0, STACK
        ARGFRAME PSTACK, 0, STACK
        ARGFRAME XSTACK, 11, STACK
        ARGFRAME IOVERLAY, 0, STATIC
        ARGFRAME DOVERLAY, 0, STATIC
        FUNCALL zb_net_on_state, nv_save_u8
        LOCFRAME ISTACK, 0, STACK
        LOCFRAME PSTACK, 0, STACK
        LOCFRAME XSTACK, 11, STACK
        LOCFRAME IOVERLAY, 0, STATIC
        LOCFRAME DOVERLAY, 0, STATIC
        ARGFRAME ISTACK, 0, STACK
        ARGFRAME PSTACK, 0, STACK
        ARGFRAME XSTACK, 11, STACK
        ARGFRAME IOVERLAY, 0, STATIC
        ARGFRAME DOVERLAY, 0, STATIC
        FUNCALL zb_net_on_state, NLME_PermitJoiningRequest
        LOCFRAME ISTACK, 0, STACK
        LOCFRAME PSTACK, 0, STACK
        LOCFRAME XSTACK, 11, STACK
        LOCFRAME IOVERLAY, 0, STATIC
        LOCFRAME DOVERLAY, 0, STATIC
        ARGFRAME ISTACK, 0, STACK
        ARGFRAME PSTACK, 0, STACK
        ARGFRAME XSTACK, 11, STACK
        ARGFRAME IOVERLAY, 0, STATIC
        ARGFRAME DOVERLAY, 0, STATIC
        FUNCALL zb_net_on_state, GwCoord_SendNetStatus
        LOCFRAME ISTACK, 0, STACK
        LOCFRAME PSTACK, 0, STACK
        LOCFRAME XSTACK, 11, STACK
        LOCFRAME IOVERLAY, 0, STATIC
        LOCFRAME DOVERLAY, 0, STATIC
        ARGFRAME ISTACK, 0, STACK
        ARGFRAME PSTACK, 0, STACK
        ARGFRAME XSTACK, 11, STACK
        ARGFRAME IOVERLAY, 0, STATIC
        ARGFRAME DOVERLAY, 0, STATIC
        MOV     A,#-0xb
        LCALL   ?BANKED_ENTER_XDATA
        CFI DPH0 load(1, XDATA, add(CFA_XSP16, literal(-1)))
        CFI DPL0 load(1, XDATA, add(CFA_XSP16, literal(-2)))
        CFI ?BRET_EXT load(1, XDATA, add(CFA_XSP16, literal(-3)))
        CFI ?RET_HIGH load(1, XDATA, add(CFA_XSP16, literal(-4)))
        CFI ?RET_LOW load(1, XDATA, add(CFA_XSP16, literal(-5)))
        CFI R7 load(1, XDATA, add(CFA_XSP16, literal(-6)))
        CFI V2 load(1, XDATA, add(CFA_XSP16, literal(-7)))
        CFI V1 load(1, XDATA, add(CFA_XSP16, literal(-8)))
        CFI V0 load(1, XDATA, add(CFA_XSP16, literal(-9)))
        CFI VB load(1, XDATA, add(CFA_XSP16, literal(-10)))
        CFI R6 load(1, XDATA, add(CFA_XSP16, literal(-11)))
        CFI CFA_SP SP+0
        CFI CFA_XSP16 add(XSP16, 11)
        ; Saved register size: 11
        ; Auto size: 0
        MOV     ?V0 + 1,R1
        MOV     A,R2
        MOV     R6,A
        MOV     A,R3
        MOV     R7,A
        MOV     ?V0 + 0,R4
//  256     uint8 prev_state = s_dev_state;
        MOV     DPTR,#s_dev_state
        MOVX    A,@DPTR
        MOV     ?V0 + 2,A
//  257 
//  258     s_dev_state = state;
        MOV     A,R1
        MOVX    @DPTR,A
//  259     s_panid = panid;
        MOV     DPTR,#s_panid
        MOV     A,R6
        MOVX    @DPTR,A
        INC     DPTR
        MOV     A,R7
        MOVX    @DPTR,A
//  260     s_channel = channel;
        MOV     A,R4
        MOV     DPTR,#s_channel
        MOVX    @DPTR,A
//  261     GwCoord_SendNetStatus();
        ; Setup parameters for call to function GwCoord_SendNetStatus
        LCALL   ??GwCoord_SendNetStatus?relay
//  262 
//  263     if (state == DEV_ZB_COORD) {
        MOV     A,#0x9
        XRL     A,?V0 + 1
        JNZ     ??zb_net_on_state_0
//  264         (void)nv_save_u16(NV_ID_PANID, panid);
        ; Setup parameters for call to function nv_save_u16
        MOV     A,R6
        MOV     R4,A
        MOV     A,R7
        MOV     R5,A
        MOV     R2,#0x1
        MOV     R3,#-0x10
        LCALL   ??nv_save_u16?relay
//  265         (void)nv_save_u8(NV_ID_CHANNEL, channel);
        ; Setup parameters for call to function nv_save_u8
        MOV     R1,?V0 + 0
        MOV     R2,#0x2
        MOV     R3,#-0x10
        LCALL   ??nv_save_u8?relay
//  266 
//  267         /* 网络首次就绪时主动开 255s 入网窗，不再等 STM32 的 ZB_ALLOW_JOIN 到达。
//  268          * 原先 STM32 侧会在 zb_alive 上升沿发一次 60s 窗，但：
//  269          *   (1) 如果 STM32 送命令时 NIB 还没齐，NLME_PermitJoiningRequest 有可能被忽略；
//  270          *   (2) 节点若上电慢于这 60s，就错过了窗口再也进不来。
//  271          * 先给 255s 缓冲让节点有更长的首次入网机会；之后 zb_net_tick 里的 30s 自动再开兜底。 */
//  272         if (prev_state != DEV_ZB_COORD) {
        MOV     A,#0x9
        XRL     A,?V0 + 2
        JZ      ??zb_net_on_state_0
//  273             NLME_PermitJoiningRequest(0xFFu);      /* 注意：255 以下才是秒数，0xFF=一直开 */
        ; Setup parameters for call to function NLME_PermitJoiningRequest
        LCALL   ?Subroutine7 & 0xFFFF
//  274             s_allow_join_rem_s = 0xFFu;
??CrossCallReturnLabel_9:
        MOVX    @DPTR,A
//  275             s_reopen_window_s = 30u;
        MOV     DPTR,#s_reopen_window_s
        MOV     A,#0x1e
        MOVX    @DPTR,A
//  276             GwCoord_SendNetStatus();
        ; Setup parameters for call to function GwCoord_SendNetStatus
        LCALL   ??GwCoord_SendNetStatus?relay
//  277         }
//  278     }
//  279 }
??zb_net_on_state_0:
        MOV     R7,#0x3
        LJMP    ?BANKED_LEAVE_XDATA
        CFI EndBlock cfiBlock38

        RSEG BANKED_CODE:CODE:NOROOT(0)
?Subroutine7:
        CFI Block cfiCond39 Using cfiCommon0
        CFI NoFunction
        CFI Conditional ??CrossCallReturnLabel_8
        CFI R6 load(1, XDATA, add(CFA_XSP16, literal(-9)))
        CFI VB load(1, XDATA, add(CFA_XSP16, literal(-8)))
        CFI V0 load(1, XDATA, add(CFA_XSP16, literal(-7)))
        CFI R7 load(1, XDATA, add(CFA_XSP16, literal(-6)))
        CFI ?RET_LOW load(1, XDATA, add(CFA_XSP16, literal(-5)))
        CFI ?RET_HIGH load(1, XDATA, add(CFA_XSP16, literal(-4)))
        CFI ?BRET_EXT load(1, XDATA, add(CFA_XSP16, literal(-3)))
        CFI DPL0 load(1, XDATA, add(CFA_XSP16, literal(-2)))
        CFI DPH0 load(1, XDATA, add(CFA_XSP16, literal(-1)))
        CFI CFA_SP SP+0
        CFI CFA_XSP16 add(XSP16, 9)
        CFI Block cfiCond40 Using cfiCommon0
        CFI (cfiCond40) NoFunction
        CFI (cfiCond40) Conditional ??CrossCallReturnLabel_9
        CFI (cfiCond40) R6 load(1, XDATA, add(CFA_XSP16, literal(-11)))
        CFI (cfiCond40) VB load(1, XDATA, add(CFA_XSP16, literal(-10)))
        CFI (cfiCond40) V0 load(1, XDATA, add(CFA_XSP16, literal(-9)))
        CFI (cfiCond40) V1 load(1, XDATA, add(CFA_XSP16, literal(-8)))
        CFI (cfiCond40) V2 load(1, XDATA, add(CFA_XSP16, literal(-7)))
        CFI (cfiCond40) R7 load(1, XDATA, add(CFA_XSP16, literal(-6)))
        CFI (cfiCond40) ?RET_LOW load(1, XDATA, add(CFA_XSP16, literal(-5)))
        CFI (cfiCond40) ?RET_HIGH load(1, XDATA, add(CFA_XSP16, literal(-4)))
        CFI (cfiCond40) ?BRET_EXT load(1, XDATA, add(CFA_XSP16, literal(-3)))
        CFI (cfiCond40) DPL0 load(1, XDATA, add(CFA_XSP16, literal(-2)))
        CFI (cfiCond40) DPH0 load(1, XDATA, add(CFA_XSP16, literal(-1)))
        CFI (cfiCond40) CFA_SP SP+0
        CFI (cfiCond40) CFA_XSP16 add(XSP16, 11)
        CFI Block cfiPicker41 Using cfiCommon1
        CFI (cfiPicker41) NoFunction
        CFI (cfiPicker41) Picker
        MOV     R1,#-0x1
        LCALL   ?Subroutine9 & 0xFFFF
??CrossCallReturnLabel_14:
        MOV     A,#-0x1
        RET
        CFI EndBlock cfiCond39
        CFI EndBlock cfiCond40
        CFI EndBlock cfiPicker41
//  280 

        RSEG BANKED_CODE:CODE:NOROOT(0)
//  281 void zb_net_get_status(uint8 *state, uint8 *channel, uint16 *panid, uint8 *joined_n)
zb_net_get_status:
        CFI Block cfiBlock42 Using cfiCommon0
        CFI Function zb_net_get_status
        CODE
//  282 {
        FUNCALL zb_net_get_status, zb_net_online_count
        LOCFRAME ISTACK, 0, STACK
        LOCFRAME PSTACK, 0, STACK
        LOCFRAME XSTACK, 10, STACK
        LOCFRAME IOVERLAY, 0, STATIC
        LOCFRAME DOVERLAY, 0, STATIC
        ARGFRAME ISTACK, 0, STACK
        ARGFRAME PSTACK, 0, STACK
        ARGFRAME XSTACK, 10, STACK
        ARGFRAME IOVERLAY, 0, STATIC
        ARGFRAME DOVERLAY, 0, STATIC
        MOV     A,#-0xa
        LCALL   ?BANKED_ENTER_XDATA
        CFI DPH0 load(1, XDATA, add(CFA_XSP16, literal(-1)))
        CFI DPL0 load(1, XDATA, add(CFA_XSP16, literal(-2)))
        CFI ?BRET_EXT load(1, XDATA, add(CFA_XSP16, literal(-3)))
        CFI ?RET_HIGH load(1, XDATA, add(CFA_XSP16, literal(-4)))
        CFI ?RET_LOW load(1, XDATA, add(CFA_XSP16, literal(-5)))
        CFI R7 load(1, XDATA, add(CFA_XSP16, literal(-6)))
        CFI V1 load(1, XDATA, add(CFA_XSP16, literal(-7)))
        CFI V0 load(1, XDATA, add(CFA_XSP16, literal(-8)))
        CFI VB load(1, XDATA, add(CFA_XSP16, literal(-9)))
        CFI R6 load(1, XDATA, add(CFA_XSP16, literal(-10)))
        CFI CFA_SP SP+0
        CFI CFA_XSP16 add(XSP16, 10)
        ; Saved register size: 10
        ; Auto size: 0
        MOV     A,#0xa
        LCALL   ?XSTACK_DISP0_8
        LCALL   ?Subroutine4 & 0xFFFF
??CrossCallReturnLabel_3:
        MOV     ?V0 + 0,R0
        MOV     ?V0 + 1,R1
        MOV     A,#0xc
        LCALL   ?XSTACK_DISP0_8
        LCALL   ?Subroutine4 & 0xFFFF
??CrossCallReturnLabel_4:
        MOV     A,R0
        MOV     R6,A
        MOV     A,R1
        MOV     R7,A
//  283     if (state) {
        MOV     A,R2
        ORL     A,R3
        JZ      ??zb_net_get_status_0
//  284         *state = s_dev_state;
        MOV     DPTR,#s_dev_state
        MOVX    A,@DPTR
        MOV     DPL,R2
        MOV     DPH,R3
        MOVX    @DPTR,A
//  285     }
//  286     if (channel) {
??zb_net_get_status_0:
        MOV     A,R4
        ORL     A,R5
        JZ      ??zb_net_get_status_1
//  287         *channel = s_channel;
        MOV     DPTR,#s_channel
        MOVX    A,@DPTR
        MOV     DPL,R4
        MOV     DPH,R5
        MOVX    @DPTR,A
//  288     }
//  289     if (panid) {
??zb_net_get_status_1:
        MOV     A,?V0 + 0
        ORL     A,?V0 + 1
        JZ      ??zb_net_get_status_2
//  290         *panid = s_panid;
        MOV     DPTR,#s_panid
        LCALL   ?Subroutine4 & 0xFFFF
//  291     }
??CrossCallReturnLabel_5:
        MOV     DPL,?V0 + 0
        MOV     DPH,?V0 + 1
        MOV     A,R0
        MOVX    @DPTR,A
        INC     DPTR
        MOV     A,R1
        MOVX    @DPTR,A
//  292     if (joined_n) {
??zb_net_get_status_2:
        MOV     A,R6
        ORL     A,R7
        JZ      ??zb_net_get_status_3
//  293         *joined_n = zb_net_online_count();
        ; Setup parameters for call to function zb_net_online_count
        LCALL   ??zb_net_online_count?relay
        MOV     A,R1
        MOV     DPL,R6
        MOV     DPH,R7
        MOVX    @DPTR,A
//  294     }
//  295 }
??zb_net_get_status_3:
        LJMP    ?Subroutine2 & 0xFFFF
        CFI EndBlock cfiBlock42

        RSEG BANKED_CODE:CODE:NOROOT(0)
?Subroutine4:
        CFI Block cfiCond43 Using cfiCommon0
        CFI NoFunction
        CFI Conditional ??CrossCallReturnLabel_2
        CFI DPL0 Frame(CFA_SP, 4)
        CFI DPH0 Frame(CFA_SP, 5)
        CFI CFA_SP SP+-5
        CFI CFA_XSP16 add(XSP16, 3)
        CFI Block cfiCond44 Using cfiCommon0
        CFI (cfiCond44) NoFunction
        CFI (cfiCond44) Conditional ??CrossCallReturnLabel_3
        CFI (cfiCond44) R6 load(1, XDATA, add(CFA_XSP16, literal(-10)))
        CFI (cfiCond44) VB load(1, XDATA, add(CFA_XSP16, literal(-9)))
        CFI (cfiCond44) V0 load(1, XDATA, add(CFA_XSP16, literal(-8)))
        CFI (cfiCond44) V1 load(1, XDATA, add(CFA_XSP16, literal(-7)))
        CFI (cfiCond44) R7 load(1, XDATA, add(CFA_XSP16, literal(-6)))
        CFI (cfiCond44) ?RET_LOW load(1, XDATA, add(CFA_XSP16, literal(-5)))
        CFI (cfiCond44) ?RET_HIGH load(1, XDATA, add(CFA_XSP16, literal(-4)))
        CFI (cfiCond44) ?BRET_EXT load(1, XDATA, add(CFA_XSP16, literal(-3)))
        CFI (cfiCond44) DPL0 load(1, XDATA, add(CFA_XSP16, literal(-2)))
        CFI (cfiCond44) DPH0 load(1, XDATA, add(CFA_XSP16, literal(-1)))
        CFI (cfiCond44) CFA_SP SP+0
        CFI (cfiCond44) CFA_XSP16 add(XSP16, 10)
        CFI Block cfiCond45 Using cfiCommon0
        CFI (cfiCond45) NoFunction
        CFI (cfiCond45) Conditional ??CrossCallReturnLabel_4
        CFI (cfiCond45) R6 load(1, XDATA, add(CFA_XSP16, literal(-10)))
        CFI (cfiCond45) VB load(1, XDATA, add(CFA_XSP16, literal(-9)))
        CFI (cfiCond45) V0 load(1, XDATA, add(CFA_XSP16, literal(-8)))
        CFI (cfiCond45) V1 load(1, XDATA, add(CFA_XSP16, literal(-7)))
        CFI (cfiCond45) R7 load(1, XDATA, add(CFA_XSP16, literal(-6)))
        CFI (cfiCond45) ?RET_LOW load(1, XDATA, add(CFA_XSP16, literal(-5)))
        CFI (cfiCond45) ?RET_HIGH load(1, XDATA, add(CFA_XSP16, literal(-4)))
        CFI (cfiCond45) ?BRET_EXT load(1, XDATA, add(CFA_XSP16, literal(-3)))
        CFI (cfiCond45) DPL0 load(1, XDATA, add(CFA_XSP16, literal(-2)))
        CFI (cfiCond45) DPH0 load(1, XDATA, add(CFA_XSP16, literal(-1)))
        CFI (cfiCond45) CFA_SP SP+0
        CFI (cfiCond45) CFA_XSP16 add(XSP16, 10)
        CFI Block cfiCond46 Using cfiCommon0
        CFI (cfiCond46) NoFunction
        CFI (cfiCond46) Conditional ??CrossCallReturnLabel_5
        CFI (cfiCond46) R6 load(1, XDATA, add(CFA_XSP16, literal(-10)))
        CFI (cfiCond46) VB load(1, XDATA, add(CFA_XSP16, literal(-9)))
        CFI (cfiCond46) V0 load(1, XDATA, add(CFA_XSP16, literal(-8)))
        CFI (cfiCond46) V1 load(1, XDATA, add(CFA_XSP16, literal(-7)))
        CFI (cfiCond46) R7 load(1, XDATA, add(CFA_XSP16, literal(-6)))
        CFI (cfiCond46) ?RET_LOW load(1, XDATA, add(CFA_XSP16, literal(-5)))
        CFI (cfiCond46) ?RET_HIGH load(1, XDATA, add(CFA_XSP16, literal(-4)))
        CFI (cfiCond46) ?BRET_EXT load(1, XDATA, add(CFA_XSP16, literal(-3)))
        CFI (cfiCond46) DPL0 load(1, XDATA, add(CFA_XSP16, literal(-2)))
        CFI (cfiCond46) DPH0 load(1, XDATA, add(CFA_XSP16, literal(-1)))
        CFI (cfiCond46) CFA_SP SP+0
        CFI (cfiCond46) CFA_XSP16 add(XSP16, 10)
        CFI Block cfiPicker47 Using cfiCommon1
        CFI (cfiPicker47) NoFunction
        CFI (cfiPicker47) Picker
        MOVX    A,@DPTR
        MOV     R0,A
        INC     DPTR
        MOVX    A,@DPTR
        MOV     R1,A
        RET
        CFI EndBlock cfiCond43
        CFI EndBlock cfiCond44
        CFI EndBlock cfiCond45
        CFI EndBlock cfiCond46
        CFI EndBlock cfiPicker47

        RSEG XDATA_ID:CODE:NOROOT(0)
`?<Initializer for s_panid>`:
        DATA16
        DW 65535

        RSEG XDATA_ID:CODE:NOROOT(0)
`?<Initializer for s_channel>`:
        DATA8
        DB 15

        RSEG XDATA_ID:CODE:NOROOT(0)
`?<Initializer for __Constant_3e8>`:
        DATA32
        DD 1000

        RSEG XDATA_ID:CODE:NOROOT(0)
`?<Initializer for __Constant_bf21>`:
        DATA32
        DD 48929

        RSEG BANK_RELAYS:CODE:REORDER:NOROOT(0)
??find_slot?relay:
        LCALL   ?BDISPATCH
        DATA
        DC24    find_slot

        RSEG BANK_RELAYS:CODE:REORDER:NOROOT(0)
??alloc_slot?relay:
        LCALL   ?BDISPATCH
        DATA
        DC24    alloc_slot

        RSEG BANK_RELAYS:CODE:REORDER:NOROOT(0)
??zb_net_init?relay:
        LCALL   ?BDISPATCH
        DATA
        DC24    zb_net_init

        RSEG BANK_RELAYS:CODE:REORDER:NOROOT(0)
??zb_net_tick?relay:
        LCALL   ?BDISPATCH
        DATA
        DC24    zb_net_tick

        RSEG BANK_RELAYS:CODE:REORDER:NOROOT(0)
??zb_net_allow_join?relay:
        LCALL   ?BDISPATCH
        DATA
        DC24    zb_net_allow_join

        RSEG BANK_RELAYS:CODE:REORDER:NOROOT(0)
??zb_net_find?relay:
        LCALL   ?BDISPATCH
        DATA
        DC24    zb_net_find

        RSEG BANK_RELAYS:CODE:REORDER:NOROOT(0)
??zb_net_touch?relay:
        LCALL   ?BDISPATCH
        DATA
        DC24    zb_net_touch

        RSEG BANK_RELAYS:CODE:REORDER:NOROOT(0)
??zb_net_find_by_role?relay:
        LCALL   ?BDISPATCH
        DATA
        DC24    zb_net_find_by_role

        RSEG BANK_RELAYS:CODE:REORDER:NOROOT(0)
??zb_net_count?relay:
        LCALL   ?BDISPATCH
        DATA
        DC24    zb_net_count

        RSEG BANK_RELAYS:CODE:REORDER:NOROOT(0)
??zb_net_online_count?relay:
        LCALL   ?BDISPATCH
        DATA
        DC24    zb_net_online_count

        RSEG BANK_RELAYS:CODE:REORDER:NOROOT(0)
??zb_net_at?relay:
        LCALL   ?BDISPATCH
        DATA
        DC24    zb_net_at

        RSEG BANK_RELAYS:CODE:REORDER:NOROOT(0)
??zb_net_mark_offline?relay:
        LCALL   ?BDISPATCH
        DATA
        DC24    zb_net_mark_offline

        RSEG BANK_RELAYS:CODE:REORDER:NOROOT(0)
??zb_net_send_onoff?relay:
        LCALL   ?BDISPATCH
        DATA
        DC24    zb_net_send_onoff

        RSEG BANK_RELAYS:CODE:REORDER:NOROOT(0)
??zb_net_on_state?relay:
        LCALL   ?BDISPATCH
        DATA
        DC24    zb_net_on_state

        RSEG BANK_RELAYS:CODE:REORDER:NOROOT(0)
??zb_net_get_status?relay:
        LCALL   ?BDISPATCH
        DATA
        DC24    zb_net_get_status

        END
// 
// 1 524 bytes in segment BANKED_CODE
//    90 bytes in segment BANK_RELAYS
//    11 bytes in segment XDATA_I
//    11 bytes in segment XDATA_ID
//   225 bytes in segment XDATA_Z
// 
// 1 617 bytes of CODE  memory (+ 8 bytes shared)
//   228 bytes of XDATA memory (+ 8 bytes shared)
//
//Errors: none
//Warnings: 1
