///////////////////////////////////////////////////////////////////////////////
//                                                                            /
// IAR C/C++ Compiler V8.10.3.10338/W32 for 8051        20/Apr/2026  19:38:29 /
// Copyright 2004-2011 IAR Systems AB.                                        /
//                                                                            /
//    Core               =  plain                                             /
//    Code model         =  banked                                            /
//    Data model         =  large                                             /
//    Calling convention =  xdata reentrant                                   /
//    Constant location  =  data                                              /
//    Dptr setup         =  1,16                                              /
//    Source file        =  D:\ZNJJ\ZStack-CC2530-2.5.1a\Projects\zstack\Samp /
//                          les\ZbNode\Source\sensor_ldr.c                    /
//    Command line       =  -f D:\ZNJJ\ZStack-CC2530-2.5.1a\Projects\zstack\S /
//                          amples\ZbNode\CC2530DB\..\..\..\Tools\CC2530DB\f8 /
//                          wEndev.cfg (-DCPU32MHZ -DROOT=__near_func         /
//                          -DMAC_CFG_TX_DATA_MAX=3 -DMAC_CFG_TX_MAX=6        /
//                          -DMAC_CFG_RX_MAX=3) -f D:\ZNJJ\ZStack-CC2530-2.5. /
//                          1a\Projects\zstack\Samples\ZbNode\CC2530DB\..\..\ /
//                          ..\Tools\CC2530DB\f8wConfig.cfg (-DZIGBEEPRO      /
//                          -DSECURE=0 -DZG_SECURE_DYNAMIC=0 -DREFLECTOR      /
//                          -DDEFAULT_CHANLIST=0x00000800                     /
//                          -DZDAPP_CONFIG_PAN_ID=0xFFFF                      /
//                          -DNWK_START_DELAY=100 -DEXTENDED_JOINING_RANDOM_M /
//                          ASK=0x007F -DBEACON_REQUEST_DELAY=100             /
//                          -DBEACON_REQ_DELAY_MASK=0x00FF                    /
//                          -DLINK_STATUS_JITTER_MASK=0x007F                  /
//                          -DROUTE_EXPIRY_TIME=30 -DAPSC_ACK_WAIT_DURATION_P /
//                          OLLED=3000 -DNWK_INDIRECT_MSG_TIMEOUT=7           /
//                          -DMAX_RREQ_ENTRIES=8 -DAPSC_MAX_FRAME_RETRIES=3   /
//                          -DNWK_MAX_DATA_RETRIES=2                          /
//                          -DMAX_POLL_FAILURE_RETRIES=2 -DMAX_BCAST=9        /
//                          -DAPS_MAX_GROUPS=16 -DMAX_RTG_ENTRIES=40          /
//                          -DNWK_MAX_BINDING_ENTRIES=4                       /
//                          -DMAX_BINDING_CLUSTER_IDS=4                       /
//                          "-DDEFAULT_KEY={0x01, 0x03, 0x05, 0x07, 0x09,     /
//                          0x0B, 0x0D, 0x0F, 0x00, 0x02, 0x04, 0x06, 0x08,   /
//                          0x0A, 0x0C, 0x0D}" -DMAC_MAX_FRAME_SIZE=116       /
//                          -DZDNWKMGR_MIN_TRANSMISSIONS=20 "-DCONST=const    /
//                          __code" -DGENERIC=__generic                       /
//                          -DRFD_RCVC_ALWAYS_ON=FALSE -DPOLL_RATE=1000       /
//                          -DQUEUED_POLL_RATE=100 -DRESPONSE_POLL_RATE=100)  /
//                          -DREJOIN_POLL_RATE=440 D:\ZNJJ\ZStack-CC2530-2.5. /
//                          1a\Projects\zstack\Samples\ZbNode\Source\sensor_l /
//                          dr.c -D NWK_AUTO_POLL -D NODE_ROLE=2 -D           /
//                          HAL_UART=TRUE -D HAL_LCD=FALSE -lC                /
//                          D:\ZNJJ\ZStack-CC2530-2.5.1a\Projects\zstack\Samp /
//                          les\ZbNode\CC2530DB\Node2_EndDeviceEB\List\ -lA   /
//                          D:\ZNJJ\ZStack-CC2530-2.5.1a\Projects\zstack\Samp /
//                          les\ZbNode\CC2530DB\Node2_EndDeviceEB\List\       /
//                          --diag_suppress Pe001,Pa010 -o                    /
//                          D:\ZNJJ\ZStack-CC2530-2.5.1a\Projects\zstack\Samp /
//                          les\ZbNode\CC2530DB\Node2_EndDeviceEB\Obj\ -e     /
//                          --no_code_motion --debug --core=plain             /
//                          --dptr=16,1 --data_model=large                    /
//                          --code_model=banked --calling_convention=xdata_re /
//                          entrant --place_constants=data --nr_virtual_regs  /
//                          16 -I D:\ZNJJ\ZStack-CC2530-2.5.1a\Projects\zstac /
//                          k\Samples\ZbNode\CC2530DB\ -I                     /
//                          D:\ZNJJ\ZStack-CC2530-2.5.1a\Projects\zstack\Samp /
//                          les\ZbNode\CC2530DB\..\Source\ -I                 /
//                          D:\ZNJJ\ZStack-CC2530-2.5.1a\Projects\zstack\Samp /
//                          les\ZbNode\CC2530DB\..\..\..\ZMain\TI2530DB\ -I   /
//                          D:\ZNJJ\ZStack-CC2530-2.5.1a\Projects\zstack\Samp /
//                          les\ZbNode\CC2530DB\..\..\..\..\..\Components\hal /
//                          \include\ -I D:\ZNJJ\ZStack-CC2530-2.5.1a\Project /
//                          s\zstack\Samples\ZbNode\CC2530DB\..\..\..\..\..\C /
//                          omponents\hal\target\CC2530EB\ -I                 /
//                          D:\ZNJJ\ZStack-CC2530-2.5.1a\Projects\zstack\Samp /
//                          les\ZbNode\CC2530DB\..\..\..\..\..\Components\mac /
//                          \include\ -I D:\ZNJJ\ZStack-CC2530-2.5.1a\Project /
//                          s\zstack\Samples\ZbNode\CC2530DB\..\..\..\..\..\C /
//                          omponents\mac\high_level\ -I                      /
//                          D:\ZNJJ\ZStack-CC2530-2.5.1a\Projects\zstack\Samp /
//                          les\ZbNode\CC2530DB\..\..\..\..\..\Components\mac /
//                          \low_level\srf04\ -I D:\ZNJJ\ZStack-CC2530-2.5.1a /
//                          \Projects\zstack\Samples\ZbNode\CC2530DB\..\..\.. /
//                          \..\..\Components\mac\low_level\srf04\single_chip /
//                          \ -I D:\ZNJJ\ZStack-CC2530-2.5.1a\Projects\zstack /
//                          \Samples\ZbNode\CC2530DB\..\..\..\..\..\Component /
//                          s\mt\ -I D:\ZNJJ\ZStack-CC2530-2.5.1a\Projects\zs /
//                          tack\Samples\ZbNode\CC2530DB\..\..\..\..\..\Compo /
//                          nents\osal\include\ -I D:\ZNJJ\ZStack-CC2530-2.5. /
//                          1a\Projects\zstack\Samples\ZbNode\CC2530DB\..\..\ /
//                          ..\..\..\Components\services\saddr\ -I            /
//                          D:\ZNJJ\ZStack-CC2530-2.5.1a\Projects\zstack\Samp /
//                          les\ZbNode\CC2530DB\..\..\..\..\..\Components\ser /
//                          vices\sdata\ -I D:\ZNJJ\ZStack-CC2530-2.5.1a\Proj /
//                          ects\zstack\Samples\ZbNode\CC2530DB\..\..\..\..\. /
//                          .\Components\stack\af\ -I                         /
//                          D:\ZNJJ\ZStack-CC2530-2.5.1a\Projects\zstack\Samp /
//                          les\ZbNode\CC2530DB\..\..\..\..\..\Components\sta /
//                          ck\nwk\ -I D:\ZNJJ\ZStack-CC2530-2.5.1a\Projects\ /
//                          zstack\Samples\ZbNode\CC2530DB\..\..\..\..\..\Com /
//                          ponents\stack\sapi\ -I D:\ZNJJ\ZStack-CC2530-2.5. /
//                          1a\Projects\zstack\Samples\ZbNode\CC2530DB\..\..\ /
//                          ..\..\..\Components\stack\sec\ -I                 /
//                          D:\ZNJJ\ZStack-CC2530-2.5.1a\Projects\zstack\Samp /
//                          les\ZbNode\CC2530DB\..\..\..\..\..\Components\sta /
//                          ck\sys\ -I D:\ZNJJ\ZStack-CC2530-2.5.1a\Projects\ /
//                          zstack\Samples\ZbNode\CC2530DB\..\..\..\..\..\Com /
//                          ponents\stack\zdo\ -I D:\ZNJJ\ZStack-CC2530-2.5.1 /
//                          a\Projects\zstack\Samples\ZbNode\CC2530DB\..\..\. /
//                          .\..\..\Components\zmac\ -I                       /
//                          D:\ZNJJ\ZStack-CC2530-2.5.1a\Projects\zstack\Samp /
//                          les\ZbNode\CC2530DB\..\..\..\..\..\Components\zma /
//                          c\f8w\ -Ohz --require_prototypes                  /
//    List file          =  D:\ZNJJ\ZStack-CC2530-2.5.1a\Projects\zstack\Samp /
//                          les\ZbNode\CC2530DB\Node2_EndDeviceEB\List\sensor /
//                          _ldr.s51                                          /
//                                                                            /
//                                                                            /
///////////////////////////////////////////////////////////////////////////////

        NAME sensor_ldr

        RTMODEL "__SystemLibrary", "CLib"
        RTMODEL "__calling_convention", "xdata_reentrant"
        RTMODEL "__code_model", "banked"
        RTMODEL "__core", "plain"
        RTMODEL "__data_model", "large"
        RTMODEL "__dptr_size", "16"
        RTMODEL "__extended_stack", "disabled"
        RTMODEL "__location_for_constants", "data"
        RTMODEL "__number_of_dptrs", "1"
        RTMODEL "__rt_version", "1"

        RSEG DOVERLAY:DATA:NOROOT(0)
        RSEG IOVERLAY:IDATA:NOROOT(0)
        RSEG ISTACK:IDATA:NOROOT(0)
        RSEG PSTACK:XDATA:NOROOT(0)
        RSEG XSTACK:XDATA:NOROOT(0)

        EXTERN ?BANKED_ENTER_XDATA
        EXTERN ?BANKED_LEAVE_XDATA
        EXTERN ?BDISPATCH
        EXTERN ?BRET
        EXTERN ?L_MOV_X
        EXTERN ?L_MUL
        EXTERN ?UL_DIV_MOD
        EXTERN ?UL_GE_X
        EXTERN ?V0
        EXTERN __INIT_XDATA_I

        PUBLIC ??ldr_init?relay
        FUNCTION ??ldr_init?relay,0203H
        PUBLIC ??ldr_read_lux?relay
        FUNCTION ??ldr_read_lux?relay,0203H
        PUBWEAK APCFG
        PUBWEAK P0DIR
        PUBWEAK P0SEL
        PUBWEAK __Constant_10000
        PUBWEAK __Constant_7d0
        PUBWEAK __Constant_7ff
        PUBWEAK __Constant_ffff
        PUBLIC ldr_init
        FUNCTION ldr_init,0203H
        ARGFRAME XSTACK, 0, STACK
        PUBLIC ldr_read_lux
        FUNCTION ldr_read_lux,021203H
        ARGFRAME XSTACK, 0, STACK
        LOCFRAME XSTACK, 16, STACK
        
        CFI Names cfiNames0
        CFI StackFrame CFA_SP SP IDATA
        CFI StackFrame CFA_PSP16 PSP16 XDATA
        CFI StackFrame CFA_XSP16 XSP16 XDATA
        CFI StaticOverlayFrame CFA_IOVERLAY IOVERLAY
        CFI StaticOverlayFrame CFA_DOVERLAY DOVERLAY
        CFI Resource `PSW.CY`:1, `B.BR0`:1, `B.BR1`:1, `B.BR2`:1, `B.BR3`:1
        CFI Resource `B.BR4`:1, `B.BR5`:1, `B.BR6`:1, `B.BR7`:1, `VB.BR8`:1
        CFI Resource `VB.BR9`:1, `VB.BR10`:1, `VB.BR11`:1, `VB.BR12`:1
        CFI Resource `VB.BR13`:1, `VB.BR14`:1, `VB.BR15`:1, VB:8, B:8, A:8
        CFI Resource PSW:8, DPL0:8, DPH0:8, R0:8, R1:8, R2:8, R3:8, R4:8, R5:8
        CFI Resource R6:8, R7:8, V0:8, V1:8, V2:8, V3:8, V4:8, V5:8, V6:8, V7:8
        CFI Resource V8:8, V9:8, V10:8, V11:8, V12:8, V13:8, V14:8, V15:8, SP:8
        CFI Resource PSPH:8, PSPL:8, PSP16:16, XSPH:8, XSPL:8, XSP16:16
        CFI VirtualResource ?RET:24
        CFI Resource ?BRET_EXT:8
        CFI VirtualResource ?RET_HIGH:8, ?RET_LOW:8
        CFI ResourceParts PSP16 PSPH, PSPL
        CFI ResourceParts XSP16 XSPH, XSPL
        CFI ResourceParts ?RET ?BRET_EXT, ?RET_HIGH, ?RET_LOW
        CFI EndNames cfiNames0
        
        CFI Common cfiCommon0 Using cfiNames0
        CFI CodeAlign 1
        CFI DataAlign -1
        CFI ReturnAddress ?RET CODE
        CFI CFA_DOVERLAY Used
        CFI CFA_IOVERLAY Used
        CFI CFA_SP SP+-3
        CFI CFA_PSP16 PSP16+0
        CFI CFA_XSP16 XSP16+0
        CFI `PSW.CY` SameValue
        CFI `B.BR0` SameValue
        CFI `B.BR1` SameValue
        CFI `B.BR2` SameValue
        CFI `B.BR3` SameValue
        CFI `B.BR4` SameValue
        CFI `B.BR5` SameValue
        CFI `B.BR6` SameValue
        CFI `B.BR7` SameValue
        CFI `VB.BR8` SameValue
        CFI `VB.BR9` SameValue
        CFI `VB.BR10` SameValue
        CFI `VB.BR11` SameValue
        CFI `VB.BR12` SameValue
        CFI `VB.BR13` SameValue
        CFI `VB.BR14` SameValue
        CFI `VB.BR15` SameValue
        CFI VB SameValue
        CFI B Undefined
        CFI A Undefined
        CFI PSW SameValue
        CFI DPL0 SameValue
        CFI DPH0 SameValue
        CFI R0 Undefined
        CFI R1 Undefined
        CFI R2 Undefined
        CFI R3 Undefined
        CFI R4 Undefined
        CFI R5 Undefined
        CFI R6 SameValue
        CFI R7 SameValue
        CFI V0 SameValue
        CFI V1 SameValue
        CFI V2 SameValue
        CFI V3 SameValue
        CFI V4 SameValue
        CFI V5 SameValue
        CFI V6 SameValue
        CFI V7 SameValue
        CFI V8 SameValue
        CFI V9 SameValue
        CFI V10 SameValue
        CFI V11 SameValue
        CFI V12 SameValue
        CFI V13 SameValue
        CFI V14 SameValue
        CFI V15 SameValue
        CFI PSPH Undefined
        CFI PSPL Undefined
        CFI XSPH Undefined
        CFI XSPL Undefined
        CFI ?RET Concat
        CFI ?BRET_EXT Frame(CFA_SP, 3)
        CFI ?RET_HIGH Frame(CFA_SP, 2)
        CFI ?RET_LOW Frame(CFA_SP, 1)
        CFI EndCommon cfiCommon0
        
HalAdcRead          SYMBOL "HalAdcRead"
??HalAdcRead?relay  SYMBOL "?relay", HalAdcRead
ldr_init            SYMBOL "ldr_init"
??ldr_init?relay    SYMBOL "?relay", ldr_init
ldr_read_lux        SYMBOL "ldr_read_lux"
??ldr_read_lux?relay SYMBOL "?relay", ldr_read_lux

        EXTERN HalAdcRead
        FUNCTION HalAdcRead,0202H
        ARGFRAME ISTACK, 0, STACK
        ARGFRAME PSTACK, 0, STACK
        ARGFRAME XSTACK, 16, STACK
        ARGFRAME IOVERLAY, 0, STATIC
        ARGFRAME DOVERLAY, 0, STATIC
        EXTERN ??HalAdcRead?relay
        FUNCTION ??HalAdcRead?relay,00H

// D:\ZNJJ\ZStack-CC2530-2.5.1a\Projects\zstack\Samples\ZbNode\Source\sensor_ldr.c
//    1 /*
//    2  * 光敏 ADC 采样（AIN7 = P0.7，E18-MS1 板内部分压节点）。
//    3  * 返回值 uint16 lux 估算：ADC code → 3.3V 参考下的近似换算，非精确。
//    4  */
//    5 
//    6 #include "sensor_ldr.h"
//    7 #include "board_e18ms1.h"
//    8 #include "ioCC2530.h"

        ASEGN SFR_AN:DATA:NOROOT,0f2H
// unsigned char volatile __sfr APCFG
APCFG:
        DATA8
        DS 1

        ASEGN SFR_AN:DATA:NOROOT,0f3H
// unsigned char volatile __sfr P0SEL
P0SEL:
        DATA8
        DS 1

        ASEGN SFR_AN:DATA:NOROOT,0fdH
// unsigned char volatile __sfr P0DIR
P0DIR:
        DATA8
        DS 1
//    9 #include "hal_adc.h"
//   10 

        RSEG BANKED_CODE:CODE:NOROOT(0)
//   11 void ldr_init(void)
ldr_init:
        CFI Block cfiBlock0 Using cfiCommon0
        CFI Function ldr_init
        CODE
//   12 {
        ; Saved register size: 0
        ; Auto size: 0
//   13     /* P0.7 设为外设模式（ADC 由 ADCCON 配置通道即可占管） */
//   14     P0SEL |= (uint8)(1 << NODE_LDR_ADC_CH);
        ORL     0xf3,#0x80
//   15     P0DIR &= (uint8)~(1 << NODE_LDR_ADC_CH);
        ANL     0xfd,#0x7f
//   16     APCFG |= (uint8)(1 << NODE_LDR_ADC_CH);
        ORL     0xf2,#0x80
//   17 }
        LJMP    ?BRET
        CFI EndBlock cfiBlock0
        REQUIRE P0SEL
        REQUIRE P0DIR
        REQUIRE APCFG
//   18 

        RSEG BANKED_CODE:CODE:NOROOT(0)
//   19 uint16 ldr_read_lux(void)
ldr_read_lux:
        CFI Block cfiBlock1 Using cfiCommon0
        CFI Function ldr_read_lux
        CODE
//   20 {
        FUNCALL ldr_read_lux, HalAdcRead
        LOCFRAME ISTACK, 0, STACK
        LOCFRAME PSTACK, 0, STACK
        LOCFRAME XSTACK, 16, STACK
        LOCFRAME IOVERLAY, 0, STATIC
        LOCFRAME DOVERLAY, 0, STATIC
        ARGFRAME ISTACK, 0, STACK
        ARGFRAME PSTACK, 0, STACK
        ARGFRAME XSTACK, 16, STACK
        ARGFRAME IOVERLAY, 0, STATIC
        ARGFRAME DOVERLAY, 0, STATIC
        MOV     A,#-0x10
        LCALL   ?BANKED_ENTER_XDATA
        CFI DPH0 load(1, XDATA, add(CFA_XSP16, literal(-1)))
        CFI DPL0 load(1, XDATA, add(CFA_XSP16, literal(-2)))
        CFI ?BRET_EXT load(1, XDATA, add(CFA_XSP16, literal(-3)))
        CFI ?RET_HIGH load(1, XDATA, add(CFA_XSP16, literal(-4)))
        CFI ?RET_LOW load(1, XDATA, add(CFA_XSP16, literal(-5)))
        CFI R7 load(1, XDATA, add(CFA_XSP16, literal(-6)))
        CFI V7 load(1, XDATA, add(CFA_XSP16, literal(-7)))
        CFI V6 load(1, XDATA, add(CFA_XSP16, literal(-8)))
        CFI V5 load(1, XDATA, add(CFA_XSP16, literal(-9)))
        CFI V4 load(1, XDATA, add(CFA_XSP16, literal(-10)))
        CFI V3 load(1, XDATA, add(CFA_XSP16, literal(-11)))
        CFI V2 load(1, XDATA, add(CFA_XSP16, literal(-12)))
        CFI V1 load(1, XDATA, add(CFA_XSP16, literal(-13)))
        CFI V0 load(1, XDATA, add(CFA_XSP16, literal(-14)))
        CFI VB load(1, XDATA, add(CFA_XSP16, literal(-15)))
        CFI R6 load(1, XDATA, add(CFA_XSP16, literal(-16)))
        CFI CFA_SP SP+0
        CFI CFA_XSP16 add(XSP16, 16)
        ; Saved register size: 16
        ; Auto size: 0
//   21     uint16 code;
//   22     uint32 lux;
//   23 
//   24     /* HalAdcRead(ch=HAL_ADC_CHN_AIN7, resolution=HAL_ADC_RESOLUTION_12) 返回 int16（有符号） */
//   25     code = (uint16)HalAdcRead(HAL_ADC_CHN_AIN7, HAL_ADC_RESOLUTION_12);
//   26 
//   27     /* 线性近似：code 0 ≈ 0 lux（全遮光）；code 2047 ≈ 2000 lux（满量程） */
//   28     lux = ((uint32)code * 2000u) / 2047u;
        ; Setup parameters for call to function HalAdcRead
        MOV     R2,#0x3
        MOV     R1,#0x7
        LCALL   ??HalAdcRead?relay
        MOV     ?V0 + 0,R2
        MOV     ?V0 + 1,R3
        CLR     A
        MOV     ?V0 + 2,A
        MOV     ?V0 + 3,A
        MOV     DPTR,#__Constant_7d0
        MOV     R0,#?V0 + 4
        LCALL   ?L_MOV_X
        MOV     R0,#?V0 + 0
        MOV     R1,#?V0 + 4
        LCALL   ?L_MUL
        MOV     DPTR,#__Constant_7ff
        MOV     R0,#?V0 + 4
        LCALL   ?L_MOV_X
        MOV     R0,#?V0 + 0
        MOV     R1,#?V0 + 4
        LCALL   ?UL_DIV_MOD
//   29     if (lux > 65535u) lux = 65535u;
        MOV     DPTR,#__Constant_10000
        MOV     R0,#?V0 + 0
        LCALL   ?UL_GE_X
        JNC     ??ldr_read_lux_0
        MOV     DPTR,#__Constant_ffff
        MOV     R0,#?V0 + 0
        LCALL   ?L_MOV_X
//   30     return (uint16)lux;
??ldr_read_lux_0:
        MOV     R2,?V0 + 0
        MOV     R3,?V0 + 1
        MOV     R7,#0x8
        LJMP    ?BANKED_LEAVE_XDATA
        CFI EndBlock cfiBlock1
//   31 }

        RSEG XDATA_I:XDATA:NOROOT(0)
        DATA32
__Constant_7d0:
        DS 4
        REQUIRE `?<Initializer for __Constant_7d0>`
        REQUIRE __INIT_XDATA_I

        RSEG XDATA_ID:CODE:NOROOT(0)
`?<Initializer for __Constant_7d0>`:
        DATA32
        DD 2000

        RSEG XDATA_I:XDATA:NOROOT(0)
        DATA32
__Constant_7ff:
        DS 4
        REQUIRE `?<Initializer for __Constant_7ff>`
        REQUIRE __INIT_XDATA_I

        RSEG XDATA_ID:CODE:NOROOT(0)
`?<Initializer for __Constant_7ff>`:
        DATA32
        DD 2047

        RSEG XDATA_I:XDATA:NOROOT(0)
        DATA32
__Constant_10000:
        DS 4
        REQUIRE `?<Initializer for __Constant_10000>`
        REQUIRE __INIT_XDATA_I

        RSEG XDATA_ID:CODE:NOROOT(0)
`?<Initializer for __Constant_10000>`:
        DATA32
        DD 65536

        RSEG XDATA_I:XDATA:NOROOT(0)
        DATA32
__Constant_ffff:
        DS 4
        REQUIRE `?<Initializer for __Constant_ffff>`
        REQUIRE __INIT_XDATA_I

        RSEG XDATA_ID:CODE:NOROOT(0)
`?<Initializer for __Constant_ffff>`:
        DATA32
        DD 65535

        RSEG BANK_RELAYS:CODE:REORDER:NOROOT(0)
??ldr_init?relay:
        LCALL   ?BDISPATCH
        DATA
        DC24    ldr_init

        RSEG BANK_RELAYS:CODE:REORDER:NOROOT(0)
??ldr_read_lux?relay:
        LCALL   ?BDISPATCH
        DATA
        DC24    ldr_read_lux

        END
// 
// 90 bytes in segment BANKED_CODE
// 12 bytes in segment BANK_RELAYS
//  3 bytes in segment SFR_AN
// 16 bytes in segment XDATA_I
// 16 bytes in segment XDATA_ID
// 
// 102 bytes of CODE  memory (+ 16 bytes shared)
//   0 bytes of DATA  memory (+  3 bytes shared)
//   0 bytes of XDATA memory (+ 16 bytes shared)
//
//Errors: none
//Warnings: 1
