###############################################################################
#                                                                             #
# IAR C/C++ Compiler V8.10.3.10338/W32 for 8051         21/Apr/2026  20:00:54 #
# Copyright 2004-2011 IAR Systems AB.                                         #
#                                                                             #
#    Core               =  plain                                              #
#    Code model         =  banked                                             #
#    Data model         =  large                                              #
#    Calling convention =  xdata reentrant                                    #
#    Constant location  =  data                                               #
#    Dptr setup         =  1,16                                               #
#    Source file        =  D:\ZNJJ\ZStack-CC2530-2.5.1a\Projects\zstack\Sampl #
#                          es\ZbNode\Source\sensor_dht11.c                    #
#    Command line       =  -f D:\ZNJJ\ZStack-CC2530-2.5.1a\Projects\zstack\Sa #
#                          mples\ZbNode\CC2530DB\..\..\..\Tools\CC2530DB\f8wE #
#                          ndev.cfg (-DCPU32MHZ -DROOT=__near_func            #
#                          -DMAC_CFG_TX_DATA_MAX=3 -DMAC_CFG_TX_MAX=6         #
#                          -DMAC_CFG_RX_MAX=3) -f D:\ZNJJ\ZStack-CC2530-2.5.1 #
#                          a\Projects\zstack\Samples\ZbNode\CC2530DB\..\..\.. #
#                          \Tools\CC2530DB\f8wConfig.cfg (-DZIGBEEPRO         #
#                          -DSECURE=0 -DZG_SECURE_DYNAMIC=0 -DREFLECTOR       #
#                          -DDEFAULT_CHANLIST=0x00000800                      #
#                          -DZDAPP_CONFIG_PAN_ID=0xFFFF                       #
#                          -DNWK_START_DELAY=100 -DEXTENDED_JOINING_RANDOM_MA #
#                          SK=0x007F -DBEACON_REQUEST_DELAY=100               #
#                          -DBEACON_REQ_DELAY_MASK=0x00FF                     #
#                          -DLINK_STATUS_JITTER_MASK=0x007F                   #
#                          -DROUTE_EXPIRY_TIME=30 -DAPSC_ACK_WAIT_DURATION_PO #
#                          LLED=3000 -DNWK_INDIRECT_MSG_TIMEOUT=7             #
#                          -DMAX_RREQ_ENTRIES=8 -DAPSC_MAX_FRAME_RETRIES=3    #
#                          -DNWK_MAX_DATA_RETRIES=2                           #
#                          -DMAX_POLL_FAILURE_RETRIES=2 -DMAX_BCAST=9         #
#                          -DAPS_MAX_GROUPS=16 -DMAX_RTG_ENTRIES=40           #
#                          -DNWK_MAX_BINDING_ENTRIES=4                        #
#                          -DMAX_BINDING_CLUSTER_IDS=4 "-DDEFAULT_KEY={0x01,  #
#                          0x03, 0x05, 0x07, 0x09, 0x0B, 0x0D, 0x0F, 0x00,    #
#                          0x02, 0x04, 0x06, 0x08, 0x0A, 0x0C, 0x0D}"         #
#                          -DMAC_MAX_FRAME_SIZE=116                           #
#                          -DZDNWKMGR_MIN_TRANSMISSIONS=20 "-DCONST=const     #
#                          __code" -DGENERIC=__generic                        #
#                          -DRFD_RCVC_ALWAYS_ON=FALSE -DPOLL_RATE=1000        #
#                          -DQUEUED_POLL_RATE=100 -DRESPONSE_POLL_RATE=100)   #
#                          -DREJOIN_POLL_RATE=440 D:\ZNJJ\ZStack-CC2530-2.5.1 #
#                          a\Projects\zstack\Samples\ZbNode\Source\sensor_dht #
#                          11.c -D NWK_AUTO_POLL -D NODE_ROLE=2 -D            #
#                          HAL_UART=TRUE -D HAL_LCD=FALSE -lC                 #
#                          D:\ZNJJ\ZStack-CC2530-2.5.1a\Projects\zstack\Sampl #
#                          es\ZbNode\CC2530DB\Node2_EndDeviceEB\List\ -lA     #
#                          D:\ZNJJ\ZStack-CC2530-2.5.1a\Projects\zstack\Sampl #
#                          es\ZbNode\CC2530DB\Node2_EndDeviceEB\List\         #
#                          --diag_suppress Pe001,Pa010 -o                     #
#                          D:\ZNJJ\ZStack-CC2530-2.5.1a\Projects\zstack\Sampl #
#                          es\ZbNode\CC2530DB\Node2_EndDeviceEB\Obj\ -e       #
#                          --no_code_motion --debug --core=plain --dptr=16,1  #
#                          --data_model=large --code_model=banked             #
#                          --calling_convention=xdata_reentrant               #
#                          --place_constants=data --nr_virtual_regs 16 -I     #
#                          D:\ZNJJ\ZStack-CC2530-2.5.1a\Projects\zstack\Sampl #
#                          es\ZbNode\CC2530DB\ -I D:\ZNJJ\ZStack-CC2530-2.5.1 #
#                          a\Projects\zstack\Samples\ZbNode\CC2530DB\..\Sourc #
#                          e\ -I D:\ZNJJ\ZStack-CC2530-2.5.1a\Projects\zstack #
#                          \Samples\ZbNode\CC2530DB\..\..\..\ZMain\TI2530DB\  #
#                          -I D:\ZNJJ\ZStack-CC2530-2.5.1a\Projects\zstack\Sa #
#                          mples\ZbNode\CC2530DB\..\..\..\..\..\Components\ha #
#                          l\include\ -I D:\ZNJJ\ZStack-CC2530-2.5.1a\Project #
#                          s\zstack\Samples\ZbNode\CC2530DB\..\..\..\..\..\Co #
#                          mponents\hal\target\CC2530EB\ -I                   #
#                          D:\ZNJJ\ZStack-CC2530-2.5.1a\Projects\zstack\Sampl #
#                          es\ZbNode\CC2530DB\..\..\..\..\..\Components\mac\i #
#                          nclude\ -I D:\ZNJJ\ZStack-CC2530-2.5.1a\Projects\z #
#                          stack\Samples\ZbNode\CC2530DB\..\..\..\..\..\Compo #
#                          nents\mac\high_level\ -I                           #
#                          D:\ZNJJ\ZStack-CC2530-2.5.1a\Projects\zstack\Sampl #
#                          es\ZbNode\CC2530DB\..\..\..\..\..\Components\mac\l #
#                          ow_level\srf04\ -I D:\ZNJJ\ZStack-CC2530-2.5.1a\Pr #
#                          ojects\zstack\Samples\ZbNode\CC2530DB\..\..\..\..\ #
#                          ..\Components\mac\low_level\srf04\single_chip\ -I  #
#                          D:\ZNJJ\ZStack-CC2530-2.5.1a\Projects\zstack\Sampl #
#                          es\ZbNode\CC2530DB\..\..\..\..\..\Components\mt\   #
#                          -I D:\ZNJJ\ZStack-CC2530-2.5.1a\Projects\zstack\Sa #
#                          mples\ZbNode\CC2530DB\..\..\..\..\..\Components\os #
#                          al\include\ -I D:\ZNJJ\ZStack-CC2530-2.5.1a\Projec #
#                          ts\zstack\Samples\ZbNode\CC2530DB\..\..\..\..\..\C #
#                          omponents\services\saddr\ -I                       #
#                          D:\ZNJJ\ZStack-CC2530-2.5.1a\Projects\zstack\Sampl #
#                          es\ZbNode\CC2530DB\..\..\..\..\..\Components\servi #
#                          ces\sdata\ -I D:\ZNJJ\ZStack-CC2530-2.5.1a\Project #
#                          s\zstack\Samples\ZbNode\CC2530DB\..\..\..\..\..\Co #
#                          mponents\stack\af\ -I D:\ZNJJ\ZStack-CC2530-2.5.1a #
#                          \Projects\zstack\Samples\ZbNode\CC2530DB\..\..\..\ #
#                          ..\..\Components\stack\nwk\ -I                     #
#                          D:\ZNJJ\ZStack-CC2530-2.5.1a\Projects\zstack\Sampl #
#                          es\ZbNode\CC2530DB\..\..\..\..\..\Components\stack #
#                          \sapi\ -I D:\ZNJJ\ZStack-CC2530-2.5.1a\Projects\zs #
#                          tack\Samples\ZbNode\CC2530DB\..\..\..\..\..\Compon #
#                          ents\stack\sec\ -I D:\ZNJJ\ZStack-CC2530-2.5.1a\Pr #
#                          ojects\zstack\Samples\ZbNode\CC2530DB\..\..\..\..\ #
#                          ..\Components\stack\sys\ -I                        #
#                          D:\ZNJJ\ZStack-CC2530-2.5.1a\Projects\zstack\Sampl #
#                          es\ZbNode\CC2530DB\..\..\..\..\..\Components\stack #
#                          \zdo\ -I D:\ZNJJ\ZStack-CC2530-2.5.1a\Projects\zst #
#                          ack\Samples\ZbNode\CC2530DB\..\..\..\..\..\Compone #
#                          nts\zmac\ -I D:\ZNJJ\ZStack-CC2530-2.5.1a\Projects #
#                          \zstack\Samples\ZbNode\CC2530DB\..\..\..\..\..\Com #
#                          ponents\zmac\f8w\ -Ohz --require_prototypes        #
#    List file          =  D:\ZNJJ\ZStack-CC2530-2.5.1a\Projects\zstack\Sampl #
#                          es\ZbNode\CC2530DB\Node2_EndDeviceEB\List\sensor_d #
#                          ht11.lst                                           #
#    Object file        =  D:\ZNJJ\ZStack-CC2530-2.5.1a\Projects\zstack\Sampl #
#                          es\ZbNode\CC2530DB\Node2_EndDeviceEB\Obj\sensor_dh #
#                          t11.r51                                            #
#                                                                             #
#                                                                             #
###############################################################################

D:\ZNJJ\ZStack-CC2530-2.5.1a\Projects\zstack\Samples\ZbNode\Source\sensor_dht11.c
      1          /*
      2           * DHT11 single-wire driver on CC2530 P2.0.
      3           *
      4           * The board provides an external 10k pull-up. Follow the reference start
      5           * sequence: drive low >=18 ms, drive high for 20~40 us, then switch to input
      6           * to sample the sensor response. Timing assumes the system is already running
      7           * on the existing 32 MHz XOSC configuration used by the project.
      8           */
      9          
     10          #include "sensor_dht11.h"
     11          #include "board_e18ms1.h"

  #ifndef __BOARD_E18_MS1_H__
                            ^
"D:\ZNJJ\ZStack-CC2530-2.5.1a\Projects\zstack\Samples\ZbNode\Source\board_e18ms1.h",1  Warning[Pa050]: 
          non-native end of line sequence detected (this diagnostic is only
          issued once)
     12          #include "ioCC2530.h"

   \                                 In  segment SFR_AN, at 0xa0
   \   union <unnamed> volatile __sfr _A_P2
   \                     _A_P2:
   \   000000                DS 1

   \                                 In  segment SFR_AN, at 0xa8
   \   union <unnamed> volatile __sfr _A_IEN0
   \                     _A_IEN0:
   \   000000                DS 1

   \                                 In  segment SFR_AN, at 0xf5
   \   unsigned char volatile __sfr P2SEL
   \                     P2SEL:
   \   000000                DS 1

   \                                 In  segment SFR_AN, at 0xff
   \   unsigned char volatile __sfr P2DIR
   \                     P2DIR:
   \   000000                DS 1
     13          #include "hal_mcu.h"
     14          
     15          #define DHT11_BIT_MASK  ((uint8)(1u << NODE_DHT11_PIN))
     16          
     17          static void dht11_gpio_mode(void)
     18          {
     19              P2SEL &= (uint8)~DHT11_BIT_MASK;
     20          }
     21          
     22          static void dht11_drive_low(void)
     23          {
     24              dht11_gpio_mode();
     25              P2 &= (uint8)~DHT11_BIT_MASK;
     26              P2DIR |= DHT11_BIT_MASK;
     27          }
     28          

   \                                 In  segment BANKED_CODE, align 1, keep-with-next
     29          static void dht11_drive_high(void)
   \                     dht11_drive_high:
     30          {
   \   000000                ; Saved register size: 0
   \   000000                ; Auto size: 0
     31              dht11_gpio_mode();
   \   000000   53F5FE       ANL     0xf5,#0xfe
     32              P2 |= DHT11_BIT_MASK;
   \   000003   D2A0         SETB    0xa0.0
     33              P2DIR |= DHT11_BIT_MASK;
   \   000005   43FF01       ORL     0xff,#0x1
     34          }
   \   000008   02....       LJMP    ?BRET
   \   00000B                REQUIRE _A_P2
   \   00000B                REQUIRE P2DIR
   \   00000B                REQUIRE P2SEL
     35          
     36          static void dht11_input_mode(void)
     37          {
     38              dht11_gpio_mode();
     39              P2DIR &= (uint8)~DHT11_BIT_MASK;
     40          }
     41          
     42          static uint8 dht11_get(void)
     43          {
     44              dht11_gpio_mode();
     45              return (uint8)((P2 & DHT11_BIT_MASK) ? 1u : 0u);
     46          }
     47          

   \                                 In  segment BANKED_CODE, align 1, keep-with-next
     48          static void delay_us(uint16 us)
   \                     delay_us:
     49          {
   \   000000                ; Saved register size: 0
   \   000000                ; Auto size: 0
   \   000000   8008         SJMP    ??delay_us_0
     50              while (us--) {
     51                  asm("NOP");
   \                     ??delay_us_1:
   \   000002   00           NOP
     52                  asm("NOP");
   \   000003   00           NOP
     53                  asm("NOP");
   \   000004   00           NOP
     54                  asm("NOP");
   \   000005   00           NOP
     55                  asm("NOP");
   \   000006   00           NOP
     56                  asm("NOP");
   \   000007   00           NOP
     57                  asm("NOP");
   \   000008   00           NOP
     58                  asm("NOP");
   \   000009   00           NOP
     59              }
   \                     ??delay_us_0:
   \   00000A   EA           MOV     A,R2
   \   00000B   F8           MOV     R0,A
   \   00000C   EB           MOV     A,R3
   \   00000D   F9           MOV     R1,A
   \   00000E   E8           MOV     A,R0
   \   00000F   24FF         ADD     A,#-0x1
   \   000011   1A           DEC     R2
   \   000012   E9           MOV     A,R1
   \   000013   34FF         ADDC    A,#-0x1
   \   000015   FB           MOV     R3,A
   \   000016   E8           MOV     A,R0
   \   000017   49           ORL     A,R1
   \   000018   70E8         JNZ     ??delay_us_1
     60          }
   \   00001A   02....       LJMP    ?BRET
     61          
     62          static void delay_ms(uint16 ms)
     63          {
     64              while (ms--) {
     65                  delay_us(1000u);
     66              }
     67          }
     68          

   \                                 In  segment BANKED_CODE, align 1, keep-with-next
     69          void dht11_init(void)
   \                     dht11_init:
     70          {
   \   000000   C082         PUSH    DPL
   \   000002   C083         PUSH    DPH
   \   000004                ; Saved register size: 2
   \   000004                ; Auto size: 0
     71              dht11_drive_high();
   \   000004                ; Setup parameters for call to function dht11_drive_high
   \   000004   12....       LCALL   ??dht11_drive_high?relay
     72          }
   \   000007   D083         POP     DPH
   \   000009   D082         POP     DPL
   \   00000B   02....       LJMP    ?BRET
     73          

   \                                 In  segment BANKED_CODE, align 1, keep-with-next
     74          static uint8 wait_level(uint8 expect, uint16 timeout_us)
   \                     wait_level:
     75          {
   \   000000   74F7         MOV     A,#-0x9
   \   000002   12....       LCALL   ?BANKED_ENTER_XDATA
   \   000005                ; Saved register size: 9
   \   000005                ; Auto size: 0
   \   000005   89..         MOV     ?V0 + 0,R1
   \   000007   EA           MOV     A,R2
   \   000008   FE           MOV     R6,A
   \   000009   EB           MOV     A,R3
   \   00000A   FF           MOV     R7,A
   \   00000B   8007         SJMP    ??wait_level_0
     76              while (timeout_us--) {
     77                  if (dht11_get() == expect) {
     78                      return 1u;
     79                  }
     80                  delay_us(1u);
   \                     ??wait_level_1:
   \   00000D                ; Setup parameters for call to function delay_us
   \   00000D   7A01         MOV     R2,#0x1
   \   00000F   7B00         MOV     R3,#0x0
   \   000011   12....       LCALL   ??delay_us?relay
   \                     ??wait_level_0:
   \   000014   EE           MOV     A,R6
   \   000015   F8           MOV     R0,A
   \   000016   EF           MOV     A,R7
   \   000017   F9           MOV     R1,A
   \   000018   E8           MOV     A,R0
   \   000019   24FF         ADD     A,#-0x1
   \   00001B   1E           DEC     R6
   \   00001C   E9           MOV     A,R1
   \   00001D   34FF         ADDC    A,#-0x1
   \   00001F   FF           MOV     R7,A
   \   000020   E8           MOV     A,R0
   \   000021   49           ORL     A,R1
   \   000022   600F         JZ      ??wait_level_2
   \   000024   53F5FE       ANL     0xf5,#0xfe
   \   000027   A2A0         MOV     C,0xa0.0
   \   000029   E4           CLR     A
   \   00002A   33           RLC     A
   \   00002B   65..         XRL     A,?V0 + 0
   \   00002D   70DE         JNZ     ??wait_level_1
   \   00002F   7901         MOV     R1,#0x1
   \   000031   8002         SJMP    ??wait_level_3
     81              }
     82              return 0u;
   \                     ??wait_level_2:
   \   000033   7900         MOV     R1,#0x0
   \                     ??wait_level_3:
   \   000035   7F01         MOV     R7,#0x1
   \   000037   02....       LJMP    ?BANKED_LEAVE_XDATA
   \   00003A                REQUIRE _A_P2
   \   00003A                REQUIRE P2SEL
     83          }
     84          

   \                                 In  segment BANKED_CODE, align 1, keep-with-next
     85          int8 dht11_read(int16 *temp_x100, uint16 *hum_x100)
   \                     dht11_read:
     86          {
   \   000000   74F2         MOV     A,#-0xe
   \   000002   12....       LCALL   ?BANKED_ENTER_XDATA
   \   000005                ; Saved register size: 14
   \   000005                ; Auto size: 5
   \   000005   74FB         MOV     A,#-0x5
   \   000007   12....       LCALL   ?ALLOC_XSTACK8
   \   00000A   EA           MOV     A,R2
   \   00000B   FE           MOV     R6,A
   \   00000C   EB           MOV     A,R3
   \   00000D   FF           MOV     R7,A
   \   00000E   8C..         MOV     ?V0 + 0,R4
   \   000010   8D..         MOV     ?V0 + 1,R5
     87              uint8 data[5];
     88              uint8 i;
     89              uint8 j;
     90              uint8 b;
     91              int8 rc;
     92              if (temp_x100 == 0 || hum_x100 == 0) {
   \   000012   EE           MOV     A,R6
   \   000013   4F           ORL     A,R7
   \   000014   6005         JZ      ??dht11_read_0
   \   000016   EC           MOV     A,R4
   \   000017   45..         ORL     A,?V0 + 1
   \   000019   7005         JNZ     ??dht11_read_1
     93                  return DHT11_ERR_PARAM;
   \                     ??dht11_read_0:
   \   00001B   79FF         MOV     R1,#-0x1
   \   00001D   02....       LJMP    ??dht11_read_2 & 0xFFFF
     94              }
     95          
     96              rc = DHT11_OK;
     97          
     98              dht11_drive_low();
   \                     ??dht11_read_1:
   \   000020   53F5FE       ANL     0xf5,#0xfe
   \   000023   C2A0         CLR     0xa0.0
   \   000025   43FF01       ORL     0xff,#0x1
     99              delay_ms(20u);
   \   000028   75..14       MOV     ?V0 + 2,#0x14
   \   00002B   75..00       MOV     ?V0 + 3,#0x0
   \   00002E   8007         SJMP    ??dht11_read_3
   \                     ??dht11_read_4:
   \   000030                ; Setup parameters for call to function delay_us
   \   000030   7AE8         MOV     R2,#-0x18
   \   000032   7B03         MOV     R3,#0x3
   \   000034   12....       LCALL   ??delay_us?relay
   \                     ??dht11_read_3:
   \   000037   A8..         MOV     R0,?V0 + 2
   \   000039   A9..         MOV     R1,?V0 + 3
   \   00003B   E8           MOV     A,R0
   \   00003C   24FF         ADD     A,#-0x1
   \   00003E   F5..         MOV     ?V0 + 2,A
   \   000040   E9           MOV     A,R1
   \   000041   34FF         ADDC    A,#-0x1
   \   000043   F5..         MOV     ?V0 + 3,A
   \   000045   E8           MOV     A,R0
   \   000046   49           ORL     A,R1
   \   000047   70E7         JNZ     ??dht11_read_4
    100              dht11_drive_high();
   \   000049                ; Setup parameters for call to function dht11_drive_high
   \   000049   12....       LCALL   ??dht11_drive_high?relay
    101              delay_us(30u);
   \   00004C                ; Setup parameters for call to function delay_us
   \   00004C   7A1E         MOV     R2,#0x1e
   \   00004E   7B00         MOV     R3,#0x0
   \   000050   12....       LCALL   ??delay_us?relay
    102          
    103              dht11_input_mode();
   \   000053   53F5FE       ANL     0xf5,#0xfe
   \   000056   53FFFE       ANL     0xff,#0xfe
    104          
    105              if (!wait_level(0u, 100u)) {
   \   000059                ; Setup parameters for call to function wait_level
   \   000059   7A64         MOV     R2,#0x64
   \   00005B   7B00         MOV     R3,#0x0
   \   00005D   7900         MOV     R1,#0x0
   \   00005F   12....       LCALL   ??wait_level?relay
   \   000062   E9           MOV     A,R1
   \   000063   7008         JNZ     ??dht11_read_5
    106                  dht11_drive_high();
   \   000065                ; Setup parameters for call to function dht11_drive_high
   \   000065   12....       LCALL   ??dht11_drive_high?relay
    107                  return DHT11_ERR_RESP_LOW;
   \   000068   79FE         MOV     R1,#-0x2
   \   00006A   02....       LJMP    ??dht11_read_2 & 0xFFFF
    108              }
    109              if (!wait_level(1u, 100u)) {
   \                     ??dht11_read_5:
   \   00006D                ; Setup parameters for call to function wait_level
   \   00006D   7A64         MOV     R2,#0x64
   \   00006F   7B00         MOV     R3,#0x0
   \   000071   7901         MOV     R1,#0x1
   \   000073   12....       LCALL   ??wait_level?relay
   \   000076   E9           MOV     A,R1
   \   000077   7008         JNZ     ??dht11_read_6
    110                  dht11_drive_high();
   \   000079                ; Setup parameters for call to function dht11_drive_high
   \   000079   12....       LCALL   ??dht11_drive_high?relay
    111                  return DHT11_ERR_RESP_HIGH;
   \   00007C   79FD         MOV     R1,#-0x3
   \   00007E   02....       LJMP    ??dht11_read_2 & 0xFFFF
    112              }
    113              if (!wait_level(0u, 100u)) {
   \                     ??dht11_read_6:
   \   000081                ; Setup parameters for call to function wait_level
   \   000081   7A64         MOV     R2,#0x64
   \   000083   7B00         MOV     R3,#0x0
   \   000085   7900         MOV     R1,#0x0
   \   000087   12....       LCALL   ??wait_level?relay
   \   00008A   E9           MOV     A,R1
   \   00008B   7008         JNZ     ??dht11_read_7
    114                  dht11_drive_high();
   \   00008D                ; Setup parameters for call to function dht11_drive_high
   \   00008D   12....       LCALL   ??dht11_drive_high?relay
    115                  return DHT11_ERR_RESP_END;
   \   000090   79FC         MOV     R1,#-0x4
   \   000092   02....       LJMP    ??dht11_read_2 & 0xFFFF
    116              }
    117          
    118              {
    119                  halIntState_t int_state;
    120          
    121                  HAL_ENTER_CRITICAL_SECTION(int_state);
   \                     ??dht11_read_7:
   \   000095   A2AF         MOV     C,0xa8.7
   \   000097   E4           CLR     A
   \   000098   33           RLC     A
   \   000099   F5..         MOV     ?V0 + 5,A
   \   00009B   C2AF         CLR     0xa8.7
    122                  for (i = 0u; i < 5u; ++i) {
   \   00009D   75..00       MOV     ?V0 + 4,#0x0
    123                      b = 0u;
   \                     ??dht11_read_8:
   \   0000A0   75..00       MOV     ?V0 + 3,#0x0
    124                      for (j = 0u; j < 8u; ++j) {
   \   0000A3   75..08       MOV     ?V0 + 2,#0x8
    125                          if (!wait_level(1u, 100u)) {
   \                     ??dht11_read_9:
   \   0000A6                ; Setup parameters for call to function wait_level
   \   0000A6   7A64         MOV     R2,#0x64
   \   0000A8   7B00         MOV     R3,#0x0
   \   0000AA   7901         MOV     R1,#0x1
   \   0000AC   12....       LCALL   ??wait_level?relay
   \   0000AF   E9           MOV     A,R1
   \   0000B0   700E         JNZ     ??dht11_read_10
    126                              HAL_EXIT_CRITICAL_SECTION(int_state);
   \   0000B2   E5..         MOV     A,?V0 + 5
   \   0000B4   A2E0         MOV     C,0xE0 /* A   */.0
   \   0000B6   92AF         MOV     0xa8.7,C
    127                              dht11_drive_high();
   \   0000B8                ; Setup parameters for call to function dht11_drive_high
   \   0000B8   12....       LCALL   ??dht11_drive_high?relay
    128                              return DHT11_ERR_BIT_HIGH;
   \   0000BB   79FB         MOV     R1,#-0x5
   \   0000BD   02....       LJMP    ??dht11_read_2 & 0xFFFF
    129                          }
    130                          delay_us(30u);
   \                     ??dht11_read_10:
   \   0000C0                ; Setup parameters for call to function delay_us
   \   0000C0   7A1E         MOV     R2,#0x1e
   \   0000C2   7B00         MOV     R3,#0x0
   \   0000C4   12....       LCALL   ??delay_us?relay
    131                          b <<= 1;
   \   0000C7   E5..         MOV     A,?V0 + 3
   \   0000C9   C3           CLR     C
   \   0000CA   33           RLC     A
   \   0000CB   F5..         MOV     ?V0 + 3,A
    132                          if (dht11_get()) {
   \   0000CD   53F5FE       ANL     0xf5,#0xfe
   \   0000D0   A2A0         MOV     C,0xa0.0
   \   0000D2   5004         JNC     ??dht11_read_11
    133                              b |= 1u;
   \   0000D4   D2E0         SETB    0xE0 /* A   */.0
   \   0000D6   F5..         MOV     ?V0 + 3,A
    134                          }
    135                          if (!wait_level(0u, 100u)) {
   \                     ??dht11_read_11:
   \   0000D8                ; Setup parameters for call to function wait_level
   \   0000D8   7A64         MOV     R2,#0x64
   \   0000DA   7B00         MOV     R3,#0x0
   \   0000DC   7900         MOV     R1,#0x0
   \   0000DE   12....       LCALL   ??wait_level?relay
   \   0000E1   E9           MOV     A,R1
   \   0000E2   700E         JNZ     ??dht11_read_12
    136                              HAL_EXIT_CRITICAL_SECTION(int_state);
   \   0000E4   E5..         MOV     A,?V0 + 5
   \   0000E6   A2E0         MOV     C,0xE0 /* A   */.0
   \   0000E8   92AF         MOV     0xa8.7,C
    137                              dht11_drive_high();
   \   0000EA                ; Setup parameters for call to function dht11_drive_high
   \   0000EA   12....       LCALL   ??dht11_drive_high?relay
    138                              return DHT11_ERR_BIT_LOW;
   \   0000ED   79FA         MOV     R1,#-0x6
   \   0000EF   02....       LJMP    ??dht11_read_2 & 0xFFFF
    139                          }
    140                      }
   \                     ??dht11_read_12:
   \   0000F2   15..         DEC     ?V0 + 2
   \   0000F4   E5..         MOV     A,?V0 + 2
   \   0000F6   70AE         JNZ     ??dht11_read_9
    141                      data[i] = b;
   \   0000F8   85....       MOV     ?V0 + 2,?V0 + 4
   \   0000FB   85..82       MOV     DPL,?XSP + 0
   \   0000FE   85..83       MOV     DPH,?XSP + 1
   \   000101   E582         MOV     A,DPL
   \   000103   25..         ADD     A,?V0 + 2
   \   000105   F582         MOV     DPL,A
   \   000107   E583         MOV     A,DPH
   \   000109   3400         ADDC    A,#0x0
   \   00010B   F583         MOV     DPH,A
   \   00010D   E5..         MOV     A,?V0 + 3
   \   00010F   F0           MOVX    @DPTR,A
    142                  }
   \   000110   05..         INC     ?V0 + 4
   \   000112   E5..         MOV     A,?V0 + 4
   \   000114   C3           CLR     C
   \   000115   9405         SUBB    A,#0x5
   \   000117   4087         JC      ??dht11_read_8
    143                  HAL_EXIT_CRITICAL_SECTION(int_state);
   \   000119   E5..         MOV     A,?V0 + 5
   \   00011B   A2E0         MOV     C,0xE0 /* A   */.0
   \   00011D   92AF         MOV     0xa8.7,C
    144              }
    145          
    146              dht11_drive_high();
   \   00011F                ; Setup parameters for call to function dht11_drive_high
   \   00011F   12....       LCALL   ??dht11_drive_high?relay
    147          
    148              if (rc != DHT11_OK) {
    149                  return rc;
    150              }
    151          
    152              if ((uint8)(data[0] + data[1] + data[2] + data[3]) != data[4]) {
   \   000122   7403         MOV     A,#0x3
   \   000124   12....       LCALL   ?XSTACK_DISP0_8
   \   000127   C082         PUSH    DPL
   \   000129   C083         PUSH    DPH
   \   00012B   7402         MOV     A,#0x2
   \   00012D   12....       LCALL   ?XSTACK_DISP0_8
   \   000130   C082         PUSH    DPL
   \   000132   C083         PUSH    DPH
   \   000134   7401         MOV     A,#0x1
   \   000136   12....       LCALL   ?XSTACK_DISP0_8
   \   000139   C082         PUSH    DPL
   \   00013B   C083         PUSH    DPH
   \   00013D   85..82       MOV     DPL,?XSP + 0
   \   000140   85..83       MOV     DPH,?XSP + 1
   \   000143   E0           MOVX    A,@DPTR
   \   000144   D083         POP     DPH
   \   000146   D082         POP     DPL
   \   000148   F8           MOV     R0,A
   \   000149   E0           MOVX    A,@DPTR
   \   00014A   28           ADD     A,R0
   \   00014B   D083         POP     DPH
   \   00014D   D082         POP     DPL
   \   00014F   F8           MOV     R0,A
   \   000150   E0           MOVX    A,@DPTR
   \   000151   28           ADD     A,R0
   \   000152   D083         POP     DPH
   \   000154   D082         POP     DPL
   \   000156   F8           MOV     R0,A
   \   000157   E0           MOVX    A,@DPTR
   \   000158   28           ADD     A,R0
   \   000159   F8           MOV     R0,A
   \   00015A   7404         MOV     A,#0x4
   \   00015C   12....       LCALL   ?XSTACK_DISP0_8
   \   00015F   E0           MOVX    A,@DPTR
   \   000160   68           XRL     A,R0
   \   000161   6004         JZ      ??dht11_read_13
    153                  return DHT11_ERR_CHECKSUM;
   \   000163   79F9         MOV     R1,#-0x7
   \   000165   806F         SJMP    ??dht11_read_2
    154              }
    155          
    156              *hum_x100 = (uint16)((uint16)data[0] * 100u + (uint16)data[1]);
   \                     ??dht11_read_13:
   \   000167   85..82       MOV     DPL,?XSP + 0
   \   00016A   85..83       MOV     DPH,?XSP + 1
   \   00016D   E0           MOVX    A,@DPTR
   \   00016E   75F064       MOV     B,#0x64
   \   000171   A4           MUL     AB
   \   000172   F8           MOV     R0,A
   \   000173   7401         MOV     A,#0x1
   \   000175   12....       LCALL   ?XSTACK_DISP0_8
   \   000178   E0           MOVX    A,@DPTR
   \   000179   FA           MOV     R2,A
   \   00017A   E8           MOV     A,R0
   \   00017B   2A           ADD     A,R2
   \   00017C   F8           MOV     R0,A
   \   00017D   E5F0         MOV     A,B
   \   00017F   3400         ADDC    A,#0x0
   \   000181   F9           MOV     R1,A
   \   000182   85..82       MOV     DPL,?V0 + 0
   \   000185   85..83       MOV     DPH,?V0 + 1
   \   000188   E8           MOV     A,R0
   \   000189   F0           MOVX    @DPTR,A
   \   00018A   A3           INC     DPTR
   \   00018B   E9           MOV     A,R1
   \   00018C   F0           MOVX    @DPTR,A
    157              *temp_x100 = (int16)((int16)data[2] * 100 + (int16)(data[3] & 0x7Fu) * 10);
   \   00018D   7402         MOV     A,#0x2
   \   00018F   12....       LCALL   ?XSTACK_DISP0_8
   \   000192   E0           MOVX    A,@DPTR
   \   000193   75F064       MOV     B,#0x64
   \   000196   A4           MUL     AB
   \   000197   FA           MOV     R2,A
   \   000198   ABF0         MOV     R3,B
   \   00019A   7403         MOV     A,#0x3
   \   00019C   12....       LCALL   ?XSTACK_DISP0_8
   \   00019F   E0           MOVX    A,@DPTR
   \   0001A0   547F         ANL     A,#0x7f
   \   0001A2   75F00A       MOV     B,#0xa
   \   0001A5   A4           MUL     AB
   \   0001A6   F8           MOV     R0,A
   \   0001A7   A9F0         MOV     R1,B
   \   0001A9   EA           MOV     A,R2
   \   0001AA   28           ADD     A,R0
   \   0001AB   F8           MOV     R0,A
   \   0001AC   EB           MOV     A,R3
   \   0001AD   39           ADDC    A,R1
   \   0001AE   F9           MOV     R1,A
   \   0001AF   8E82         MOV     DPL,R6
   \   0001B1   8F83         MOV     DPH,R7
   \   0001B3   E8           MOV     A,R0
   \   0001B4   F0           MOVX    @DPTR,A
   \   0001B5   A3           INC     DPTR
   \   0001B6   E9           MOV     A,R1
   \   0001B7   F0           MOVX    @DPTR,A
    158              if (data[3] & 0x80u) {
   \   0001B8   7403         MOV     A,#0x3
   \   0001BA   12....       LCALL   ?XSTACK_DISP0_8
   \   0001BD   E0           MOVX    A,@DPTR
   \   0001BE   A2E7         MOV     C,0xE0 /* A   */.7
   \   0001C0   5012         JNC     ??dht11_read_14
    159                  *temp_x100 = (int16)(-(*temp_x100));
   \   0001C2   8E82         MOV     DPL,R6
   \   0001C4   8F83         MOV     DPH,R7
   \   0001C6   E0           MOVX    A,@DPTR
   \   0001C7   F8           MOV     R0,A
   \   0001C8   C3           CLR     C
   \   0001C9   E4           CLR     A
   \   0001CA   98           SUBB    A,R0
   \   0001CB   F8           MOV     R0,A
   \   0001CC   E4           CLR     A
   \   0001CD   99           SUBB    A,R1
   \   0001CE   F9           MOV     R1,A
   \   0001CF   E8           MOV     A,R0
   \   0001D0   F0           MOVX    @DPTR,A
   \   0001D1   A3           INC     DPTR
   \   0001D2   E9           MOV     A,R1
   \   0001D3   F0           MOVX    @DPTR,A
    160              }
    161          
    162              return DHT11_OK;
   \                     ??dht11_read_14:
   \   0001D4   7900         MOV     R1,#0x0
   \                     ??dht11_read_2:
   \   0001D6   7405         MOV     A,#0x5
   \   0001D8   12....       LCALL   ?DEALLOC_XSTACK8
   \   0001DB   7F06         MOV     R7,#0x6
   \   0001DD   02....       LJMP    ?BANKED_LEAVE_XDATA
   \   0001E0                REQUIRE _A_IEN0
   \   0001E0                REQUIRE _A_P2
   \   0001E0                REQUIRE P2SEL
   \   0001E0                REQUIRE P2DIR
    163          }

   \                                 In  segment BANK_RELAYS, align 1
   \                     ??dht11_drive_high?relay:
   \   000000   12....       LCALL   ?BDISPATCH
   \   000003   ......       DC24    dht11_drive_high

   \                                 In  segment BANK_RELAYS, align 1
   \                     ??delay_us?relay:
   \   000000   12....       LCALL   ?BDISPATCH
   \   000003   ......       DC24    delay_us

   \                                 In  segment BANK_RELAYS, align 1
   \                     ??dht11_init?relay:
   \   000000   12....       LCALL   ?BDISPATCH
   \   000003   ......       DC24    dht11_init

   \                                 In  segment BANK_RELAYS, align 1
   \                     ??wait_level?relay:
   \   000000   12....       LCALL   ?BDISPATCH
   \   000003   ......       DC24    wait_level

   \                                 In  segment BANK_RELAYS, align 1
   \                     ??dht11_read?relay:
   \   000000   12....       LCALL   ?BDISPATCH
   \   000003   ......       DC24    dht11_read

   Maximum stack usage in bytes:

     Function              ISTACK PSTACK XSTACK
     --------              ------ ------ ------
     delay_us                  0      0     19
     dht11_drive_high          0      0     19
     dht11_init                2      0      0
       -> dht11_drive_high     4      0      0
     dht11_read                6      0     19
       -> delay_us             0      0     38
       -> dht11_drive_high     0      0     38
       -> delay_us             0      0     38
       -> wait_level           0      0     38
       -> dht11_drive_high     0      0     38
       -> wait_level           0      0     38
       -> dht11_drive_high     0      0     38
       -> wait_level           0      0     38
       -> dht11_drive_high     0      0     38
       -> wait_level           0      0     38
       -> dht11_drive_high     0      0     38
       -> delay_us             0      0     38
       -> wait_level           0      0     38
       -> dht11_drive_high     0      0     38
       -> dht11_drive_high     0      0     38
     wait_level                0      0     28
       -> delay_us             0      0     18


   Segment part sizes:

     Function/Label           Bytes
     --------------           -----
     _A_P2                       1
     _A_IEN0                     1
     P2SEL                       1
     P2DIR                       1
     dht11_drive_high           11
     delay_us                   29
     dht11_init                 14
     wait_level                 58
     dht11_read                480
     ??dht11_drive_high?relay    6
     ??delay_us?relay            6
     ??dht11_init?relay          6
     ??wait_level?relay          6
     ??dht11_read?relay          6

 
 592 bytes in segment BANKED_CODE
  30 bytes in segment BANK_RELAYS
   4 bytes in segment SFR_AN
 
 622 bytes of CODE memory
   0 bytes of DATA memory (+ 4 bytes shared)

Errors: none
Warnings: 1
