///////////////////////////////////////////////////////////////////////////////
//                                                                            /
// IAR C/C++ Compiler V8.10.3.10338/W32 for 8051        20/Apr/2026  15:52:27 /
// Copyright 2004-2011 IAR Systems AB.                                        /
//                                                                            /
//    Core               =  plain                                             /
//    Code model         =  banked                                            /
//    Data model         =  large                                             /
//    Calling convention =  xdata reentrant                                   /
//    Constant location  =  data                                              /
//    Dptr setup         =  1,16                                              /
//    Source file        =  D:\ZNJJ\ZStack-CC2530-2.5.1a\Projects\zstack\Samp /
//                          les\ZbNode\Source\sensor_dht11.c                  /
//    Command line       =  -f D:\ZNJJ\ZStack-CC2530-2.5.1a\Projects\zstack\S /
//                          amples\ZbNode\CC2530DB\..\..\..\Tools\CC2530DB\f8 /
//                          wEndev.cfg (-DCPU32MHZ -DROOT=__near_func         /
//                          -DMAC_CFG_TX_DATA_MAX=3 -DMAC_CFG_TX_MAX=6        /
//                          -DMAC_CFG_RX_MAX=3) -f D:\ZNJJ\ZStack-CC2530-2.5. /
//                          1a\Projects\zstack\Samples\ZbNode\CC2530DB\..\..\ /
//                          ..\Tools\CC2530DB\f8wConfig.cfg (-DZIGBEEPRO      /
//                          -DSECURE=0 -DZG_SECURE_DYNAMIC=0 -DREFLECTOR      /
//                          -DDEFAULT_CHANLIST=0x00000800                     /
//                          -DZDAPP_CONFIG_PAN_ID=0xFFFF                      /
//                          -DNWK_START_DELAY=100 -DEXTENDED_JOINING_RANDOM_M /
//                          ASK=0x007F -DBEACON_REQUEST_DELAY=100             /
//                          -DBEACON_REQ_DELAY_MASK=0x00FF                    /
//                          -DLINK_STATUS_JITTER_MASK=0x007F                  /
//                          -DROUTE_EXPIRY_TIME=30 -DAPSC_ACK_WAIT_DURATION_P /
//                          OLLED=3000 -DNWK_INDIRECT_MSG_TIMEOUT=7           /
//                          -DMAX_RREQ_ENTRIES=8 -DAPSC_MAX_FRAME_RETRIES=3   /
//                          -DNWK_MAX_DATA_RETRIES=2                          /
//                          -DMAX_POLL_FAILURE_RETRIES=2 -DMAX_BCAST=9        /
//                          -DAPS_MAX_GROUPS=16 -DMAX_RTG_ENTRIES=40          /
//                          -DNWK_MAX_BINDING_ENTRIES=4                       /
//                          -DMAX_BINDING_CLUSTER_IDS=4                       /
//                          "-DDEFAULT_KEY={0x01, 0x03, 0x05, 0x07, 0x09,     /
//                          0x0B, 0x0D, 0x0F, 0x00, 0x02, 0x04, 0x06, 0x08,   /
//                          0x0A, 0x0C, 0x0D}" -DMAC_MAX_FRAME_SIZE=116       /
//                          -DZDNWKMGR_MIN_TRANSMISSIONS=20 "-DCONST=const    /
//                          __code" -DGENERIC=__generic                       /
//                          -DRFD_RCVC_ALWAYS_ON=FALSE -DPOLL_RATE=1000       /
//                          -DQUEUED_POLL_RATE=100 -DRESPONSE_POLL_RATE=100)  /
//                          -DREJOIN_POLL_RATE=440 D:\ZNJJ\ZStack-CC2530-2.5. /
//                          1a\Projects\zstack\Samples\ZbNode\Source\sensor_d /
//                          ht11.c -D NWK_AUTO_POLL -D NODE_ROLE=2 -D         /
//                          HAL_UART=TRUE -D HAL_LCD=FALSE -lC                /
//                          D:\ZNJJ\ZStack-CC2530-2.5.1a\Projects\zstack\Samp /
//                          les\ZbNode\CC2530DB\Node2_EndDeviceEB\List\ -lA   /
//                          D:\ZNJJ\ZStack-CC2530-2.5.1a\Projects\zstack\Samp /
//                          les\ZbNode\CC2530DB\Node2_EndDeviceEB\List\       /
//                          --diag_suppress Pe001,Pa010 -o                    /
//                          D:\ZNJJ\ZStack-CC2530-2.5.1a\Projects\zstack\Samp /
//                          les\ZbNode\CC2530DB\Node2_EndDeviceEB\Obj\ -e     /
//                          --no_code_motion --debug --core=plain             /
//                          --dptr=16,1 --data_model=large                    /
//                          --code_model=banked --calling_convention=xdata_re /
//                          entrant --place_constants=data --nr_virtual_regs  /
//                          16 -I D:\ZNJJ\ZStack-CC2530-2.5.1a\Projects\zstac /
//                          k\Samples\ZbNode\CC2530DB\ -I                     /
//                          D:\ZNJJ\ZStack-CC2530-2.5.1a\Projects\zstack\Samp /
//                          les\ZbNode\CC2530DB\..\Source\ -I                 /
//                          D:\ZNJJ\ZStack-CC2530-2.5.1a\Projects\zstack\Samp /
//                          les\ZbNode\CC2530DB\..\..\..\ZMain\TI2530DB\ -I   /
//                          D:\ZNJJ\ZStack-CC2530-2.5.1a\Projects\zstack\Samp /
//                          les\ZbNode\CC2530DB\..\..\..\..\..\Components\hal /
//                          \include\ -I D:\ZNJJ\ZStack-CC2530-2.5.1a\Project /
//                          s\zstack\Samples\ZbNode\CC2530DB\..\..\..\..\..\C /
//                          omponents\hal\target\CC2530EB\ -I                 /
//                          D:\ZNJJ\ZStack-CC2530-2.5.1a\Projects\zstack\Samp /
//                          les\ZbNode\CC2530DB\..\..\..\..\..\Components\mac /
//                          \include\ -I D:\ZNJJ\ZStack-CC2530-2.5.1a\Project /
//                          s\zstack\Samples\ZbNode\CC2530DB\..\..\..\..\..\C /
//                          omponents\mac\high_level\ -I                      /
//                          D:\ZNJJ\ZStack-CC2530-2.5.1a\Projects\zstack\Samp /
//                          les\ZbNode\CC2530DB\..\..\..\..\..\Components\mac /
//                          \low_level\srf04\ -I D:\ZNJJ\ZStack-CC2530-2.5.1a /
//                          \Projects\zstack\Samples\ZbNode\CC2530DB\..\..\.. /
//                          \..\..\Components\mac\low_level\srf04\single_chip /
//                          \ -I D:\ZNJJ\ZStack-CC2530-2.5.1a\Projects\zstack /
//                          \Samples\ZbNode\CC2530DB\..\..\..\..\..\Component /
//                          s\mt\ -I D:\ZNJJ\ZStack-CC2530-2.5.1a\Projects\zs /
//                          tack\Samples\ZbNode\CC2530DB\..\..\..\..\..\Compo /
//                          nents\osal\include\ -I D:\ZNJJ\ZStack-CC2530-2.5. /
//                          1a\Projects\zstack\Samples\ZbNode\CC2530DB\..\..\ /
//                          ..\..\..\Components\services\saddr\ -I            /
//                          D:\ZNJJ\ZStack-CC2530-2.5.1a\Projects\zstack\Samp /
//                          les\ZbNode\CC2530DB\..\..\..\..\..\Components\ser /
//                          vices\sdata\ -I D:\ZNJJ\ZStack-CC2530-2.5.1a\Proj /
//                          ects\zstack\Samples\ZbNode\CC2530DB\..\..\..\..\. /
//                          .\Components\stack\af\ -I                         /
//                          D:\ZNJJ\ZStack-CC2530-2.5.1a\Projects\zstack\Samp /
//                          les\ZbNode\CC2530DB\..\..\..\..\..\Components\sta /
//                          ck\nwk\ -I D:\ZNJJ\ZStack-CC2530-2.5.1a\Projects\ /
//                          zstack\Samples\ZbNode\CC2530DB\..\..\..\..\..\Com /
//                          ponents\stack\sapi\ -I D:\ZNJJ\ZStack-CC2530-2.5. /
//                          1a\Projects\zstack\Samples\ZbNode\CC2530DB\..\..\ /
//                          ..\..\..\Components\stack\sec\ -I                 /
//                          D:\ZNJJ\ZStack-CC2530-2.5.1a\Projects\zstack\Samp /
//                          les\ZbNode\CC2530DB\..\..\..\..\..\Components\sta /
//                          ck\sys\ -I D:\ZNJJ\ZStack-CC2530-2.5.1a\Projects\ /
//                          zstack\Samples\ZbNode\CC2530DB\..\..\..\..\..\Com /
//                          ponents\stack\zdo\ -I D:\ZNJJ\ZStack-CC2530-2.5.1 /
//                          a\Projects\zstack\Samples\ZbNode\CC2530DB\..\..\. /
//                          .\..\..\Components\zmac\ -I                       /
//                          D:\ZNJJ\ZStack-CC2530-2.5.1a\Projects\zstack\Samp /
//                          les\ZbNode\CC2530DB\..\..\..\..\..\Components\zma /
//                          c\f8w\ -Ohz --require_prototypes                  /
//    List file          =  D:\ZNJJ\ZStack-CC2530-2.5.1a\Projects\zstack\Samp /
//                          les\ZbNode\CC2530DB\Node2_EndDeviceEB\List\sensor /
//                          _dht11.s51                                        /
//                                                                            /
//                                                                            /
///////////////////////////////////////////////////////////////////////////////

        NAME sensor_dht11

        RTMODEL "__SystemLibrary", "CLib"
        RTMODEL "__calling_convention", "xdata_reentrant"
        RTMODEL "__code_model", "banked"
        RTMODEL "__core", "plain"
        RTMODEL "__data_model", "large"
        RTMODEL "__dptr_size", "16"
        RTMODEL "__extended_stack", "disabled"
        RTMODEL "__location_for_constants", "data"
        RTMODEL "__number_of_dptrs", "1"
        RTMODEL "__rt_version", "1"

        RSEG DOVERLAY:DATA:NOROOT(0)
        RSEG IOVERLAY:IDATA:NOROOT(0)
        RSEG ISTACK:IDATA:NOROOT(0)
        RSEG PSTACK:XDATA:NOROOT(0)
        RSEG XSTACK:XDATA:NOROOT(0)

        EXTERN ?ALLOC_XSTACK8
        EXTERN ?BANKED_ENTER_XDATA
        EXTERN ?BANKED_LEAVE_XDATA
        EXTERN ?BDISPATCH
        EXTERN ?BRET
        EXTERN ?DEALLOC_XSTACK8
        EXTERN ?V0
        EXTERN ?XSP
        EXTERN ?XSTACK_DISP0_8

        FUNCTION ??delay_us?relay,0203H
        FUNCTION ??dht11_drive_high?relay,0203H
        PUBLIC ??dht11_init?relay
        FUNCTION ??dht11_init?relay,0203H
        PUBLIC ??dht11_read?relay
        FUNCTION ??dht11_read?relay,0203H
        FUNCTION ??wait_level?relay,0203H
        PUBWEAK P2DIR
        PUBWEAK P2SEL
        PUBWEAK _A_IEN0
        PUBWEAK _A_P2
        FUNCTION delay_us,080203H
        ARGFRAME XSTACK, 19, STACK
        ARGFRAME IOVERLAY, 0, STATIC
        ARGFRAME DOVERLAY, 0, STATIC
        FUNCTION dht11_drive_high,0203H
        ARGFRAME XSTACK, 19, STACK
        ARGFRAME IOVERLAY, 0, STATIC
        ARGFRAME DOVERLAY, 0, STATIC
        PUBLIC dht11_init
        FUNCTION dht11_init,021203H
        ARGFRAME XSTACK, 0, STACK
        LOCFRAME ISTACK, 2, STACK
        PUBLIC dht11_read
        FUNCTION dht11_read,021203H
        ARGFRAME XSTACK, 0, STACK
        LOCFRAME ISTACK, 6, STACK
        LOCFRAME XSTACK, 19, STACK
        FUNCTION wait_level,021203H
        ARGFRAME XSTACK, 19, STACK
        ARGFRAME IOVERLAY, 0, STATIC
        ARGFRAME DOVERLAY, 0, STATIC
        LOCFRAME XSTACK, 9, STACK
        
        CFI Names cfiNames0
        CFI StackFrame CFA_SP SP IDATA
        CFI StackFrame CFA_PSP16 PSP16 XDATA
        CFI StackFrame CFA_XSP16 XSP16 XDATA
        CFI StaticOverlayFrame CFA_IOVERLAY IOVERLAY
        CFI StaticOverlayFrame CFA_DOVERLAY DOVERLAY
        CFI Resource `PSW.CY`:1, `B.BR0`:1, `B.BR1`:1, `B.BR2`:1, `B.BR3`:1
        CFI Resource `B.BR4`:1, `B.BR5`:1, `B.BR6`:1, `B.BR7`:1, `VB.BR8`:1
        CFI Resource `VB.BR9`:1, `VB.BR10`:1, `VB.BR11`:1, `VB.BR12`:1
        CFI Resource `VB.BR13`:1, `VB.BR14`:1, `VB.BR15`:1, VB:8, B:8, A:8
        CFI Resource PSW:8, DPL0:8, DPH0:8, R0:8, R1:8, R2:8, R3:8, R4:8, R5:8
        CFI Resource R6:8, R7:8, V0:8, V1:8, V2:8, V3:8, V4:8, V5:8, V6:8, V7:8
        CFI Resource V8:8, V9:8, V10:8, V11:8, V12:8, V13:8, V14:8, V15:8, SP:8
        CFI Resource PSPH:8, PSPL:8, PSP16:16, XSPH:8, XSPL:8, XSP16:16
        CFI VirtualResource ?RET:24
        CFI Resource ?BRET_EXT:8
        CFI VirtualResource ?RET_HIGH:8, ?RET_LOW:8
        CFI ResourceParts PSP16 PSPH, PSPL
        CFI ResourceParts XSP16 XSPH, XSPL
        CFI ResourceParts ?RET ?BRET_EXT, ?RET_HIGH, ?RET_LOW
        CFI EndNames cfiNames0
        
        CFI Common cfiCommon0 Using cfiNames0
        CFI CodeAlign 1
        CFI DataAlign -1
        CFI ReturnAddress ?RET CODE
        CFI CFA_DOVERLAY Used
        CFI CFA_IOVERLAY Used
        CFI CFA_SP SP+-3
        CFI CFA_PSP16 PSP16+0
        CFI CFA_XSP16 XSP16+0
        CFI `PSW.CY` SameValue
        CFI `B.BR0` SameValue
        CFI `B.BR1` SameValue
        CFI `B.BR2` SameValue
        CFI `B.BR3` SameValue
        CFI `B.BR4` SameValue
        CFI `B.BR5` SameValue
        CFI `B.BR6` SameValue
        CFI `B.BR7` SameValue
        CFI `VB.BR8` SameValue
        CFI `VB.BR9` SameValue
        CFI `VB.BR10` SameValue
        CFI `VB.BR11` SameValue
        CFI `VB.BR12` SameValue
        CFI `VB.BR13` SameValue
        CFI `VB.BR14` SameValue
        CFI `VB.BR15` SameValue
        CFI VB SameValue
        CFI B Undefined
        CFI A Undefined
        CFI PSW SameValue
        CFI DPL0 SameValue
        CFI DPH0 SameValue
        CFI R0 Undefined
        CFI R1 Undefined
        CFI R2 Undefined
        CFI R3 Undefined
        CFI R4 Undefined
        CFI R5 Undefined
        CFI R6 SameValue
        CFI R7 SameValue
        CFI V0 SameValue
        CFI V1 SameValue
        CFI V2 SameValue
        CFI V3 SameValue
        CFI V4 SameValue
        CFI V5 SameValue
        CFI V6 SameValue
        CFI V7 SameValue
        CFI V8 SameValue
        CFI V9 SameValue
        CFI V10 SameValue
        CFI V11 SameValue
        CFI V12 SameValue
        CFI V13 SameValue
        CFI V14 SameValue
        CFI V15 SameValue
        CFI PSPH Undefined
        CFI PSPL Undefined
        CFI XSPH Undefined
        CFI XSPL Undefined
        CFI ?RET Concat
        CFI ?BRET_EXT Frame(CFA_SP, 3)
        CFI ?RET_HIGH Frame(CFA_SP, 2)
        CFI ?RET_LOW Frame(CFA_SP, 1)
        CFI EndCommon cfiCommon0
        
dht11_init          SYMBOL "dht11_init"
??dht11_init?relay  SYMBOL "?relay", dht11_init
dht11_read          SYMBOL "dht11_read"
??dht11_read?relay  SYMBOL "?relay", dht11_read

// D:\ZNJJ\ZStack-CC2530-2.5.1a\Projects\zstack\Samples\ZbNode\Source\sensor_dht11.c
//    1 /*
//    2  * DHT11 single-wire driver on CC2530 P2.0.
//    3  *
//    4  * The board provides an external 10k pull-up. Follow the reference start
//    5  * sequence: drive low >=18 ms, drive high for 20~40 us, then switch to input
//    6  * to sample the sensor response. Timing assumes the system is already running
//    7  * on the existing 32 MHz XOSC configuration used by the project.
//    8  */
//    9 
//   10 #include "sensor_dht11.h"
//   11 #include "board_e18ms1.h"
//   12 #include "ioCC2530.h"

        ASEGN SFR_AN:DATA:NOROOT,0a0H
// union <unnamed> volatile __sfr _A_P2
_A_P2:
        DATA8
        DS 1

        ASEGN SFR_AN:DATA:NOROOT,0a8H
// union <unnamed> volatile __sfr _A_IEN0
_A_IEN0:
        DATA8
        DS 1

        ASEGN SFR_AN:DATA:NOROOT,0f5H
// unsigned char volatile __sfr P2SEL
P2SEL:
        DATA8
        DS 1

        ASEGN SFR_AN:DATA:NOROOT,0ffH
// unsigned char volatile __sfr P2DIR
P2DIR:
        DATA8
        DS 1
//   13 #include "hal_mcu.h"
//   14 
//   15 #define DHT11_BIT_MASK  ((uint8)(1u << NODE_DHT11_PIN))
//   16 
//   17 static void dht11_gpio_mode(void)
//   18 {
//   19     P2SEL &= (uint8)~DHT11_BIT_MASK;
//   20 }
//   21 
//   22 static void dht11_drive_low(void)
//   23 {
//   24     dht11_gpio_mode();
//   25     P2 &= (uint8)~DHT11_BIT_MASK;
//   26     P2DIR |= DHT11_BIT_MASK;
//   27 }
//   28 

        RSEG BANKED_CODE:CODE:NOROOT(0)
//   29 static void dht11_drive_high(void)
dht11_drive_high:
        CFI Block cfiBlock0 Using cfiCommon0
        CFI Function dht11_drive_high
        CODE
//   30 {
        ; Saved register size: 0
        ; Auto size: 0
//   31     dht11_gpio_mode();
        ANL     0xf5,#0xfe
//   32     P2 |= DHT11_BIT_MASK;
        SETB    0xa0.0
//   33     P2DIR |= DHT11_BIT_MASK;
        ORL     0xff,#0x1
//   34 }
        LJMP    ?BRET
        CFI EndBlock cfiBlock0
        REQUIRE _A_P2
        REQUIRE P2DIR
        REQUIRE P2SEL
//   35 
//   36 static void dht11_input_mode(void)
//   37 {
//   38     dht11_gpio_mode();
//   39     P2DIR &= (uint8)~DHT11_BIT_MASK;
//   40 }
//   41 
//   42 static uint8 dht11_get(void)
//   43 {
//   44     dht11_gpio_mode();
//   45     return (uint8)((P2 & DHT11_BIT_MASK) ? 1u : 0u);
//   46 }
//   47 

        RSEG BANKED_CODE:CODE:NOROOT(0)
//   48 static void delay_us(uint16 us)
delay_us:
        CFI Block cfiBlock1 Using cfiCommon0
        CFI Function delay_us
        CODE
//   49 {
        ; Saved register size: 0
        ; Auto size: 0
        SJMP    ??delay_us_0
//   50     while (us--) {
//   51         asm("NOP");
??delay_us_1:
        NOP
//   52         asm("NOP");
        NOP
//   53         asm("NOP");
        NOP
//   54         asm("NOP");
        NOP
//   55         asm("NOP");
        NOP
//   56         asm("NOP");
        NOP
//   57         asm("NOP");
        NOP
//   58         asm("NOP");
        NOP
//   59     }
??delay_us_0:
        MOV     A,R2
        MOV     R0,A
        MOV     A,R3
        MOV     R1,A
        MOV     A,R0
        ADD     A,#-0x1
        DEC     R2
        MOV     A,R1
        ADDC    A,#-0x1
        MOV     R3,A
        MOV     A,R0
        ORL     A,R1
        JNZ     ??delay_us_1
//   60 }
        LJMP    ?BRET
        CFI EndBlock cfiBlock1
//   61 
//   62 static void delay_ms(uint16 ms)
//   63 {
//   64     while (ms--) {
//   65         delay_us(1000u);
//   66     }
//   67 }
//   68 

        RSEG BANKED_CODE:CODE:NOROOT(0)
//   69 void dht11_init(void)
dht11_init:
        CFI Block cfiBlock2 Using cfiCommon0
        CFI Function dht11_init
        CODE
//   70 {
        FUNCALL dht11_init, dht11_drive_high
        LOCFRAME ISTACK, 2, STACK
        LOCFRAME PSTACK, 0, STACK
        LOCFRAME XSTACK, 0, STACK
        LOCFRAME IOVERLAY, 0, STATIC
        LOCFRAME DOVERLAY, 0, STATIC
        ARGFRAME ISTACK, 2, STACK
        ARGFRAME PSTACK, 0, STACK
        ARGFRAME XSTACK, 0, STACK
        ARGFRAME IOVERLAY, 0, STATIC
        ARGFRAME DOVERLAY, 0, STATIC
        PUSH    DPL
        CFI DPL0 Frame(CFA_SP, 4)
        CFI CFA_SP SP+-4
        PUSH    DPH
        CFI DPH0 Frame(CFA_SP, 5)
        CFI CFA_SP SP+-5
        ; Saved register size: 2
        ; Auto size: 0
//   71     dht11_drive_high();
        ; Setup parameters for call to function dht11_drive_high
        LCALL   ??dht11_drive_high?relay
//   72 }
        POP     DPH
        CFI DPH0 SameValue
        CFI CFA_SP SP+-4
        POP     DPL
        CFI DPL0 SameValue
        CFI CFA_SP SP+-3
        LJMP    ?BRET
        CFI EndBlock cfiBlock2
//   73 

        RSEG BANKED_CODE:CODE:NOROOT(0)
//   74 static uint8 wait_level(uint8 expect, uint16 timeout_us)
wait_level:
        CFI Block cfiBlock3 Using cfiCommon0
        CFI Function wait_level
        CODE
//   75 {
        FUNCALL wait_level, delay_us
        LOCFRAME ISTACK, 0, STACK
        LOCFRAME PSTACK, 0, STACK
        LOCFRAME XSTACK, 9, STACK
        LOCFRAME IOVERLAY, 0, STATIC
        LOCFRAME DOVERLAY, 0, STATIC
        ARGFRAME ISTACK, 0, STACK
        ARGFRAME PSTACK, 0, STACK
        ARGFRAME XSTACK, 9, STACK
        ARGFRAME IOVERLAY, 0, STATIC
        ARGFRAME DOVERLAY, 0, STATIC
        MOV     A,#-0x9
        LCALL   ?BANKED_ENTER_XDATA
        CFI DPH0 load(1, XDATA, add(CFA_XSP16, literal(-1)))
        CFI DPL0 load(1, XDATA, add(CFA_XSP16, literal(-2)))
        CFI ?BRET_EXT load(1, XDATA, add(CFA_XSP16, literal(-3)))
        CFI ?RET_HIGH load(1, XDATA, add(CFA_XSP16, literal(-4)))
        CFI ?RET_LOW load(1, XDATA, add(CFA_XSP16, literal(-5)))
        CFI R7 load(1, XDATA, add(CFA_XSP16, literal(-6)))
        CFI V0 load(1, XDATA, add(CFA_XSP16, literal(-7)))
        CFI VB load(1, XDATA, add(CFA_XSP16, literal(-8)))
        CFI R6 load(1, XDATA, add(CFA_XSP16, literal(-9)))
        CFI CFA_SP SP+0
        CFI CFA_XSP16 add(XSP16, 9)
        ; Saved register size: 9
        ; Auto size: 0
        MOV     ?V0 + 0,R1
        MOV     A,R2
        MOV     R6,A
        MOV     A,R3
        MOV     R7,A
        SJMP    ??wait_level_0
//   76     while (timeout_us--) {
//   77         if (dht11_get() == expect) {
//   78             return 1u;
//   79         }
//   80         delay_us(1u);
??wait_level_1:
        ; Setup parameters for call to function delay_us
        MOV     R2,#0x1
        MOV     R3,#0x0
        LCALL   ??delay_us?relay
??wait_level_0:
        MOV     A,R6
        MOV     R0,A
        MOV     A,R7
        MOV     R1,A
        MOV     A,R0
        ADD     A,#-0x1
        DEC     R6
        MOV     A,R1
        ADDC    A,#-0x1
        MOV     R7,A
        MOV     A,R0
        ORL     A,R1
        JZ      ??wait_level_2
        ANL     0xf5,#0xfe
        MOV     C,0xa0.0
        CLR     A
        RLC     A
        XRL     A,?V0 + 0
        JNZ     ??wait_level_1
        MOV     R1,#0x1
        SJMP    ??wait_level_3
//   81     }
//   82     return 0u;
??wait_level_2:
        MOV     R1,#0x0
??wait_level_3:
        MOV     R7,#0x1
        LJMP    ?BANKED_LEAVE_XDATA
        CFI EndBlock cfiBlock3
        REQUIRE _A_P2
        REQUIRE P2SEL
//   83 }
//   84 

        RSEG BANKED_CODE:CODE:NOROOT(0)
//   85 int8 dht11_read(int16 *temp_x100, uint16 *hum_x100)
dht11_read:
        CFI Block cfiBlock4 Using cfiCommon0
        CFI Function dht11_read
        CODE
//   86 {
        FUNCALL dht11_read, delay_us
        LOCFRAME ISTACK, 0, STACK
        LOCFRAME PSTACK, 0, STACK
        LOCFRAME XSTACK, 19, STACK
        LOCFRAME IOVERLAY, 0, STATIC
        LOCFRAME DOVERLAY, 0, STATIC
        ARGFRAME ISTACK, 0, STACK
        ARGFRAME PSTACK, 0, STACK
        ARGFRAME XSTACK, 19, STACK
        ARGFRAME IOVERLAY, 0, STATIC
        ARGFRAME DOVERLAY, 0, STATIC
        FUNCALL dht11_read, dht11_drive_high
        LOCFRAME ISTACK, 0, STACK
        LOCFRAME PSTACK, 0, STACK
        LOCFRAME XSTACK, 19, STACK
        LOCFRAME IOVERLAY, 0, STATIC
        LOCFRAME DOVERLAY, 0, STATIC
        ARGFRAME ISTACK, 0, STACK
        ARGFRAME PSTACK, 0, STACK
        ARGFRAME XSTACK, 19, STACK
        ARGFRAME IOVERLAY, 0, STATIC
        ARGFRAME DOVERLAY, 0, STATIC
        FUNCALL dht11_read, delay_us
        LOCFRAME ISTACK, 0, STACK
        LOCFRAME PSTACK, 0, STACK
        LOCFRAME XSTACK, 19, STACK
        LOCFRAME IOVERLAY, 0, STATIC
        LOCFRAME DOVERLAY, 0, STATIC
        ARGFRAME ISTACK, 0, STACK
        ARGFRAME PSTACK, 0, STACK
        ARGFRAME XSTACK, 19, STACK
        ARGFRAME IOVERLAY, 0, STATIC
        ARGFRAME DOVERLAY, 0, STATIC
        FUNCALL dht11_read, wait_level
        LOCFRAME ISTACK, 0, STACK
        LOCFRAME PSTACK, 0, STACK
        LOCFRAME XSTACK, 19, STACK
        LOCFRAME IOVERLAY, 0, STATIC
        LOCFRAME DOVERLAY, 0, STATIC
        ARGFRAME ISTACK, 0, STACK
        ARGFRAME PSTACK, 0, STACK
        ARGFRAME XSTACK, 19, STACK
        ARGFRAME IOVERLAY, 0, STATIC
        ARGFRAME DOVERLAY, 0, STATIC
        FUNCALL dht11_read, dht11_drive_high
        LOCFRAME ISTACK, 0, STACK
        LOCFRAME PSTACK, 0, STACK
        LOCFRAME XSTACK, 19, STACK
        LOCFRAME IOVERLAY, 0, STATIC
        LOCFRAME DOVERLAY, 0, STATIC
        ARGFRAME ISTACK, 0, STACK
        ARGFRAME PSTACK, 0, STACK
        ARGFRAME XSTACK, 19, STACK
        ARGFRAME IOVERLAY, 0, STATIC
        ARGFRAME DOVERLAY, 0, STATIC
        FUNCALL dht11_read, wait_level
        LOCFRAME ISTACK, 0, STACK
        LOCFRAME PSTACK, 0, STACK
        LOCFRAME XSTACK, 19, STACK
        LOCFRAME IOVERLAY, 0, STATIC
        LOCFRAME DOVERLAY, 0, STATIC
        ARGFRAME ISTACK, 0, STACK
        ARGFRAME PSTACK, 0, STACK
        ARGFRAME XSTACK, 19, STACK
        ARGFRAME IOVERLAY, 0, STATIC
        ARGFRAME DOVERLAY, 0, STATIC
        FUNCALL dht11_read, dht11_drive_high
        LOCFRAME ISTACK, 0, STACK
        LOCFRAME PSTACK, 0, STACK
        LOCFRAME XSTACK, 19, STACK
        LOCFRAME IOVERLAY, 0, STATIC
        LOCFRAME DOVERLAY, 0, STATIC
        ARGFRAME ISTACK, 0, STACK
        ARGFRAME PSTACK, 0, STACK
        ARGFRAME XSTACK, 19, STACK
        ARGFRAME IOVERLAY, 0, STATIC
        ARGFRAME DOVERLAY, 0, STATIC
        FUNCALL dht11_read, wait_level
        LOCFRAME ISTACK, 0, STACK
        LOCFRAME PSTACK, 0, STACK
        LOCFRAME XSTACK, 19, STACK
        LOCFRAME IOVERLAY, 0, STATIC
        LOCFRAME DOVERLAY, 0, STATIC
        ARGFRAME ISTACK, 0, STACK
        ARGFRAME PSTACK, 0, STACK
        ARGFRAME XSTACK, 19, STACK
        ARGFRAME IOVERLAY, 0, STATIC
        ARGFRAME DOVERLAY, 0, STATIC
        FUNCALL dht11_read, dht11_drive_high
        LOCFRAME ISTACK, 0, STACK
        LOCFRAME PSTACK, 0, STACK
        LOCFRAME XSTACK, 19, STACK
        LOCFRAME IOVERLAY, 0, STATIC
        LOCFRAME DOVERLAY, 0, STATIC
        ARGFRAME ISTACK, 0, STACK
        ARGFRAME PSTACK, 0, STACK
        ARGFRAME XSTACK, 19, STACK
        ARGFRAME IOVERLAY, 0, STATIC
        ARGFRAME DOVERLAY, 0, STATIC
        FUNCALL dht11_read, wait_level
        LOCFRAME ISTACK, 0, STACK
        LOCFRAME PSTACK, 0, STACK
        LOCFRAME XSTACK, 19, STACK
        LOCFRAME IOVERLAY, 0, STATIC
        LOCFRAME DOVERLAY, 0, STATIC
        ARGFRAME ISTACK, 0, STACK
        ARGFRAME PSTACK, 0, STACK
        ARGFRAME XSTACK, 19, STACK
        ARGFRAME IOVERLAY, 0, STATIC
        ARGFRAME DOVERLAY, 0, STATIC
        FUNCALL dht11_read, dht11_drive_high
        LOCFRAME ISTACK, 0, STACK
        LOCFRAME PSTACK, 0, STACK
        LOCFRAME XSTACK, 19, STACK
        LOCFRAME IOVERLAY, 0, STATIC
        LOCFRAME DOVERLAY, 0, STATIC
        ARGFRAME ISTACK, 0, STACK
        ARGFRAME PSTACK, 0, STACK
        ARGFRAME XSTACK, 19, STACK
        ARGFRAME IOVERLAY, 0, STATIC
        ARGFRAME DOVERLAY, 0, STATIC
        FUNCALL dht11_read, delay_us
        LOCFRAME ISTACK, 0, STACK
        LOCFRAME PSTACK, 0, STACK
        LOCFRAME XSTACK, 19, STACK
        LOCFRAME IOVERLAY, 0, STATIC
        LOCFRAME DOVERLAY, 0, STATIC
        ARGFRAME ISTACK, 0, STACK
        ARGFRAME PSTACK, 0, STACK
        ARGFRAME XSTACK, 19, STACK
        ARGFRAME IOVERLAY, 0, STATIC
        ARGFRAME DOVERLAY, 0, STATIC
        FUNCALL dht11_read, wait_level
        LOCFRAME ISTACK, 0, STACK
        LOCFRAME PSTACK, 0, STACK
        LOCFRAME XSTACK, 19, STACK
        LOCFRAME IOVERLAY, 0, STATIC
        LOCFRAME DOVERLAY, 0, STATIC
        ARGFRAME ISTACK, 0, STACK
        ARGFRAME PSTACK, 0, STACK
        ARGFRAME XSTACK, 19, STACK
        ARGFRAME IOVERLAY, 0, STATIC
        ARGFRAME DOVERLAY, 0, STATIC
        FUNCALL dht11_read, dht11_drive_high
        LOCFRAME ISTACK, 0, STACK
        LOCFRAME PSTACK, 0, STACK
        LOCFRAME XSTACK, 19, STACK
        LOCFRAME IOVERLAY, 0, STATIC
        LOCFRAME DOVERLAY, 0, STATIC
        ARGFRAME ISTACK, 0, STACK
        ARGFRAME PSTACK, 0, STACK
        ARGFRAME XSTACK, 19, STACK
        ARGFRAME IOVERLAY, 0, STATIC
        ARGFRAME DOVERLAY, 0, STATIC
        FUNCALL dht11_read, dht11_drive_high
        LOCFRAME ISTACK, 0, STACK
        LOCFRAME PSTACK, 0, STACK
        LOCFRAME XSTACK, 19, STACK
        LOCFRAME IOVERLAY, 0, STATIC
        LOCFRAME DOVERLAY, 0, STATIC
        ARGFRAME ISTACK, 0, STACK
        ARGFRAME PSTACK, 0, STACK
        ARGFRAME XSTACK, 19, STACK
        ARGFRAME IOVERLAY, 0, STATIC
        ARGFRAME DOVERLAY, 0, STATIC
        MOV     A,#-0xe
        LCALL   ?BANKED_ENTER_XDATA
        CFI DPH0 load(1, XDATA, add(CFA_XSP16, literal(-1)))
        CFI DPL0 load(1, XDATA, add(CFA_XSP16, literal(-2)))
        CFI ?BRET_EXT load(1, XDATA, add(CFA_XSP16, literal(-3)))
        CFI ?RET_HIGH load(1, XDATA, add(CFA_XSP16, literal(-4)))
        CFI ?RET_LOW load(1, XDATA, add(CFA_XSP16, literal(-5)))
        CFI R7 load(1, XDATA, add(CFA_XSP16, literal(-6)))
        CFI V5 load(1, XDATA, add(CFA_XSP16, literal(-7)))
        CFI V4 load(1, XDATA, add(CFA_XSP16, literal(-8)))
        CFI V3 load(1, XDATA, add(CFA_XSP16, literal(-9)))
        CFI V2 load(1, XDATA, add(CFA_XSP16, literal(-10)))
        CFI V1 load(1, XDATA, add(CFA_XSP16, literal(-11)))
        CFI V0 load(1, XDATA, add(CFA_XSP16, literal(-12)))
        CFI VB load(1, XDATA, add(CFA_XSP16, literal(-13)))
        CFI R6 load(1, XDATA, add(CFA_XSP16, literal(-14)))
        CFI CFA_SP SP+0
        CFI CFA_XSP16 add(XSP16, 14)
        ; Saved register size: 14
        ; Auto size: 5
        MOV     A,#-0x5
        LCALL   ?ALLOC_XSTACK8
        CFI CFA_XSP16 add(XSP16, 19)
        MOV     A,R2
        MOV     R6,A
        MOV     A,R3
        MOV     R7,A
        MOV     ?V0 + 0,R4
        MOV     ?V0 + 1,R5
//   87     uint8 data[5];
//   88     uint8 i;
//   89     uint8 j;
//   90     uint8 b;
//   91     int8 rc;
//   92     if (temp_x100 == 0 || hum_x100 == 0) {
        MOV     A,R6
        ORL     A,R7
        JZ      ??dht11_read_0
        MOV     A,R4
        ORL     A,?V0 + 1
        JNZ     ??dht11_read_1
//   93         return DHT11_ERR_PARAM;
??dht11_read_0:
        MOV     R1,#-0x1
        LJMP    ??dht11_read_2 & 0xFFFF
//   94     }
//   95 
//   96     rc = DHT11_OK;
//   97 
//   98     dht11_drive_low();
??dht11_read_1:
        ANL     0xf5,#0xfe
        CLR     0xa0.0
        ORL     0xff,#0x1
//   99     delay_ms(20u);
        MOV     ?V0 + 2,#0x14
        MOV     ?V0 + 3,#0x0
        SJMP    ??dht11_read_3
??dht11_read_4:
        ; Setup parameters for call to function delay_us
        MOV     R2,#-0x18
        MOV     R3,#0x3
        LCALL   ??delay_us?relay
??dht11_read_3:
        MOV     R0,?V0 + 2
        MOV     R1,?V0 + 3
        MOV     A,R0
        ADD     A,#-0x1
        MOV     ?V0 + 2,A
        MOV     A,R1
        ADDC    A,#-0x1
        MOV     ?V0 + 3,A
        MOV     A,R0
        ORL     A,R1
        JNZ     ??dht11_read_4
//  100     dht11_drive_high();
        ; Setup parameters for call to function dht11_drive_high
        LCALL   ??dht11_drive_high?relay
//  101     delay_us(30u);
        ; Setup parameters for call to function delay_us
        MOV     R2,#0x1e
        MOV     R3,#0x0
        LCALL   ??delay_us?relay
//  102 
//  103     dht11_input_mode();
        ANL     0xf5,#0xfe
        ANL     0xff,#0xfe
//  104 
//  105     if (!wait_level(0u, 100u)) {
        ; Setup parameters for call to function wait_level
        MOV     R2,#0x64
        MOV     R3,#0x0
        MOV     R1,#0x0
        LCALL   ??wait_level?relay
        MOV     A,R1
        JNZ     ??dht11_read_5
//  106         dht11_drive_high();
        ; Setup parameters for call to function dht11_drive_high
        LCALL   ??dht11_drive_high?relay
//  107         return DHT11_ERR_RESP_LOW;
        MOV     R1,#-0x2
        LJMP    ??dht11_read_2 & 0xFFFF
//  108     }
//  109     if (!wait_level(1u, 100u)) {
??dht11_read_5:
        ; Setup parameters for call to function wait_level
        MOV     R2,#0x64
        MOV     R3,#0x0
        MOV     R1,#0x1
        LCALL   ??wait_level?relay
        MOV     A,R1
        JNZ     ??dht11_read_6
//  110         dht11_drive_high();
        ; Setup parameters for call to function dht11_drive_high
        LCALL   ??dht11_drive_high?relay
//  111         return DHT11_ERR_RESP_HIGH;
        MOV     R1,#-0x3
        LJMP    ??dht11_read_2 & 0xFFFF
//  112     }
//  113     if (!wait_level(0u, 100u)) {
??dht11_read_6:
        ; Setup parameters for call to function wait_level
        MOV     R2,#0x64
        MOV     R3,#0x0
        MOV     R1,#0x0
        LCALL   ??wait_level?relay
        MOV     A,R1
        JNZ     ??dht11_read_7
//  114         dht11_drive_high();
        ; Setup parameters for call to function dht11_drive_high
        LCALL   ??dht11_drive_high?relay
//  115         return DHT11_ERR_RESP_END;
        MOV     R1,#-0x4
        LJMP    ??dht11_read_2 & 0xFFFF
//  116     }
//  117 
//  118     {
//  119         halIntState_t int_state;
//  120 
//  121         HAL_ENTER_CRITICAL_SECTION(int_state);
??dht11_read_7:
        MOV     C,0xa8.7
        CLR     A
        RLC     A
        MOV     ?V0 + 5,A
        CLR     0xa8.7
//  122         for (i = 0u; i < 5u; ++i) {
        MOV     ?V0 + 4,#0x0
//  123             b = 0u;
??dht11_read_8:
        MOV     ?V0 + 3,#0x0
//  124             for (j = 0u; j < 8u; ++j) {
        MOV     ?V0 + 2,#0x8
//  125                 if (!wait_level(1u, 100u)) {
??dht11_read_9:
        ; Setup parameters for call to function wait_level
        MOV     R2,#0x64
        MOV     R3,#0x0
        MOV     R1,#0x1
        LCALL   ??wait_level?relay
        MOV     A,R1
        JNZ     ??dht11_read_10
//  126                     HAL_EXIT_CRITICAL_SECTION(int_state);
        MOV     A,?V0 + 5
        MOV     C,0xE0 /* A   */.0
        MOV     0xa8.7,C
//  127                     dht11_drive_high();
        ; Setup parameters for call to function dht11_drive_high
        LCALL   ??dht11_drive_high?relay
//  128                     return DHT11_ERR_BIT_HIGH;
        MOV     R1,#-0x5
        LJMP    ??dht11_read_2 & 0xFFFF
//  129                 }
//  130                 delay_us(30u);
??dht11_read_10:
        ; Setup parameters for call to function delay_us
        MOV     R2,#0x1e
        MOV     R3,#0x0
        LCALL   ??delay_us?relay
//  131                 b <<= 1;
        MOV     A,?V0 + 3
        CLR     C
        RLC     A
        MOV     ?V0 + 3,A
//  132                 if (dht11_get()) {
        ANL     0xf5,#0xfe
        MOV     C,0xa0.0
        JNC     ??dht11_read_11
//  133                     b |= 1u;
        SETB    0xE0 /* A   */.0
        MOV     ?V0 + 3,A
//  134                 }
//  135                 if (!wait_level(0u, 100u)) {
??dht11_read_11:
        ; Setup parameters for call to function wait_level
        MOV     R2,#0x64
        MOV     R3,#0x0
        MOV     R1,#0x0
        LCALL   ??wait_level?relay
        MOV     A,R1
        JNZ     ??dht11_read_12
//  136                     HAL_EXIT_CRITICAL_SECTION(int_state);
        MOV     A,?V0 + 5
        MOV     C,0xE0 /* A   */.0
        MOV     0xa8.7,C
//  137                     dht11_drive_high();
        ; Setup parameters for call to function dht11_drive_high
        LCALL   ??dht11_drive_high?relay
//  138                     return DHT11_ERR_BIT_LOW;
        MOV     R1,#-0x6
        LJMP    ??dht11_read_2 & 0xFFFF
//  139                 }
//  140             }
??dht11_read_12:
        DEC     ?V0 + 2
        MOV     A,?V0 + 2
        JNZ     ??dht11_read_9
//  141             data[i] = b;
        MOV     ?V0 + 2,?V0 + 4
        MOV     DPL,?XSP + 0
        MOV     DPH,?XSP + 1
        MOV     A,DPL
        ADD     A,?V0 + 2
        MOV     DPL,A
        MOV     A,DPH
        ADDC    A,#0x0
        MOV     DPH,A
        MOV     A,?V0 + 3
        MOVX    @DPTR,A
//  142         }
        INC     ?V0 + 4
        MOV     A,?V0 + 4
        CLR     C
        SUBB    A,#0x5
        JC      ??dht11_read_8
//  143         HAL_EXIT_CRITICAL_SECTION(int_state);
        MOV     A,?V0 + 5
        MOV     C,0xE0 /* A   */.0
        MOV     0xa8.7,C
//  144     }
//  145 
//  146     dht11_drive_high();
        ; Setup parameters for call to function dht11_drive_high
        LCALL   ??dht11_drive_high?relay
//  147 
//  148     if (rc != DHT11_OK) {
//  149         return rc;
//  150     }
//  151 
//  152     if ((uint8)(data[0] + data[1] + data[2] + data[3]) != data[4]) {
        MOV     A,#0x3
        LCALL   ?XSTACK_DISP0_8
        PUSH    DPL
        CFI CFA_SP SP+-1
        PUSH    DPH
        CFI CFA_SP SP+-2
        MOV     A,#0x2
        LCALL   ?XSTACK_DISP0_8
        PUSH    DPL
        CFI CFA_SP SP+-3
        PUSH    DPH
        CFI CFA_SP SP+-4
        MOV     A,#0x1
        LCALL   ?XSTACK_DISP0_8
        PUSH    DPL
        CFI CFA_SP SP+-5
        PUSH    DPH
        CFI CFA_SP SP+-6
        MOV     DPL,?XSP + 0
        MOV     DPH,?XSP + 1
        MOVX    A,@DPTR
        POP     DPH
        CFI CFA_SP SP+-5
        POP     DPL
        CFI CFA_SP SP+-4
        MOV     R0,A
        MOVX    A,@DPTR
        ADD     A,R0
        POP     DPH
        CFI CFA_SP SP+-3
        POP     DPL
        CFI CFA_SP SP+-2
        MOV     R0,A
        MOVX    A,@DPTR
        ADD     A,R0
        POP     DPH
        CFI CFA_SP SP+-1
        POP     DPL
        CFI CFA_SP SP+0
        MOV     R0,A
        MOVX    A,@DPTR
        ADD     A,R0
        MOV     R0,A
        MOV     A,#0x4
        LCALL   ?XSTACK_DISP0_8
        MOVX    A,@DPTR
        XRL     A,R0
        JZ      ??dht11_read_13
//  153         return DHT11_ERR_CHECKSUM;
        MOV     R1,#-0x7
        SJMP    ??dht11_read_2
//  154     }
//  155 
//  156     *hum_x100 = (uint16)((uint16)data[0] * 100u + (uint16)data[1]);
??dht11_read_13:
        MOV     DPL,?XSP + 0
        MOV     DPH,?XSP + 1
        MOVX    A,@DPTR
        MOV     B,#0x64
        MUL     AB
        MOV     R0,A
        MOV     A,#0x1
        LCALL   ?XSTACK_DISP0_8
        MOVX    A,@DPTR
        MOV     R2,A
        MOV     A,R0
        ADD     A,R2
        MOV     R0,A
        MOV     A,B
        ADDC    A,#0x0
        MOV     R1,A
        MOV     DPL,?V0 + 0
        MOV     DPH,?V0 + 1
        MOV     A,R0
        MOVX    @DPTR,A
        INC     DPTR
        MOV     A,R1
        MOVX    @DPTR,A
//  157     *temp_x100 = (int16)((int16)data[2] * 100 + (int16)(data[3] & 0x7Fu) * 10);
        MOV     A,#0x2
        LCALL   ?XSTACK_DISP0_8
        MOVX    A,@DPTR
        MOV     B,#0x64
        MUL     AB
        MOV     R2,A
        MOV     R3,B
        MOV     A,#0x3
        LCALL   ?XSTACK_DISP0_8
        MOVX    A,@DPTR
        ANL     A,#0x7f
        MOV     B,#0xa
        MUL     AB
        MOV     R0,A
        MOV     R1,B
        MOV     A,R2
        ADD     A,R0
        MOV     R0,A
        MOV     A,R3
        ADDC    A,R1
        MOV     R1,A
        MOV     DPL,R6
        MOV     DPH,R7
        MOV     A,R0
        MOVX    @DPTR,A
        INC     DPTR
        MOV     A,R1
        MOVX    @DPTR,A
//  158     if (data[3] & 0x80u) {
        MOV     A,#0x3
        LCALL   ?XSTACK_DISP0_8
        MOVX    A,@DPTR
        MOV     C,0xE0 /* A   */.7
        JNC     ??dht11_read_14
//  159         *temp_x100 = (int16)(-(*temp_x100));
        MOV     DPL,R6
        MOV     DPH,R7
        MOVX    A,@DPTR
        MOV     R0,A
        CLR     C
        CLR     A
        SUBB    A,R0
        MOV     R0,A
        CLR     A
        SUBB    A,R1
        MOV     R1,A
        MOV     A,R0
        MOVX    @DPTR,A
        INC     DPTR
        MOV     A,R1
        MOVX    @DPTR,A
//  160     }
//  161 
//  162     return DHT11_OK;
??dht11_read_14:
        MOV     R1,#0x0
??dht11_read_2:
        MOV     A,#0x5
        LCALL   ?DEALLOC_XSTACK8
        CFI CFA_XSP16 add(XSP16, 14)
        MOV     R7,#0x6
        LJMP    ?BANKED_LEAVE_XDATA
        CFI EndBlock cfiBlock4
        REQUIRE _A_IEN0
        REQUIRE _A_P2
        REQUIRE P2SEL
        REQUIRE P2DIR
//  163 }

        RSEG BANK_RELAYS:CODE:REORDER:NOROOT(0)
??dht11_drive_high?relay:
        LCALL   ?BDISPATCH
        DATA
        DC24    dht11_drive_high

        RSEG BANK_RELAYS:CODE:REORDER:NOROOT(0)
??delay_us?relay:
        LCALL   ?BDISPATCH
        DATA
        DC24    delay_us

        RSEG BANK_RELAYS:CODE:REORDER:NOROOT(0)
??dht11_init?relay:
        LCALL   ?BDISPATCH
        DATA
        DC24    dht11_init

        RSEG BANK_RELAYS:CODE:REORDER:NOROOT(0)
??wait_level?relay:
        LCALL   ?BDISPATCH
        DATA
        DC24    wait_level

        RSEG BANK_RELAYS:CODE:REORDER:NOROOT(0)
??dht11_read?relay:
        LCALL   ?BDISPATCH
        DATA
        DC24    dht11_read

        END
// 
// 592 bytes in segment BANKED_CODE
//  30 bytes in segment BANK_RELAYS
//   4 bytes in segment SFR_AN
// 
// 622 bytes of CODE memory
//   0 bytes of DATA memory (+ 4 bytes shared)
//
//Errors: none
//Warnings: 1
