///////////////////////////////////////////////////////////////////////////////
//                                                                            /
// IAR C/C++ Compiler V8.10.3.10338/W32 for 8051        20/Apr/2026  14:46:02 /
// Copyright 2004-2011 IAR Systems AB.                                        /
//                                                                            /
//    Core               =  plain                                             /
//    Code model         =  banked                                            /
//    Data model         =  large                                             /
//    Calling convention =  xdata reentrant                                   /
//    Constant location  =  data                                              /
//    Dptr setup         =  1,16                                              /
//    Source file        =  D:\ZNJJ\ZStack-CC2530-2.5.1a\Projects\zstack\Samp /
//                          les\ZbNode\Source\zb_node.c                       /
//    Command line       =  -f D:\ZNJJ\ZStack-CC2530-2.5.1a\Projects\zstack\S /
//                          amples\ZbNode\CC2530DB\..\..\..\Tools\CC2530DB\f8 /
//                          wEndev.cfg (-DCPU32MHZ -DROOT=__near_func         /
//                          -DMAC_CFG_TX_DATA_MAX=3 -DMAC_CFG_TX_MAX=6        /
//                          -DMAC_CFG_RX_MAX=3) -f D:\ZNJJ\ZStack-CC2530-2.5. /
//                          1a\Projects\zstack\Samples\ZbNode\CC2530DB\..\..\ /
//                          ..\Tools\CC2530DB\f8wConfig.cfg (-DZIGBEEPRO      /
//                          -DSECURE=0 -DZG_SECURE_DYNAMIC=0 -DREFLECTOR      /
//                          -DDEFAULT_CHANLIST=0x00000800                     /
//                          -DZDAPP_CONFIG_PAN_ID=0xFFFF                      /
//                          -DNWK_START_DELAY=100 -DEXTENDED_JOINING_RANDOM_M /
//                          ASK=0x007F -DBEACON_REQUEST_DELAY=100             /
//                          -DBEACON_REQ_DELAY_MASK=0x00FF                    /
//                          -DLINK_STATUS_JITTER_MASK=0x007F                  /
//                          -DROUTE_EXPIRY_TIME=30 -DAPSC_ACK_WAIT_DURATION_P /
//                          OLLED=3000 -DNWK_INDIRECT_MSG_TIMEOUT=7           /
//                          -DMAX_RREQ_ENTRIES=8 -DAPSC_MAX_FRAME_RETRIES=3   /
//                          -DNWK_MAX_DATA_RETRIES=2                          /
//                          -DMAX_POLL_FAILURE_RETRIES=2 -DMAX_BCAST=9        /
//                          -DAPS_MAX_GROUPS=16 -DMAX_RTG_ENTRIES=40          /
//                          -DNWK_MAX_BINDING_ENTRIES=4                       /
//                          -DMAX_BINDING_CLUSTER_IDS=4                       /
//                          "-DDEFAULT_KEY={0x01, 0x03, 0x05, 0x07, 0x09,     /
//                          0x0B, 0x0D, 0x0F, 0x00, 0x02, 0x04, 0x06, 0x08,   /
//                          0x0A, 0x0C, 0x0D}" -DMAC_MAX_FRAME_SIZE=116       /
//                          -DZDNWKMGR_MIN_TRANSMISSIONS=20 "-DCONST=const    /
//                          __code" -DGENERIC=__generic                       /
//                          -DRFD_RCVC_ALWAYS_ON=FALSE -DPOLL_RATE=1000       /
//                          -DQUEUED_POLL_RATE=100 -DRESPONSE_POLL_RATE=100)  /
//                          -DREJOIN_POLL_RATE=440 D:\ZNJJ\ZStack-CC2530-2.5. /
//                          1a\Projects\zstack\Samples\ZbNode\Source\zb_node. /
//                          c -D NWK_AUTO_POLL -D NODE_ROLE=2 -D              /
//                          HAL_UART=TRUE -D HAL_LCD=FALSE -lC                /
//                          D:\ZNJJ\ZStack-CC2530-2.5.1a\Projects\zstack\Samp /
//                          les\ZbNode\CC2530DB\Node2_EndDeviceEB\List\ -lA   /
//                          D:\ZNJJ\ZStack-CC2530-2.5.1a\Projects\zstack\Samp /
//                          les\ZbNode\CC2530DB\Node2_EndDeviceEB\List\       /
//                          --diag_suppress Pe001,Pa010 -o                    /
//                          D:\ZNJJ\ZStack-CC2530-2.5.1a\Projects\zstack\Samp /
//                          les\ZbNode\CC2530DB\Node2_EndDeviceEB\Obj\ -e     /
//                          --no_code_motion --debug --core=plain             /
//                          --dptr=16,1 --data_model=large                    /
//                          --code_model=banked --calling_convention=xdata_re /
//                          entrant --place_constants=data --nr_virtual_regs  /
//                          16 -I D:\ZNJJ\ZStack-CC2530-2.5.1a\Projects\zstac /
//                          k\Samples\ZbNode\CC2530DB\ -I                     /
//                          D:\ZNJJ\ZStack-CC2530-2.5.1a\Projects\zstack\Samp /
//                          les\ZbNode\CC2530DB\..\Source\ -I                 /
//                          D:\ZNJJ\ZStack-CC2530-2.5.1a\Projects\zstack\Samp /
//                          les\ZbNode\CC2530DB\..\..\..\ZMain\TI2530DB\ -I   /
//                          D:\ZNJJ\ZStack-CC2530-2.5.1a\Projects\zstack\Samp /
//                          les\ZbNode\CC2530DB\..\..\..\..\..\Components\hal /
//                          \include\ -I D:\ZNJJ\ZStack-CC2530-2.5.1a\Project /
//                          s\zstack\Samples\ZbNode\CC2530DB\..\..\..\..\..\C /
//                          omponents\hal\target\CC2530EB\ -I                 /
//                          D:\ZNJJ\ZStack-CC2530-2.5.1a\Projects\zstack\Samp /
//                          les\ZbNode\CC2530DB\..\..\..\..\..\Components\mac /
//                          \include\ -I D:\ZNJJ\ZStack-CC2530-2.5.1a\Project /
//                          s\zstack\Samples\ZbNode\CC2530DB\..\..\..\..\..\C /
//                          omponents\mac\high_level\ -I                      /
//                          D:\ZNJJ\ZStack-CC2530-2.5.1a\Projects\zstack\Samp /
//                          les\ZbNode\CC2530DB\..\..\..\..\..\Components\mac /
//                          \low_level\srf04\ -I D:\ZNJJ\ZStack-CC2530-2.5.1a /
//                          \Projects\zstack\Samples\ZbNode\CC2530DB\..\..\.. /
//                          \..\..\Components\mac\low_level\srf04\single_chip /
//                          \ -I D:\ZNJJ\ZStack-CC2530-2.5.1a\Projects\zstack /
//                          \Samples\ZbNode\CC2530DB\..\..\..\..\..\Component /
//                          s\mt\ -I D:\ZNJJ\ZStack-CC2530-2.5.1a\Projects\zs /
//                          tack\Samples\ZbNode\CC2530DB\..\..\..\..\..\Compo /
//                          nents\osal\include\ -I D:\ZNJJ\ZStack-CC2530-2.5. /
//                          1a\Projects\zstack\Samples\ZbNode\CC2530DB\..\..\ /
//                          ..\..\..\Components\services\saddr\ -I            /
//                          D:\ZNJJ\ZStack-CC2530-2.5.1a\Projects\zstack\Samp /
//                          les\ZbNode\CC2530DB\..\..\..\..\..\Components\ser /
//                          vices\sdata\ -I D:\ZNJJ\ZStack-CC2530-2.5.1a\Proj /
//                          ects\zstack\Samples\ZbNode\CC2530DB\..\..\..\..\. /
//                          .\Components\stack\af\ -I                         /
//                          D:\ZNJJ\ZStack-CC2530-2.5.1a\Projects\zstack\Samp /
//                          les\ZbNode\CC2530DB\..\..\..\..\..\Components\sta /
//                          ck\nwk\ -I D:\ZNJJ\ZStack-CC2530-2.5.1a\Projects\ /
//                          zstack\Samples\ZbNode\CC2530DB\..\..\..\..\..\Com /
//                          ponents\stack\sapi\ -I D:\ZNJJ\ZStack-CC2530-2.5. /
//                          1a\Projects\zstack\Samples\ZbNode\CC2530DB\..\..\ /
//                          ..\..\..\Components\stack\sec\ -I                 /
//                          D:\ZNJJ\ZStack-CC2530-2.5.1a\Projects\zstack\Samp /
//                          les\ZbNode\CC2530DB\..\..\..\..\..\Components\sta /
//                          ck\sys\ -I D:\ZNJJ\ZStack-CC2530-2.5.1a\Projects\ /
//                          zstack\Samples\ZbNode\CC2530DB\..\..\..\..\..\Com /
//                          ponents\stack\zdo\ -I D:\ZNJJ\ZStack-CC2530-2.5.1 /
//                          a\Projects\zstack\Samples\ZbNode\CC2530DB\..\..\. /
//                          .\..\..\Components\zmac\ -I                       /
//                          D:\ZNJJ\ZStack-CC2530-2.5.1a\Projects\zstack\Samp /
//                          les\ZbNode\CC2530DB\..\..\..\..\..\Components\zma /
//                          c\f8w\ -Ohz --require_prototypes                  /
//    List file          =  D:\ZNJJ\ZStack-CC2530-2.5.1a\Projects\zstack\Samp /
//                          les\ZbNode\CC2530DB\Node2_EndDeviceEB\List\zb_nod /
//                          e.s51                                             /
//                                                                            /
//                                                                            /
///////////////////////////////////////////////////////////////////////////////

        NAME zb_node

        RTMODEL "__SystemLibrary", "CLib"
        RTMODEL "__calling_convention", "xdata_reentrant"
        RTMODEL "__code_model", "banked"
        RTMODEL "__core", "plain"
        RTMODEL "__data_model", "large"
        RTMODEL "__dptr_size", "16"
        RTMODEL "__extended_stack", "disabled"
        RTMODEL "__location_for_constants", "data"
        RTMODEL "__number_of_dptrs", "1"
        RTMODEL "__rt_version", "1"

        RSEG DOVERLAY:DATA:NOROOT(0)
        RSEG IOVERLAY:IDATA:NOROOT(0)
        RSEG ISTACK:IDATA:NOROOT(0)
        RSEG PSTACK:XDATA:NOROOT(0)
        RSEG XSTACK:XDATA:NOROOT(0)

        EXTERN ?ALLOC_XSTACK8
        EXTERN ?BANKED_ENTER_XDATA
        EXTERN ?BANKED_LEAVE_XDATA
        EXTERN ?BDISPATCH
        EXTERN ?BRET
        EXTERN ?DEALLOC_XSTACK8
        EXTERN ?PUSH_XSTACK8_X_TWO
        EXTERN ?PUSH_XSTACK_I_ONE
        EXTERN ?PUSH_XSTACK_I_TWO
        EXTERN ?S_SHL
        EXTERN ?V0
        EXTERN ?XSP
        EXTERN ?XSTACK_DISP0_8
        EXTERN __INIT_XDATA_I
        EXTERN __INIT_XDATA_Z

        PUBLIC ??ZbNode_Init?relay
        FUNCTION ??ZbNode_Init?relay,0203H
        PUBLIC ??ZbNode_PreInit?relay
        FUNCTION ??ZbNode_PreInit?relay,0203H
        PUBLIC ??ZbNode_ProcessEvent?relay
        FUNCTION ??ZbNode_ProcessEvent?relay,0203H
        FUNCTION ??dbg_line?relay,0203H
        FUNCTION ??dbg_puts?relay,0203H
        FUNCTION ??do_report?relay,0203H
        FUNCTION ??indicator_pin_init?relay,0203H
        FUNCTION ??indicator_pin_set?relay,0203H
        FUNCTION ??network_joined?relay,0203H
        FUNCTION ??network_ready?relay,0203H
        FUNCTION ??note_local_report_failure?relay,0203H
        FUNCTION ??oled_publish?relay,0203H
        FUNCTION ??on_data_confirm?relay,0203H
        FUNCTION ??on_incoming?relay,0203H
        FUNCTION ??register_endpoints?relay,0203H
        FUNCTION ??send_attr_report?relay,0203H
        FUNCTION ??startup_pattern_set?relay,0203H
        FUNCTION ??status_led_refresh?relay,0203H
        PUBWEAK P1DIR
        PUBWEAK P1SEL
        PUBLIC ZbNode_Init
        FUNCTION ZbNode_Init,021203H
        ARGFRAME XSTACK, 0, STACK
        LOCFRAME XSTACK, 38, STACK
        PUBLIC ZbNode_PreInit
        FUNCTION ZbNode_PreInit,021203H
        ARGFRAME XSTACK, 0, STACK
        LOCFRAME ISTACK, 2, STACK
        PUBLIC ZbNode_ProcessEvent
        FUNCTION ZbNode_ProcessEvent,021203H
        ARGFRAME XSTACK, 0, STACK
        LOCFRAME XSTACK, 20, STACK
        PUBLIC ZbNode_TaskID
        PUBWEAK _A_P1
        FUNCTION dbg_line,021203H
        ARGFRAME XSTACK, 38, STACK
        ARGFRAME IOVERLAY, 0, STATIC
        ARGFRAME DOVERLAY, 0, STATIC
        LOCFRAME ISTACK, 2, STACK
        FUNCTION dbg_puts,021203H
        ARGFRAME XSTACK, 14, STACK
        ARGFRAME IOVERLAY, 0, STATIC
        ARGFRAME DOVERLAY, 0, STATIC
        LOCFRAME XSTACK, 10, STACK
        FUNCTION do_report,021203H
        ARGFRAME XSTACK, 14, STACK
        ARGFRAME IOVERLAY, 0, STATIC
        ARGFRAME DOVERLAY, 0, STATIC
        LOCFRAME XSTACK, 16, STACK
        FUNCTION indicator_pin_init,0203H
        ARGFRAME XSTACK, 0, STACK
        ARGFRAME IOVERLAY, 0, STATIC
        ARGFRAME DOVERLAY, 0, STATIC
        LOCFRAME ISTACK, 2, STACK
        FUNCTION indicator_pin_set,0203H
        ARGFRAME XSTACK, 9, STACK
        ARGFRAME IOVERLAY, 0, STATIC
        ARGFRAME DOVERLAY, 0, STATIC
        LOCFRAME ISTACK, 2, STACK
        FUNCTION network_joined,0203H
        ARGFRAME XSTACK, 14, STACK
        ARGFRAME IOVERLAY, 0, STATIC
        ARGFRAME DOVERLAY, 0, STATIC
        LOCFRAME ISTACK, 2, STACK
        FUNCTION network_ready,021203H
        ARGFRAME XSTACK, 12, STACK
        ARGFRAME IOVERLAY, 0, STATIC
        ARGFRAME DOVERLAY, 0, STATIC
        LOCFRAME ISTACK, 2, STACK
        FUNCTION note_local_report_failure,021203H
        ARGFRAME XSTACK, 11, STACK
        ARGFRAME IOVERLAY, 0, STATIC
        ARGFRAME DOVERLAY, 0, STATIC
        LOCFRAME XSTACK, 9, STACK
        FUNCTION oled_publish,021203H
        ARGFRAME XSTACK, 38, STACK
        ARGFRAME IOVERLAY, 0, STATIC
        ARGFRAME DOVERLAY, 0, STATIC
        LOCFRAME ISTACK, 2, STACK
        FUNCTION on_data_confirm,021203H
        ARGFRAME XSTACK, 14, STACK
        ARGFRAME IOVERLAY, 0, STATIC
        ARGFRAME DOVERLAY, 0, STATIC
        LOCFRAME XSTACK, 12, STACK
        FUNCTION on_incoming,021203H
        ARGFRAME XSTACK, 14, STACK
        ARGFRAME IOVERLAY, 0, STATIC
        ARGFRAME DOVERLAY, 0, STATIC
        LOCFRAME ISTACK, 1, STACK
        LOCFRAME XSTACK, 17, STACK
        FUNCTION register_endpoints,021203H
        ARGFRAME XSTACK, 38, STACK
        ARGFRAME IOVERLAY, 0, STATIC
        ARGFRAME DOVERLAY, 0, STATIC
        LOCFRAME ISTACK, 2, STACK
        FUNCTION send_attr_report,021203H
        ARGFRAME XSTACK, 17, STACK
        ARGFRAME IOVERLAY, 0, STATIC
        ARGFRAME DOVERLAY, 0, STATIC
        LOCFRAME XSTACK, 15, STACK
        FUNCTION startup_pattern_set,021203H
        ARGFRAME XSTACK, 0, STACK
        ARGFRAME IOVERLAY, 0, STATIC
        ARGFRAME DOVERLAY, 0, STATIC
        LOCFRAME XSTACK, 9, STACK
        FUNCTION status_led_refresh,021203H
        ARGFRAME XSTACK, 38, STACK
        ARGFRAME IOVERLAY, 0, STATIC
        ARGFRAME DOVERLAY, 0, STATIC
        LOCFRAME ISTACK, 2, STACK
        
        CFI Names cfiNames0
        CFI StackFrame CFA_SP SP IDATA
        CFI StackFrame CFA_PSP16 PSP16 XDATA
        CFI StackFrame CFA_XSP16 XSP16 XDATA
        CFI StaticOverlayFrame CFA_IOVERLAY IOVERLAY
        CFI StaticOverlayFrame CFA_DOVERLAY DOVERLAY
        CFI Resource `PSW.CY`:1, `B.BR0`:1, `B.BR1`:1, `B.BR2`:1, `B.BR3`:1
        CFI Resource `B.BR4`:1, `B.BR5`:1, `B.BR6`:1, `B.BR7`:1, `VB.BR8`:1
        CFI Resource `VB.BR9`:1, `VB.BR10`:1, `VB.BR11`:1, `VB.BR12`:1
        CFI Resource `VB.BR13`:1, `VB.BR14`:1, `VB.BR15`:1, VB:8, B:8, A:8
        CFI Resource PSW:8, DPL0:8, DPH0:8, R0:8, R1:8, R2:8, R3:8, R4:8, R5:8
        CFI Resource R6:8, R7:8, V0:8, V1:8, V2:8, V3:8, V4:8, V5:8, V6:8, V7:8
        CFI Resource V8:8, V9:8, V10:8, V11:8, V12:8, V13:8, V14:8, V15:8, SP:8
        CFI Resource PSPH:8, PSPL:8, PSP16:16, XSPH:8, XSPL:8, XSP16:16
        CFI VirtualResource ?RET:24
        CFI Resource ?BRET_EXT:8
        CFI VirtualResource ?RET_HIGH:8, ?RET_LOW:8
        CFI ResourceParts PSP16 PSPH, PSPL
        CFI ResourceParts XSP16 XSPH, XSPL
        CFI ResourceParts ?RET ?BRET_EXT, ?RET_HIGH, ?RET_LOW
        CFI EndNames cfiNames0
        
        CFI Common cfiCommon0 Using cfiNames0
        CFI CodeAlign 1
        CFI DataAlign -1
        CFI ReturnAddress ?RET CODE
        CFI CFA_DOVERLAY Used
        CFI CFA_IOVERLAY Used
        CFI CFA_SP SP+-3
        CFI CFA_PSP16 PSP16+0
        CFI CFA_XSP16 XSP16+0
        CFI `PSW.CY` SameValue
        CFI `B.BR0` SameValue
        CFI `B.BR1` SameValue
        CFI `B.BR2` SameValue
        CFI `B.BR3` SameValue
        CFI `B.BR4` SameValue
        CFI `B.BR5` SameValue
        CFI `B.BR6` SameValue
        CFI `B.BR7` SameValue
        CFI `VB.BR8` SameValue
        CFI `VB.BR9` SameValue
        CFI `VB.BR10` SameValue
        CFI `VB.BR11` SameValue
        CFI `VB.BR12` SameValue
        CFI `VB.BR13` SameValue
        CFI `VB.BR14` SameValue
        CFI `VB.BR15` SameValue
        CFI VB SameValue
        CFI B Undefined
        CFI A Undefined
        CFI PSW SameValue
        CFI DPL0 SameValue
        CFI DPH0 SameValue
        CFI R0 Undefined
        CFI R1 Undefined
        CFI R2 Undefined
        CFI R3 Undefined
        CFI R4 Undefined
        CFI R5 Undefined
        CFI R6 SameValue
        CFI R7 SameValue
        CFI V0 SameValue
        CFI V1 SameValue
        CFI V2 SameValue
        CFI V3 SameValue
        CFI V4 SameValue
        CFI V5 SameValue
        CFI V6 SameValue
        CFI V7 SameValue
        CFI V8 SameValue
        CFI V9 SameValue
        CFI V10 SameValue
        CFI V11 SameValue
        CFI V12 SameValue
        CFI V13 SameValue
        CFI V14 SameValue
        CFI V15 SameValue
        CFI PSPH Undefined
        CFI PSPL Undefined
        CFI XSPH Undefined
        CFI XSPL Undefined
        CFI ?RET Concat
        CFI ?BRET_EXT Frame(CFA_SP, 3)
        CFI ?RET_HIGH Frame(CFA_SP, 2)
        CFI ?RET_LOW Frame(CFA_SP, 1)
        CFI EndCommon cfiCommon0
        
        
        CFI Common cfiCommon1 Using cfiNames0
        CFI CodeAlign 1
        CFI DataAlign -1
        CFI ReturnAddress ?RET CODE
        CFI CFA_DOVERLAY Used
        CFI CFA_IOVERLAY Used
        CFI CFA_SP SP+-2
        CFI CFA_PSP16 PSP16+0
        CFI CFA_XSP16 XSP16+0
        CFI `PSW.CY` SameValue
        CFI `B.BR0` SameValue
        CFI `B.BR1` SameValue
        CFI `B.BR2` SameValue
        CFI `B.BR3` SameValue
        CFI `B.BR4` SameValue
        CFI `B.BR5` SameValue
        CFI `B.BR6` SameValue
        CFI `B.BR7` SameValue
        CFI `VB.BR8` SameValue
        CFI `VB.BR9` SameValue
        CFI `VB.BR10` SameValue
        CFI `VB.BR11` SameValue
        CFI `VB.BR12` SameValue
        CFI `VB.BR13` SameValue
        CFI `VB.BR14` SameValue
        CFI `VB.BR15` SameValue
        CFI VB SameValue
        CFI B SameValue
        CFI A SameValue
        CFI PSW SameValue
        CFI DPL0 SameValue
        CFI DPH0 SameValue
        CFI R0 SameValue
        CFI R1 SameValue
        CFI R2 SameValue
        CFI R3 SameValue
        CFI R4 SameValue
        CFI R5 SameValue
        CFI R6 SameValue
        CFI R7 SameValue
        CFI V0 SameValue
        CFI V1 SameValue
        CFI V2 SameValue
        CFI V3 SameValue
        CFI V4 SameValue
        CFI V5 SameValue
        CFI V6 SameValue
        CFI V7 SameValue
        CFI V8 SameValue
        CFI V9 SameValue
        CFI V10 SameValue
        CFI V11 SameValue
        CFI V12 SameValue
        CFI V13 SameValue
        CFI V14 SameValue
        CFI V15 SameValue
        CFI PSPH Undefined
        CFI PSPL Undefined
        CFI XSPH Undefined
        CFI XSPL Undefined
        CFI ?RET Concat
        CFI ?BRET_EXT SameValue
        CFI ?RET_HIGH Frame(CFA_SP, 2)
        CFI ?RET_LOW Frame(CFA_SP, 1)
        CFI EndCommon cfiCommon1
        
strlen              SYMBOL "strlen"
HalUARTWrite        SYMBOL "HalUARTWrite"
NLME_GetShortAddr   SYMBOL "NLME_GetShortAddr"
actuator_led_state  SYMBOL "actuator_led_state"
actuator_buzzer_state SYMBOL "actuator_buzzer_state"
node_oled_view_set  SYMBOL "node_oled_view_set"
actuator_led_set    SYMBOL "actuator_led_set"
zgWriteStartupOptions SYMBOL "zgWriteStartupOptions"
osal_start_timerEx  SYMBOL "osal_start_timerEx"
zcl_report_send     SYMBOL "zcl_report_send"
afRegister          SYMBOL "afRegister"
osal_memset         SYMBOL "osal_memset"
HalUARTOpen         SYMBOL "HalUARTOpen"
actuator_init       SYMBOL "actuator_init"
ldr_init            SYMBOL "ldr_init"
node_oled_view_init SYMBOL "node_oled_view_init"
node_oled_view_refresh SYMBOL "node_oled_view_refresh"
osal_start_reload_timer SYMBOL "osal_start_reload_timer"
ldr_read_lux        SYMBOL "ldr_read_lux"
sprintf             SYMBOL "sprintf"
actuator_buzzer_set SYMBOL "actuator_buzzer_set"
zcl_default_response SYMBOL "zcl_default_response"
osal_msg_deallocate SYMBOL "osal_msg_deallocate"
osal_msg_receive    SYMBOL "osal_msg_receive"
??HalUARTOpen?relay SYMBOL "?relay", HalUARTOpen
??HalUARTWrite?relay SYMBOL "?relay", HalUARTWrite
??NLME_GetShortAddr?relay SYMBOL "?relay", NLME_GetShortAddr
??actuator_buzzer_set?relay SYMBOL "?relay", actuator_buzzer_set
??actuator_buzzer_state?relay SYMBOL "?relay", actuator_buzzer_state
??actuator_init?relay SYMBOL "?relay", actuator_init
??actuator_led_set?relay SYMBOL "?relay", actuator_led_set
??actuator_led_state?relay SYMBOL "?relay", actuator_led_state
??afRegister?relay  SYMBOL "?relay", afRegister
??ldr_init?relay    SYMBOL "?relay", ldr_init
??ldr_read_lux?relay SYMBOL "?relay", ldr_read_lux
??node_oled_view_init?relay SYMBOL "?relay", node_oled_view_init
??node_oled_view_refresh?relay SYMBOL "?relay", node_oled_view_refresh
??node_oled_view_set?relay SYMBOL "?relay", node_oled_view_set
??osal_memset?relay SYMBOL "?relay", osal_memset
??osal_msg_deallocate?relay SYMBOL "?relay", osal_msg_deallocate
??osal_msg_receive?relay SYMBOL "?relay", osal_msg_receive
??osal_start_reload_timer?relay SYMBOL "?relay", osal_start_reload_timer
??osal_start_timerEx?relay SYMBOL "?relay", osal_start_timerEx
??sprintf?relay     SYMBOL "?relay", sprintf
??strlen?relay      SYMBOL "?relay", strlen
??zcl_default_response?relay SYMBOL "?relay", zcl_default_response
??zcl_report_send?relay SYMBOL "?relay", zcl_report_send
??zgWriteStartupOptions?relay SYMBOL "?relay", zgWriteStartupOptions
ZbNode_Init         SYMBOL "ZbNode_Init"
??ZbNode_Init?relay SYMBOL "?relay", ZbNode_Init
ZbNode_PreInit      SYMBOL "ZbNode_PreInit"
??ZbNode_PreInit?relay SYMBOL "?relay", ZbNode_PreInit
ZbNode_ProcessEvent SYMBOL "ZbNode_ProcessEvent"
??ZbNode_ProcessEvent?relay SYMBOL "?relay", ZbNode_ProcessEvent

        EXTERN strlen
        FUNCTION strlen,010202H
        ARGFRAME ISTACK, 0, STACK
        ARGFRAME PSTACK, 0, STACK
        ARGFRAME XSTACK, 10, STACK
        ARGFRAME IOVERLAY, 0, STATIC
        ARGFRAME DOVERLAY, 0, STATIC
        EXTERN HalUARTWrite
        FUNCTION HalUARTWrite,0202H
        ARGFRAME ISTACK, 0, STACK
        ARGFRAME PSTACK, 0, STACK
        ARGFRAME XSTACK, 10, STACK
        ARGFRAME IOVERLAY, 0, STATIC
        ARGFRAME DOVERLAY, 0, STATIC
        EXTERN NLME_GetShortAddr
        FUNCTION NLME_GetShortAddr,0202H
        ARGFRAME ISTACK, 2, STACK
        ARGFRAME PSTACK, 0, STACK
        ARGFRAME XSTACK, 14, STACK
        ARGFRAME IOVERLAY, 0, STATIC
        ARGFRAME DOVERLAY, 0, STATIC
        EXTERN actuator_led_state
        FUNCTION actuator_led_state,0202H
        ARGFRAME ISTACK, 2, STACK
        ARGFRAME PSTACK, 0, STACK
        ARGFRAME XSTACK, 13, STACK
        ARGFRAME IOVERLAY, 0, STATIC
        ARGFRAME DOVERLAY, 0, STATIC
        EXTERN actuator_buzzer_state
        FUNCTION actuator_buzzer_state,0202H
        ARGFRAME ISTACK, 2, STACK
        ARGFRAME PSTACK, 0, STACK
        ARGFRAME XSTACK, 13, STACK
        ARGFRAME IOVERLAY, 0, STATIC
        ARGFRAME DOVERLAY, 0, STATIC
        EXTERN node_oled_view_set
        FUNCTION node_oled_view_set,0202H
        ARGFRAME ISTACK, 2, STACK
        ARGFRAME PSTACK, 0, STACK
        ARGFRAME XSTACK, 0, STACK
        ARGFRAME IOVERLAY, 0, STATIC
        ARGFRAME DOVERLAY, 0, STATIC
        EXTERN actuator_led_set
        FUNCTION actuator_led_set,0202H
        ARGFRAME ISTACK, 2, STACK
        ARGFRAME PSTACK, 0, STACK
        ARGFRAME XSTACK, 13, STACK
        ARGFRAME IOVERLAY, 0, STATIC
        ARGFRAME DOVERLAY, 0, STATIC
        EXTERN zgWriteStartupOptions
        FUNCTION zgWriteStartupOptions,0202H
        ARGFRAME ISTACK, 2, STACK
        ARGFRAME PSTACK, 0, STACK
        ARGFRAME XSTACK, 0, STACK
        ARGFRAME IOVERLAY, 0, STATIC
        ARGFRAME DOVERLAY, 0, STATIC
        EXTERN osal_start_timerEx
        FUNCTION osal_start_timerEx,0202H
        ARGFRAME ISTACK, 0, STACK
        ARGFRAME PSTACK, 0, STACK
        ARGFRAME XSTACK, 9, STACK
        ARGFRAME IOVERLAY, 0, STATIC
        ARGFRAME DOVERLAY, 0, STATIC
        EXTERN zcl_report_send
        FUNCTION zcl_report_send,0202H
        ARGFRAME ISTACK, 0, STACK
        ARGFRAME PSTACK, 0, STACK
        ARGFRAME XSTACK, 15, STACK
        ARGFRAME IOVERLAY, 0, STATIC
        ARGFRAME DOVERLAY, 0, STATIC
        EXTERN afRegister
        FUNCTION afRegister,0202H
        ARGFRAME ISTACK, 2, STACK
        ARGFRAME PSTACK, 0, STACK
        ARGFRAME XSTACK, 0, STACK
        ARGFRAME IOVERLAY, 0, STATIC
        ARGFRAME DOVERLAY, 0, STATIC
        EXTERN osal_memset
        FUNCTION osal_memset,0202H
        ARGFRAME ISTACK, 0, STACK
        ARGFRAME PSTACK, 0, STACK
        ARGFRAME XSTACK, 38, STACK
        ARGFRAME IOVERLAY, 0, STATIC
        ARGFRAME DOVERLAY, 0, STATIC
        EXTERN HalUARTOpen
        FUNCTION HalUARTOpen,0202H
        ARGFRAME ISTACK, 0, STACK
        ARGFRAME PSTACK, 0, STACK
        ARGFRAME XSTACK, 38, STACK
        ARGFRAME IOVERLAY, 0, STATIC
        ARGFRAME DOVERLAY, 0, STATIC
        EXTERN actuator_init
        FUNCTION actuator_init,0202H
        ARGFRAME ISTACK, 0, STACK
        ARGFRAME PSTACK, 0, STACK
        ARGFRAME XSTACK, 38, STACK
        ARGFRAME IOVERLAY, 0, STATIC
        ARGFRAME DOVERLAY, 0, STATIC
        EXTERN ldr_init
        FUNCTION ldr_init,0202H
        ARGFRAME ISTACK, 0, STACK
        ARGFRAME PSTACK, 0, STACK
        ARGFRAME XSTACK, 38, STACK
        ARGFRAME IOVERLAY, 0, STATIC
        ARGFRAME DOVERLAY, 0, STATIC
        EXTERN node_oled_view_init
        FUNCTION node_oled_view_init,0202H
        ARGFRAME ISTACK, 0, STACK
        ARGFRAME PSTACK, 0, STACK
        ARGFRAME XSTACK, 38, STACK
        ARGFRAME IOVERLAY, 0, STATIC
        ARGFRAME DOVERLAY, 0, STATIC
        EXTERN node_oled_view_refresh
        FUNCTION node_oled_view_refresh,0202H
        ARGFRAME ISTACK, 0, STACK
        ARGFRAME PSTACK, 0, STACK
        ARGFRAME XSTACK, 38, STACK
        ARGFRAME IOVERLAY, 0, STATIC
        ARGFRAME DOVERLAY, 0, STATIC
        EXTERN osal_start_reload_timer
        FUNCTION osal_start_reload_timer,0202H
        ARGFRAME ISTACK, 0, STACK
        ARGFRAME PSTACK, 0, STACK
        ARGFRAME XSTACK, 38, STACK
        ARGFRAME IOVERLAY, 0, STATIC
        ARGFRAME DOVERLAY, 0, STATIC
        EXTERN ldr_read_lux
        FUNCTION ldr_read_lux,0202H
        ARGFRAME ISTACK, 0, STACK
        ARGFRAME PSTACK, 0, STACK
        ARGFRAME XSTACK, 12, STACK
        ARGFRAME IOVERLAY, 0, STATIC
        ARGFRAME DOVERLAY, 0, STATIC
        EXTERN sprintf
        FUNCTION sprintf,0202H
        ARGFRAME ISTACK, 0, STACK
        ARGFRAME PSTACK, 0, STACK
        ARGFRAME XSTACK, 20, STACK
        ARGFRAME IOVERLAY, 0, STATIC
        ARGFRAME DOVERLAY, 0, STATIC
        EXTERN actuator_buzzer_set
        FUNCTION actuator_buzzer_set,0202H
        ARGFRAME ISTACK, 0, STACK
        ARGFRAME PSTACK, 0, STACK
        ARGFRAME XSTACK, 13, STACK
        ARGFRAME IOVERLAY, 0, STATIC
        ARGFRAME DOVERLAY, 0, STATIC
        EXTERN zcl_default_response
        FUNCTION zcl_default_response,0202H
        ARGFRAME ISTACK, 0, STACK
        ARGFRAME PSTACK, 0, STACK
        ARGFRAME XSTACK, 14, STACK
        ARGFRAME IOVERLAY, 0, STATIC
        ARGFRAME DOVERLAY, 0, STATIC
        EXTERN osal_msg_deallocate
        FUNCTION osal_msg_deallocate,0202H
        ARGFRAME ISTACK, 0, STACK
        ARGFRAME PSTACK, 0, STACK
        ARGFRAME XSTACK, 14, STACK
        ARGFRAME IOVERLAY, 0, STATIC
        ARGFRAME DOVERLAY, 0, STATIC
        EXTERN osal_msg_receive
        FUNCTION osal_msg_receive,0202H
        ARGFRAME ISTACK, 0, STACK
        ARGFRAME PSTACK, 0, STACK
        ARGFRAME XSTACK, 14, STACK
        ARGFRAME IOVERLAY, 0, STATIC
        ARGFRAME DOVERLAY, 0, STATIC
        EXTERN ??HalUARTOpen?relay
        FUNCTION ??HalUARTOpen?relay,00H
        EXTERN ??HalUARTWrite?relay
        FUNCTION ??HalUARTWrite?relay,00H
        EXTERN ??NLME_GetShortAddr?relay
        FUNCTION ??NLME_GetShortAddr?relay,00H
        EXTERN ??actuator_buzzer_set?relay
        FUNCTION ??actuator_buzzer_set?relay,00H
        EXTERN ??actuator_buzzer_state?relay
        FUNCTION ??actuator_buzzer_state?relay,00H
        EXTERN ??actuator_init?relay
        FUNCTION ??actuator_init?relay,00H
        EXTERN ??actuator_led_set?relay
        FUNCTION ??actuator_led_set?relay,00H
        EXTERN ??actuator_led_state?relay
        FUNCTION ??actuator_led_state?relay,00H
        EXTERN ??afRegister?relay
        FUNCTION ??afRegister?relay,00H
        EXTERN ??ldr_init?relay
        FUNCTION ??ldr_init?relay,00H
        EXTERN ??ldr_read_lux?relay
        FUNCTION ??ldr_read_lux?relay,00H
        EXTERN ??node_oled_view_init?relay
        FUNCTION ??node_oled_view_init?relay,00H
        EXTERN ??node_oled_view_refresh?relay
        FUNCTION ??node_oled_view_refresh?relay,00H
        EXTERN ??node_oled_view_set?relay
        FUNCTION ??node_oled_view_set?relay,00H
        EXTERN ??osal_memset?relay
        FUNCTION ??osal_memset?relay,00H
        EXTERN ??osal_msg_deallocate?relay
        FUNCTION ??osal_msg_deallocate?relay,00H
        EXTERN ??osal_msg_receive?relay
        FUNCTION ??osal_msg_receive?relay,00H
        EXTERN ??osal_start_reload_timer?relay
        FUNCTION ??osal_start_reload_timer?relay,00H
        EXTERN ??osal_start_timerEx?relay
        FUNCTION ??osal_start_timerEx?relay,00H
        EXTERN ??sprintf?relay
        FUNCTION ??sprintf?relay,00H
        EXTERN ??strlen?relay
        FUNCTION ??strlen?relay,00H
        EXTERN ??zcl_default_response?relay
        FUNCTION ??zcl_default_response?relay,00H
        EXTERN ??zcl_report_send?relay
        FUNCTION ??zcl_report_send?relay,00H
        EXTERN ??zgWriteStartupOptions?relay
        FUNCTION ??zgWriteStartupOptions?relay,00H
        EXTERN _NIB

// D:\ZNJJ\ZStack-CC2530-2.5.1a\Projects\zstack\Samples\ZbNode\Source\zb_node.c
//    1 /*
//    2  * ZbNode task: AF endpoint registration, periodic sensor reporting, and
//    3  * incoming OnOff command handling.
//    4  */
//    5 
//    6 #include "zb_node.h"
//    7 #include "actuator.h"
//    8 #include "zcl_report.h"
//    9 #include "node_oled_view.h"
//   10 #if NODE_ROLE == 1
//   11 #include "sensor_dht11.h"
//   12 #else
//   13 #include "sensor_ldr.h"
//   14 #endif
//   15 
//   16 #include "OSAL.h"
//   17 #include "OSAL_Timers.h"
//   18 #include "ZComDef.h"
//   19 #include "ZDApp.h"
//   20 #include "AF.h"
//   21 #include "ZGlobals.h"
//   22 #include "ioCC2530.h"

        ASEGN SFR_AN:DATA:NOROOT,090H
// union <unnamed> volatile __sfr _A_P1
_A_P1:
        DATA8
        DS 1

        ASEGN SFR_AN:DATA:NOROOT,0f4H
// unsigned char volatile __sfr P1SEL
P1SEL:
        DATA8
        DS 1

        ASEGN SFR_AN:DATA:NOROOT,0feH
// unsigned char volatile __sfr P1DIR
P1DIR:
        DATA8
        DS 1
//   23 #include "nwk.h"
//   24 #include "nwk_globals.h"
//   25 #include "hal_uart.h"
//   26 #include <stdio.h>
//   27 #include <string.h>
//   28 
//   29 /* ---- 节点侧串口调试：打到 UART0(P0.2/P0.3) → CH340G → Micro-USB → PC 串口助手 115200
//   30  * 参考 references/ZStack-CC2530-main/.../SampleApp.c 的 HalUARTWrite(0,...) 套路。
//   31  * 不用 OLED 就能知道节点是否在跑、是否入网、是否采到数据、是否 confirm 成功。 */

        RSEG XDATA_Z:XDATA:NOROOT(0)
        DATA8
//   32 static char s_dbg_buf[96];
s_dbg_buf:
        DS 96
        REQUIRE __INIT_XDATA_Z
//   33 

        RSEG BANKED_CODE:CODE:NOROOT(0)
//   34 static void dbg_puts(const char *s)
dbg_puts:
        CFI Block cfiBlock0 Using cfiCommon0
        CFI Function dbg_puts
        CODE
//   35 {
        FUNCALL dbg_puts, strlen
        LOCFRAME ISTACK, 0, STACK
        LOCFRAME PSTACK, 0, STACK
        LOCFRAME XSTACK, 10, STACK
        LOCFRAME IOVERLAY, 0, STATIC
        LOCFRAME DOVERLAY, 0, STATIC
        ARGFRAME ISTACK, 0, STACK
        ARGFRAME PSTACK, 0, STACK
        ARGFRAME XSTACK, 10, STACK
        ARGFRAME IOVERLAY, 0, STATIC
        ARGFRAME DOVERLAY, 0, STATIC
        FUNCALL dbg_puts, HalUARTWrite
        LOCFRAME ISTACK, 0, STACK
        LOCFRAME PSTACK, 0, STACK
        LOCFRAME XSTACK, 10, STACK
        LOCFRAME IOVERLAY, 0, STATIC
        LOCFRAME DOVERLAY, 0, STATIC
        ARGFRAME ISTACK, 0, STACK
        ARGFRAME PSTACK, 0, STACK
        ARGFRAME XSTACK, 10, STACK
        ARGFRAME IOVERLAY, 0, STATIC
        ARGFRAME DOVERLAY, 0, STATIC
        MOV     A,#-0xa
        LCALL   ?BANKED_ENTER_XDATA
        CFI DPH0 load(1, XDATA, add(CFA_XSP16, literal(-1)))
        CFI DPL0 load(1, XDATA, add(CFA_XSP16, literal(-2)))
        CFI ?BRET_EXT load(1, XDATA, add(CFA_XSP16, literal(-3)))
        CFI ?RET_HIGH load(1, XDATA, add(CFA_XSP16, literal(-4)))
        CFI ?RET_LOW load(1, XDATA, add(CFA_XSP16, literal(-5)))
        CFI R7 load(1, XDATA, add(CFA_XSP16, literal(-6)))
        CFI V1 load(1, XDATA, add(CFA_XSP16, literal(-7)))
        CFI V0 load(1, XDATA, add(CFA_XSP16, literal(-8)))
        CFI VB load(1, XDATA, add(CFA_XSP16, literal(-9)))
        CFI R6 load(1, XDATA, add(CFA_XSP16, literal(-10)))
        CFI CFA_SP SP+0
        CFI CFA_XSP16 add(XSP16, 10)
        ; Saved register size: 10
        ; Auto size: 0
        MOV     A,R2
        MOV     R6,A
        MOV     A,R3
        MOV     R7,A
//   36     uint16 n = (uint16)strlen(s);
        ; Setup parameters for call to function strlen
        LCALL   ??strlen?relay
        MOV     ?V0 + 0,R2
        MOV     ?V0 + 1,R3
        MOV     R4,?V0 + 0
        MOV     R5,?V0 + 1
//   37     if (n != 0u) {
        MOV     A,R4
        ORL     A,R5
        JZ      ??dbg_puts_0
//   38         (void)HalUARTWrite(HAL_UART_PORT_0, (uint8 *)s, n);
        ; Setup parameters for call to function HalUARTWrite
        MOV     A,R6
        MOV     R2,A
        MOV     A,R7
        MOV     R3,A
        MOV     R1,#0x0
        LCALL   ??HalUARTWrite?relay
        CFI EndBlock cfiBlock0
//   39     }
//   40 }
??dbg_puts_0:
        REQUIRE ?Subroutine0
        ; // Fall through to label ?Subroutine0

        RSEG BANKED_CODE:CODE:NOROOT(0)
?Subroutine0:
        CFI Block cfiBlock1 Using cfiCommon0
        CFI NoFunction
        CFI CFA_SP SP+0
        CFI CFA_XSP16 add(XSP16, 10)
        CFI VB load(1, XDATA, add(CFA_XSP16, literal(-9)))
        CFI DPL0 load(1, XDATA, add(CFA_XSP16, literal(-2)))
        CFI DPH0 load(1, XDATA, add(CFA_XSP16, literal(-1)))
        CFI R6 load(1, XDATA, add(CFA_XSP16, literal(-10)))
        CFI R7 load(1, XDATA, add(CFA_XSP16, literal(-6)))
        CFI V0 load(1, XDATA, add(CFA_XSP16, literal(-8)))
        CFI V1 load(1, XDATA, add(CFA_XSP16, literal(-7)))
        CFI ?BRET_EXT load(1, XDATA, add(CFA_XSP16, literal(-3)))
        CFI ?RET_HIGH load(1, XDATA, add(CFA_XSP16, literal(-4)))
        CFI ?RET_LOW load(1, XDATA, add(CFA_XSP16, literal(-5)))
        MOV     R7,#0x2
        LJMP    ?BANKED_LEAVE_XDATA
        CFI EndBlock cfiBlock1
//   41 

        RSEG BANKED_CODE:CODE:NOROOT(0)
//   42 static void dbg_line(const char *s)
dbg_line:
        CFI Block cfiBlock2 Using cfiCommon0
        CFI Function dbg_line
        CODE
//   43 {
        FUNCALL dbg_line, dbg_puts
        LOCFRAME ISTACK, 2, STACK
        LOCFRAME PSTACK, 0, STACK
        LOCFRAME XSTACK, 0, STACK
        LOCFRAME IOVERLAY, 0, STATIC
        LOCFRAME DOVERLAY, 0, STATIC
        ARGFRAME ISTACK, 2, STACK
        ARGFRAME PSTACK, 0, STACK
        ARGFRAME XSTACK, 0, STACK
        ARGFRAME IOVERLAY, 0, STATIC
        ARGFRAME DOVERLAY, 0, STATIC
        FUNCALL dbg_line, dbg_puts
        LOCFRAME ISTACK, 2, STACK
        LOCFRAME PSTACK, 0, STACK
        LOCFRAME XSTACK, 0, STACK
        LOCFRAME IOVERLAY, 0, STATIC
        LOCFRAME DOVERLAY, 0, STATIC
        ARGFRAME ISTACK, 2, STACK
        ARGFRAME PSTACK, 0, STACK
        ARGFRAME XSTACK, 0, STACK
        ARGFRAME IOVERLAY, 0, STATIC
        ARGFRAME DOVERLAY, 0, STATIC
        PUSH    DPL
        CFI DPL0 Frame(CFA_SP, 4)
        CFI CFA_SP SP+-4
        PUSH    DPH
        CFI DPH0 Frame(CFA_SP, 5)
        CFI CFA_SP SP+-5
        ; Saved register size: 2
        ; Auto size: 0
//   44     dbg_puts(s);
        ; Setup parameters for call to function dbg_puts
        LCALL   ??dbg_puts?relay
//   45     dbg_puts("\r\n");
        ; Setup parameters for call to function dbg_puts
        MOV     R2,#`?<Constant "\\r\\n">` & 0xff
        MOV     R3,#(`?<Constant "\\r\\n">` >> 8) & 0xff
        LCALL   ??dbg_puts?relay
//   46 }
        LJMP    ?Subroutine1 & 0xFFFF
        CFI EndBlock cfiBlock2

        RSEG XDATA_I:XDATA:NOROOT(0)
        DATA8
`?<Constant "\\r\\n">`:
        DS 3
        REQUIRE `?<Initializer for <Constant "\\r\\n">>`
        REQUIRE __INIT_XDATA_I

        RSEG XDATA_I:XDATA:NOROOT(0)
        DATA8
`?<Constant "HOLD">`:
        DS 5
        REQUIRE `?<Initializer for <Constant "HOLD">>`
        REQUIRE __INIT_XDATA_I

        RSEG XDATA_I:XDATA:NOROOT(0)
        DATA8
`?<Constant "INIT">`:
        DS 5
        REQUIRE `?<Initializer for <Constant "INIT">>`
        REQUIRE __INIT_XDATA_I

        RSEG XDATA_I:XDATA:NOROOT(0)
        DATA8
`?<Constant "NWK_DISC">`:
        DS 9
        REQUIRE `?<Initializer for <Constant "NWK_DISC">>`
        REQUIRE __INIT_XDATA_I

        RSEG XDATA_I:XDATA:NOROOT(0)
        DATA8
`?<Constant "NWK_JOINING">`:
        DS 12
        REQUIRE `?<Initializer for <Constant "NWK_JOINING">>`
        REQUIRE __INIT_XDATA_I

        RSEG XDATA_I:XDATA:NOROOT(0)
        DATA8
`?<Constant "NWK_REJOIN">`:
        DS 11
        REQUIRE `?<Initializer for <Constant "NWK_REJOIN">>`
        REQUIRE __INIT_XDATA_I

        RSEG XDATA_I:XDATA:NOROOT(0)
        DATA8
`?<Constant "END_UNAUTH">`:
        DS 11
        REQUIRE `?<Initializer for <Constant "END_UNAUTH">>`
        REQUIRE __INIT_XDATA_I

        RSEG XDATA_I:XDATA:NOROOT(0)
        DATA8
`?<Constant "END_DEVICE">`:
        DS 11
        REQUIRE `?<Initializer for <Constant "END_DEVICE">>`
        REQUIRE __INIT_XDATA_I

        RSEG XDATA_I:XDATA:NOROOT(0)
        DATA8
`?<Constant "ROUTER">`:
        DS 7
        REQUIRE `?<Initializer for <Constant "ROUTER">>`
        REQUIRE __INIT_XDATA_I

        RSEG XDATA_I:XDATA:NOROOT(0)
        DATA8
`?<Constant "COORD_START">`:
        DS 12
        REQUIRE `?<Initializer for <Constant "COORD_START">>`
        REQUIRE __INIT_XDATA_I

        RSEG XDATA_I:XDATA:NOROOT(0)
        DATA8
`?<Constant "ZB_COORD">`:
        DS 9
        REQUIRE `?<Initializer for <Constant "ZB_COORD">>`
        REQUIRE __INIT_XDATA_I

        RSEG XDATA_I:XDATA:NOROOT(0)
        DATA8
`?<Constant "NWK_ORPHAN">`:
        DS 11
        REQUIRE `?<Initializer for <Constant "NWK_ORPHAN">>`
        REQUIRE __INIT_XDATA_I

        RSEG XDATA_I:XDATA:NOROOT(0)
        DATA16
`?<Constant "?">`:
        DS 2
        REQUIRE `?<Initializer for <Constant "?">>`
        REQUIRE __INIT_XDATA_I

        RSEG XDATA_I:XDATA:NOROOT(0)
        DATA8
`?<Constant "\\r\\n==== Node2 (LDR)  r...">`:
        DS 46
        REQUIRE `?<Initializer for <Constant "\\r\\n==== Node2 (L`
        REQUIRE __INIT_XDATA_I

        RSEG XDATA_I:XDATA:NOROOT(0)
        DATA8
`?<Constant "[n2] LDR lux=%u -> ZC...">`:
        DS 28
        REQUIRE `?<Initializer for <Constant "[n2] LDR lux=%u -`
        REQUIRE __INIT_XDATA_I

        RSEG XDATA_I:XDATA:NOROOT(0)
        DATA8
`?<Constant "[cfm] first report CO...">`:
        DS 41
        REQUIRE `?<Initializer for <Constant "[cfm] first repor`
        REQUIRE __INIT_XDATA_I

        RSEG XDATA_I:XDATA:NOROOT(0)
        DATA8
`?<Constant "[cfm] OK">`:
        DS 9
        REQUIRE `?<Initializer for <Constant "[cfm] OK">>`
        REQUIRE __INIT_XDATA_I

        RSEG XDATA_I:XDATA:NOROOT(0)
        DATA8
`?<Constant "[cfm] FAIL status=0x%...">`:
        DS 27
        REQUIRE `?<Initializer for <Constant "[cfm] FAIL status`
        REQUIRE __INIT_XDATA_I

        RSEG XDATA_I:XDATA:NOROOT(0)
        DATA8
`?<Constant "[zdo] state=%u (%s)\\r\\n">`:
        DS 22
        REQUIRE `?<Initializer for <Constant "[zdo] state=%u (%`
        REQUIRE __INIT_XDATA_I

        RSEG XDATA_I:XDATA:NOROOT(0)
        DATA8
`?<Constant "[zdo] JOINED pan=%04X...">`:
        DS 41
        REQUIRE `?<Initializer for <Constant "[zdo] JOINED pan=`
        REQUIRE __INIT_XDATA_I
//   47 
//   48 static const char *state_name(devStates_t st)
//   49 {
//   50     switch (st) {
//   51     case DEV_HOLD:               return "HOLD";
//   52     case DEV_INIT:               return "INIT";
//   53     case DEV_NWK_DISC:           return "NWK_DISC";
//   54     case DEV_NWK_JOINING:        return "NWK_JOINING";
//   55     case DEV_NWK_REJOIN:         return "NWK_REJOIN";
//   56     case DEV_END_DEVICE_UNAUTH:  return "END_UNAUTH";
//   57     case DEV_END_DEVICE:         return "END_DEVICE";
//   58     case DEV_ROUTER:             return "ROUTER";
//   59     case DEV_COORD_STARTING:     return "COORD_START";
//   60     case DEV_ZB_COORD:           return "ZB_COORD";
//   61     case DEV_NWK_ORPHAN:         return "NWK_ORPHAN";
//   62     default:                     return "?";
//   63     }
//   64 }
//   65 
//   66 

        RSEG XDATA_I:XDATA:NOROOT(0)
//   67 uint8 ZbNode_TaskID = 0xFF;
ZbNode_TaskID:
        DATA8
        DS 1
        REQUIRE `?<Initializer for ZbNode_TaskID>`
        REQUIRE __INIT_XDATA_I
//   68 
//   69 typedef struct {
//   70     int8  last_result;
//   71     uint8 last_status;
//   72     uint8 last_transid;
//   73     uint8 pending_reports;
//   74     uint8 fail_count;
//   75     uint8 consecutive_fail;
//   76 } report_diag_t;
//   77 

        RSEG XDATA_Z:XDATA:NOROOT(0)
        DATA8
//   78 static endPointDesc_t s_ep1, s_ep2;
s_ep1:
        DS 6
        REQUIRE __INIT_XDATA_Z

        RSEG XDATA_Z:XDATA:NOROOT(0)
        DATA8
s_ep2:
        DS 6
        REQUIRE __INIT_XDATA_Z

        RSEG XDATA_Z:XDATA:NOROOT(0)
        DATA8
//   79 static SimpleDescriptionFormat_t s_sd1, s_sd2;
s_sd1:
        DS 12
        REQUIRE __INIT_XDATA_Z

        RSEG XDATA_Z:XDATA:NOROOT(0)
        DATA8
s_sd2:
        DS 12
        REQUIRE __INIT_XDATA_Z

        RSEG XDATA_I:XDATA:NOROOT(0)
//   80 static cId_t s_in_sensor[1] = { 0x0006u };
s_in_sensor:
        DATA16
        DS 2
        REQUIRE `?<Initializer for s_in_sensor>`
        REQUIRE __INIT_XDATA_I
//   81 #if NODE_ROLE == 1
//   82 static cId_t s_out_sensor[3] = { 0x0402u, 0x0405u, 0x0006u };
//   83 #else

        RSEG XDATA_I:XDATA:NOROOT(0)
//   84 static cId_t s_out_sensor[2] = { 0x0400u, 0x0006u };
s_out_sensor:
        DATA32
        DS 4
        REQUIRE `?<Initializer for s_out_sensor>`
        REQUIRE __INIT_XDATA_I
//   85 #endif

        RSEG XDATA_I:XDATA:NOROOT(0)
//   86 static cId_t s_in_buzzer[1] = { 0x0006u };
s_in_buzzer:
        DATA16
        DS 2
        REQUIRE `?<Initializer for s_in_buzzer>`
        REQUIRE __INIT_XDATA_I

        RSEG XDATA_I:XDATA:NOROOT(0)
//   87 static cId_t s_out_buzzer[1] = { 0x0006u };
s_out_buzzer:
        DATA16
        DS 2
        REQUIRE `?<Initializer for s_out_buzzer>`
        REQUIRE __INIT_XDATA_I

        RSEG XDATA_Z:XDATA:NOROOT(0)
        DATA8
//   88 static uint8 s_nwk_joined = 0;
s_nwk_joined:
        DS 1
        REQUIRE __INIT_XDATA_Z

        RSEG XDATA_Z:XDATA:NOROOT(0)
        DATA8
//   89 static uint8 s_link_ready = 0;
s_link_ready:
        DS 1
        REQUIRE __INIT_XDATA_Z

        RSEG XDATA_Z:XDATA:NOROOT(0)
        DATA8
//   90 static uint8 s_wait_first_report_cfm = 0;
s_wait_first_report_cfm:
        DS 1
        REQUIRE __INIT_XDATA_Z

        RSEG XDATA_I:XDATA:NOROOT(0)
//   91 static devStates_t s_nwk_state = DEV_INIT;
s_nwk_state:
        DATA8
        DS 1
        REQUIRE `?<Initializer for s_nwk_state>`
        REQUIRE __INIT_XDATA_I

        RSEG XDATA_Z:XDATA:NOROOT(0)
        DATA8
//   92 static report_diag_t s_report_diag;
s_report_diag:
        DS 6
        REQUIRE __INIT_XDATA_Z

        RSEG XDATA_Z:XDATA:NOROOT(0)
        DATA8
//   93 static uint8 s_status_led_phase = 0;
s_status_led_phase:
        DS 1
        REQUIRE __INIT_XDATA_Z

        RSEG XDATA_I:XDATA:NOROOT(0)
//   94 static uint8 s_startup_leds_owned = 1;
s_startup_leds_owned:
        DATA8
        DS 1
        REQUIRE `?<Initializer for s_startup_leds_owned>`
        REQUIRE __INIT_XDATA_I
//   95 
//   96 #define CLU_ONOFF         0x0006u
//   97 #define CLU_TEMP          0x0402u
//   98 #define CLU_HUM           0x0405u
//   99 #define CLU_LUX           0x0400u
//  100 #define REPORT_RETRY_MS   200u
//  101 #define STATUS_LED_TICK_MS 100u
//  102 #define STATUS_LED_SLOW_TICKS 10u
//  103 #define STATUS_LED_FAST_TICKS 4u
//  104 
//  105 /* OLED 模型缓存：刷新由 ZN_EVT_STATUS_LED 滴答（100ms）触发 model_changed 才写屏。 */

        RSEG XDATA_Z:XDATA:NOROOT(0)
        DATA8
//  106 static node_oled_model_t s_oled_model;
s_oled_model:
        DS 14
        REQUIRE __INIT_XDATA_Z
//  107 
//  108 /* 前置声明：oled_publish() 引用了下方 network_ready()。 */
//  109 static uint8 network_joined(void);
//  110 static uint8 network_ready(void);
//  111 

        RSEG BANKED_CODE:CODE:NOROOT(0)
//  112 static void oled_publish(void)
oled_publish:
        CFI Block cfiBlock3 Using cfiCommon0
        CFI Function oled_publish
        CODE
//  113 {
        FUNCALL oled_publish, network_ready
        LOCFRAME ISTACK, 2, STACK
        LOCFRAME PSTACK, 0, STACK
        LOCFRAME XSTACK, 0, STACK
        LOCFRAME IOVERLAY, 0, STATIC
        LOCFRAME DOVERLAY, 0, STATIC
        ARGFRAME ISTACK, 2, STACK
        ARGFRAME PSTACK, 0, STACK
        ARGFRAME XSTACK, 0, STACK
        ARGFRAME IOVERLAY, 0, STATIC
        ARGFRAME DOVERLAY, 0, STATIC
        FUNCALL oled_publish, NLME_GetShortAddr
        LOCFRAME ISTACK, 2, STACK
        LOCFRAME PSTACK, 0, STACK
        LOCFRAME XSTACK, 0, STACK
        LOCFRAME IOVERLAY, 0, STATIC
        LOCFRAME DOVERLAY, 0, STATIC
        ARGFRAME ISTACK, 2, STACK
        ARGFRAME PSTACK, 0, STACK
        ARGFRAME XSTACK, 0, STACK
        ARGFRAME IOVERLAY, 0, STATIC
        ARGFRAME DOVERLAY, 0, STATIC
        FUNCALL oled_publish, actuator_led_state
        LOCFRAME ISTACK, 2, STACK
        LOCFRAME PSTACK, 0, STACK
        LOCFRAME XSTACK, 0, STACK
        LOCFRAME IOVERLAY, 0, STATIC
        LOCFRAME DOVERLAY, 0, STATIC
        ARGFRAME ISTACK, 2, STACK
        ARGFRAME PSTACK, 0, STACK
        ARGFRAME XSTACK, 0, STACK
        ARGFRAME IOVERLAY, 0, STATIC
        ARGFRAME DOVERLAY, 0, STATIC
        FUNCALL oled_publish, actuator_buzzer_state
        LOCFRAME ISTACK, 2, STACK
        LOCFRAME PSTACK, 0, STACK
        LOCFRAME XSTACK, 0, STACK
        LOCFRAME IOVERLAY, 0, STATIC
        LOCFRAME DOVERLAY, 0, STATIC
        ARGFRAME ISTACK, 2, STACK
        ARGFRAME PSTACK, 0, STACK
        ARGFRAME XSTACK, 0, STACK
        ARGFRAME IOVERLAY, 0, STATIC
        ARGFRAME DOVERLAY, 0, STATIC
        FUNCALL oled_publish, node_oled_view_set
        LOCFRAME ISTACK, 2, STACK
        LOCFRAME PSTACK, 0, STACK
        LOCFRAME XSTACK, 0, STACK
        LOCFRAME IOVERLAY, 0, STATIC
        LOCFRAME DOVERLAY, 0, STATIC
        ARGFRAME ISTACK, 2, STACK
        ARGFRAME PSTACK, 0, STACK
        ARGFRAME XSTACK, 0, STACK
        ARGFRAME IOVERLAY, 0, STATIC
        ARGFRAME DOVERLAY, 0, STATIC
        PUSH    DPL
        CFI DPL0 Frame(CFA_SP, 4)
        CFI CFA_SP SP+-4
        PUSH    DPH
        CFI DPH0 Frame(CFA_SP, 5)
        CFI CFA_SP SP+-5
        ; Saved register size: 2
        ; Auto size: 0
//  114     s_oled_model.online    = network_ready() ? 1u : 0u;
        ; Setup parameters for call to function network_ready
        LCALL   ??network_ready?relay
        MOV     A,R1
        MOV     DPTR,#s_oled_model + 1
        JZ      ??oled_publish_0
        MOV     A,#0x1
        SJMP    ??oled_publish_1
??oled_publish_0:
        CLR     A
??oled_publish_1:
        MOVX    @DPTR,A
//  115     s_oled_model.short_addr= NLME_GetShortAddr();
        ; Setup parameters for call to function NLME_GetShortAddr
        LCALL   ??NLME_GetShortAddr?relay
        MOV     DPTR,#s_oled_model + 2
        MOV     A,R2
        MOVX    @DPTR,A
        INC     DPTR
        MOV     A,R3
        MOVX    @DPTR,A
//  116     s_oled_model.channel   = _NIB.nwkLogicalChannel;
        MOV     DPTR,#_NIB + 22
        MOVX    A,@DPTR
        MOV     DPTR,#s_oled_model + 4
        MOVX    @DPTR,A
//  117     s_oled_model.led_on    = actuator_led_state();
        ; Setup parameters for call to function actuator_led_state
        LCALL   ??actuator_led_state?relay
        MOV     A,R1
        MOV     DPTR,#s_oled_model + 11
        MOVX    @DPTR,A
//  118     s_oled_model.buzzer_on = actuator_buzzer_state();
        ; Setup parameters for call to function actuator_buzzer_state
        LCALL   ??actuator_buzzer_state?relay
        MOV     A,R1
        MOV     DPTR,#s_oled_model + 12
        MOVX    @DPTR,A
//  119     node_oled_view_set(&s_oled_model);
        ; Setup parameters for call to function node_oled_view_set
        MOV     R2,#s_oled_model & 0xff
        MOV     R3,#(s_oled_model >> 8) & 0xff
        LCALL   ??node_oled_view_set?relay
//  120 }
        LJMP    ?Subroutine1 & 0xFFFF
        CFI EndBlock cfiBlock3
//  121 

        RSEG BANKED_CODE:CODE:NOROOT(0)
//  122 static void indicator_pin_init(uint8 pin)
indicator_pin_init:
        CFI Block cfiBlock4 Using cfiCommon0
        CFI Function indicator_pin_init
        CODE
//  123 {
        PUSH    ?V0 + 0
        CFI V0 Frame(CFA_SP, 4)
        CFI CFA_SP SP+-4
        PUSH    ?V0 + 1
        CFI V1 Frame(CFA_SP, 5)
        CFI CFA_SP SP+-5
        ; Saved register size: 2
        ; Auto size: 0
        MOV     ?V0 + 0,#0x1
        MOV     ?V0 + 1,#0x0
        MOV     A,R1
        MOV     R0,#?V0 + 0
        LCALL   ?S_SHL
        MOV     R0,?V0 + 0
        MOV     A,R0
        CPL     A
        ANL     0xf4,A
//  124     P1SEL &= (uint8)~(1u << pin);
//  125     P1DIR |= (uint8)(1u << pin);
        MOV     A,R0
        ORL     0xfe,A
        CFI EndBlock cfiBlock4
//  126 }
        REQUIRE ?Subroutine2
        REQUIRE P1SEL
        REQUIRE P1DIR
        ; // Fall through to label ?Subroutine2

        RSEG BANKED_CODE:CODE:NOROOT(0)
?Subroutine2:
        CFI Block cfiBlock5 Using cfiCommon0
        CFI NoFunction
        CFI CFA_SP SP+-5
        CFI V0 Frame(CFA_SP, 4)
        CFI V1 Frame(CFA_SP, 5)
        POP     ?V0 + 1
        CFI CFA_SP SP+-4
        CFI V1 SameValue
        POP     ?V0 + 0
        CFI CFA_SP SP+-3
        CFI V0 SameValue
        LJMP    ?BRET
        CFI EndBlock cfiBlock5
//  127 

        RSEG BANKED_CODE:CODE:NOROOT(0)
//  128 static void indicator_pin_set(uint8 pin, uint8 on)
indicator_pin_set:
        CFI Block cfiBlock6 Using cfiCommon0
        CFI Function indicator_pin_set
        CODE
//  129 {
        PUSH    ?V0 + 0
        CFI V0 Frame(CFA_SP, 4)
        CFI CFA_SP SP+-4
        PUSH    ?V0 + 1
        CFI V1 Frame(CFA_SP, 5)
        CFI CFA_SP SP+-5
        ; Saved register size: 2
        ; Auto size: 0
//  130     uint8 mask = (uint8)(1u << pin);
        MOV     ?V0 + 0,#0x1
        MOV     ?V0 + 1,#0x0
        MOV     A,R1
        MOV     R0,#?V0 + 0
        LCALL   ?S_SHL
        MOV     R0,?V0 + 0
//  131     uint8 level = on ? ACT_ACTIVE_HIGH : (uint8)(!ACT_ACTIVE_HIGH);
        MOV     A,R2
        JZ      ??indicator_pin_set_0
//  132 
//  133     if (level) {
//  134         P1 |= mask;
        MOV     A,R0
        ORL     0x90,A
        SJMP    ??indicator_pin_set_1
//  135     } else {
//  136         P1 &= (uint8)~mask;
??indicator_pin_set_0:
        MOV     A,R0
        CPL     A
        ANL     0x90,A
//  137     }
//  138 }
??indicator_pin_set_1:
        SJMP    ?Subroutine2
        CFI EndBlock cfiBlock6
        REQUIRE _A_P1
//  139 
//  140 static void indicator_pin_init_all(void)
//  141 {
//  142     indicator_pin_init(NODE_LED_PIN);
//  143     indicator_pin_init(NODE_START_LED_PIN);
//  144     indicator_pin_init(NODE_ALIVE_LED_PIN);
//  145 }
//  146 
//  147 static void startup_led_set(uint8 on)
//  148 {
//  149     indicator_pin_set(NODE_START_LED_PIN, on);
//  150 }
//  151 
//  152 static void alive_led_set(uint8 on)
//  153 {
//  154     indicator_pin_set(NODE_ALIVE_LED_PIN, on);
//  155 }
//  156 

        RSEG BANKED_CODE:CODE:NOROOT(0)
//  157 static void startup_pattern_set(uint8 on)
startup_pattern_set:
        CFI Block cfiBlock7 Using cfiCommon0
        CFI Function startup_pattern_set
        CODE
//  158 {
        FUNCALL startup_pattern_set, indicator_pin_set
        LOCFRAME ISTACK, 0, STACK
        LOCFRAME PSTACK, 0, STACK
        LOCFRAME XSTACK, 9, STACK
        LOCFRAME IOVERLAY, 0, STATIC
        LOCFRAME DOVERLAY, 0, STATIC
        ARGFRAME ISTACK, 0, STACK
        ARGFRAME PSTACK, 0, STACK
        ARGFRAME XSTACK, 9, STACK
        ARGFRAME IOVERLAY, 0, STATIC
        ARGFRAME DOVERLAY, 0, STATIC
        FUNCALL startup_pattern_set, indicator_pin_set
        LOCFRAME ISTACK, 0, STACK
        LOCFRAME PSTACK, 0, STACK
        LOCFRAME XSTACK, 9, STACK
        LOCFRAME IOVERLAY, 0, STATIC
        LOCFRAME DOVERLAY, 0, STATIC
        ARGFRAME ISTACK, 0, STACK
        ARGFRAME PSTACK, 0, STACK
        ARGFRAME XSTACK, 9, STACK
        ARGFRAME IOVERLAY, 0, STATIC
        ARGFRAME DOVERLAY, 0, STATIC
        MOV     A,#-0x9
        LCALL   ?BANKED_ENTER_XDATA
        CFI DPH0 load(1, XDATA, add(CFA_XSP16, literal(-1)))
        CFI DPL0 load(1, XDATA, add(CFA_XSP16, literal(-2)))
        CFI ?BRET_EXT load(1, XDATA, add(CFA_XSP16, literal(-3)))
        CFI ?RET_HIGH load(1, XDATA, add(CFA_XSP16, literal(-4)))
        CFI ?RET_LOW load(1, XDATA, add(CFA_XSP16, literal(-5)))
        CFI R7 load(1, XDATA, add(CFA_XSP16, literal(-6)))
        CFI V0 load(1, XDATA, add(CFA_XSP16, literal(-7)))
        CFI VB load(1, XDATA, add(CFA_XSP16, literal(-8)))
        CFI R6 load(1, XDATA, add(CFA_XSP16, literal(-9)))
        CFI CFA_SP SP+0
        CFI CFA_XSP16 add(XSP16, 9)
        ; Saved register size: 9
        ; Auto size: 0
        MOV     A,R1
        MOV     R6,A
//  159     indicator_pin_set(NODE_LED_PIN, on);
        ; Setup parameters for call to function indicator_pin_set
        MOV     R2,A
        MOV     R1,#0x4
        LCALL   ??indicator_pin_set?relay
//  160     startup_led_set(on);
        ; Setup parameters for call to function indicator_pin_set
        MOV     A,R6
        MOV     R2,A
        MOV     R1,#0x0
        LCALL   ??indicator_pin_set?relay
        CFI EndBlock cfiBlock7
//  161 }
        REQUIRE ?Subroutine3
        ; // Fall through to label ?Subroutine3

        RSEG BANKED_CODE:CODE:NOROOT(0)
?Subroutine3:
        CFI Block cfiBlock8 Using cfiCommon0
        CFI NoFunction
        CFI CFA_SP SP+0
        CFI CFA_XSP16 add(XSP16, 9)
        CFI VB load(1, XDATA, add(CFA_XSP16, literal(-8)))
        CFI DPL0 load(1, XDATA, add(CFA_XSP16, literal(-2)))
        CFI DPH0 load(1, XDATA, add(CFA_XSP16, literal(-1)))
        CFI R6 load(1, XDATA, add(CFA_XSP16, literal(-9)))
        CFI R7 load(1, XDATA, add(CFA_XSP16, literal(-6)))
        CFI V0 load(1, XDATA, add(CFA_XSP16, literal(-7)))
        CFI ?BRET_EXT load(1, XDATA, add(CFA_XSP16, literal(-3)))
        CFI ?RET_HIGH load(1, XDATA, add(CFA_XSP16, literal(-4)))
        CFI ?RET_LOW load(1, XDATA, add(CFA_XSP16, literal(-5)))
        MOV     R7,#0x1
        LJMP    ?BANKED_LEAVE_XDATA
        CFI EndBlock cfiBlock8
//  162 

        RSEG BANKED_CODE:CODE:NOROOT(0)
//  163 static uint8 network_joined(void)
network_joined:
        CFI Block cfiBlock9 Using cfiCommon0
        CFI Function network_joined
        CODE
//  164 {
        PUSH    DPL
        CFI DPL0 Frame(CFA_SP, 4)
        CFI CFA_SP SP+-4
        PUSH    DPH
        CFI DPH0 Frame(CFA_SP, 5)
        CFI CFA_SP SP+-5
        ; Saved register size: 2
        ; Auto size: 0
//  165     return (s_nwk_state == DEV_END_DEVICE) ||
//  166            (s_nwk_state == DEV_ROUTER) ||
//  167            (s_nwk_state == DEV_ZB_COORD);
        MOV     DPTR,#s_nwk_state
        MOVX    A,@DPTR
        XRL     A,#0x6
        JZ      ??network_joined_0
        MOVX    A,@DPTR
        XRL     A,#0x7
        JZ      ??network_joined_0
        MOVX    A,@DPTR
        XRL     A,#0x9
        JNZ     ??network_joined_1
??network_joined_0:
        MOV     R1,#0x1
        SJMP    ??network_joined_2
??network_joined_1:
        MOV     R1,#0x0
??network_joined_2:
        LJMP    ?Subroutine1 & 0xFFFF
        CFI EndBlock cfiBlock9
//  168 }
//  169 
//  170 static uint8 network_joining(void)
//  171 {
//  172     return (s_nwk_state == DEV_NWK_DISC) ||
//  173            (s_nwk_state == DEV_NWK_JOINING) ||
//  174            (s_nwk_state == DEV_NWK_REJOIN) ||
//  175            (s_nwk_state == DEV_NWK_ORPHAN) ||
//  176            (s_nwk_state == DEV_END_DEVICE_UNAUTH);
//  177 }
//  178 

        RSEG BANKED_CODE:CODE:NOROOT(0)
//  179 static void status_led_refresh(void)
status_led_refresh:
        CFI Block cfiBlock10 Using cfiCommon0
        CFI Function status_led_refresh
        CODE
//  180 {
        FUNCALL status_led_refresh, indicator_pin_set
        LOCFRAME ISTACK, 2, STACK
        LOCFRAME PSTACK, 0, STACK
        LOCFRAME XSTACK, 0, STACK
        LOCFRAME IOVERLAY, 0, STATIC
        LOCFRAME DOVERLAY, 0, STATIC
        ARGFRAME ISTACK, 2, STACK
        ARGFRAME PSTACK, 0, STACK
        ARGFRAME XSTACK, 0, STACK
        ARGFRAME IOVERLAY, 0, STATIC
        ARGFRAME DOVERLAY, 0, STATIC
        FUNCALL status_led_refresh, startup_pattern_set
        LOCFRAME ISTACK, 2, STACK
        LOCFRAME PSTACK, 0, STACK
        LOCFRAME XSTACK, 0, STACK
        LOCFRAME IOVERLAY, 0, STATIC
        LOCFRAME DOVERLAY, 0, STATIC
        ARGFRAME ISTACK, 2, STACK
        ARGFRAME PSTACK, 0, STACK
        ARGFRAME XSTACK, 0, STACK
        ARGFRAME IOVERLAY, 0, STATIC
        ARGFRAME DOVERLAY, 0, STATIC
        FUNCALL status_led_refresh, actuator_led_set
        LOCFRAME ISTACK, 2, STACK
        LOCFRAME PSTACK, 0, STACK
        LOCFRAME XSTACK, 0, STACK
        LOCFRAME IOVERLAY, 0, STATIC
        LOCFRAME DOVERLAY, 0, STATIC
        ARGFRAME ISTACK, 2, STACK
        ARGFRAME PSTACK, 0, STACK
        ARGFRAME XSTACK, 0, STACK
        ARGFRAME IOVERLAY, 0, STATIC
        ARGFRAME DOVERLAY, 0, STATIC
        FUNCALL status_led_refresh, indicator_pin_set
        LOCFRAME ISTACK, 2, STACK
        LOCFRAME PSTACK, 0, STACK
        LOCFRAME XSTACK, 0, STACK
        LOCFRAME IOVERLAY, 0, STATIC
        LOCFRAME DOVERLAY, 0, STATIC
        ARGFRAME ISTACK, 2, STACK
        ARGFRAME PSTACK, 0, STACK
        ARGFRAME XSTACK, 0, STACK
        ARGFRAME IOVERLAY, 0, STATIC
        ARGFRAME DOVERLAY, 0, STATIC
        FUNCALL status_led_refresh, network_joined
        LOCFRAME ISTACK, 2, STACK
        LOCFRAME PSTACK, 0, STACK
        LOCFRAME XSTACK, 0, STACK
        LOCFRAME IOVERLAY, 0, STATIC
        LOCFRAME DOVERLAY, 0, STATIC
        ARGFRAME ISTACK, 2, STACK
        ARGFRAME PSTACK, 0, STACK
        ARGFRAME XSTACK, 0, STACK
        ARGFRAME IOVERLAY, 0, STATIC
        ARGFRAME DOVERLAY, 0, STATIC
        FUNCALL status_led_refresh, startup_pattern_set
        LOCFRAME ISTACK, 2, STACK
        LOCFRAME PSTACK, 0, STACK
        LOCFRAME XSTACK, 0, STACK
        LOCFRAME IOVERLAY, 0, STATIC
        LOCFRAME DOVERLAY, 0, STATIC
        ARGFRAME ISTACK, 2, STACK
        ARGFRAME PSTACK, 0, STACK
        ARGFRAME XSTACK, 0, STACK
        ARGFRAME IOVERLAY, 0, STATIC
        ARGFRAME DOVERLAY, 0, STATIC
        FUNCALL status_led_refresh, startup_pattern_set
        LOCFRAME ISTACK, 2, STACK
        LOCFRAME PSTACK, 0, STACK
        LOCFRAME XSTACK, 0, STACK
        LOCFRAME IOVERLAY, 0, STATIC
        LOCFRAME DOVERLAY, 0, STATIC
        ARGFRAME ISTACK, 2, STACK
        ARGFRAME PSTACK, 0, STACK
        ARGFRAME XSTACK, 0, STACK
        ARGFRAME IOVERLAY, 0, STATIC
        ARGFRAME DOVERLAY, 0, STATIC
        PUSH    DPL
        CFI DPL0 Frame(CFA_SP, 4)
        CFI CFA_SP SP+-4
        PUSH    DPH
        CFI DPH0 Frame(CFA_SP, 5)
        CFI CFA_SP SP+-5
        ; Saved register size: 2
        ; Auto size: 0
//  181     uint8 blink_on;
//  182 
//  183     alive_led_set(1u);
        ; Setup parameters for call to function indicator_pin_set
        MOV     R2,#0x1
        MOV     R1,#0x1
        LCALL   ??indicator_pin_set?relay
//  184 
//  185     if (s_link_ready) {
        MOV     DPTR,#s_link_ready
        MOVX    A,@DPTR
        JZ      ??status_led_refresh_0
//  186         if (s_startup_leds_owned) {
        MOV     DPTR,#s_startup_leds_owned
        MOVX    A,@DPTR
        JZ      ??status_led_refresh_1
//  187             startup_pattern_set(0u);
        ; Setup parameters for call to function startup_pattern_set
        MOV     R1,#0x0
        LCALL   ??startup_pattern_set?relay
//  188             actuator_led_set(0u);
        ; Setup parameters for call to function actuator_led_set
        MOV     R1,#0x0
        LCALL   ??actuator_led_set?relay
//  189             s_startup_leds_owned = 0u;
        MOV     DPTR,#s_startup_leds_owned
        CLR     A
        MOVX    @DPTR,A
        SJMP    ??status_led_refresh_2
//  190         } else {
//  191             startup_led_set(0u);
??status_led_refresh_1:
        ; Setup parameters for call to function indicator_pin_set
        MOV     R2,#0x0
        MOV     R1,#0x0
        LCALL   ??indicator_pin_set?relay
//  192         }
//  193     } else if (network_joining() || network_joined()) {
        SJMP    ??status_led_refresh_2
??status_led_refresh_0:
        MOV     DPTR,#s_nwk_state
        MOVX    A,@DPTR
        XRL     A,#0x2
        JZ      ??status_led_refresh_3
        MOVX    A,@DPTR
        XRL     A,#0x3
        JZ      ??status_led_refresh_3
        MOVX    A,@DPTR
        XRL     A,#0x4
        JZ      ??status_led_refresh_3
        MOVX    A,@DPTR
        XRL     A,#0xa
        JZ      ??status_led_refresh_3
        MOVX    A,@DPTR
        XRL     A,#0x5
        JZ      ??status_led_refresh_3
        ; Setup parameters for call to function network_joined
        LCALL   ??network_joined?relay
        MOV     A,R1
        JZ      ??status_led_refresh_4
//  194         s_startup_leds_owned = 1u;
??status_led_refresh_3:
        MOV     DPTR,#s_startup_leds_owned
        MOV     A,#0x1
        MOVX    @DPTR,A
//  195         blink_on = (uint8)((s_status_led_phase % STATUS_LED_FAST_TICKS) <
//  196                            (STATUS_LED_FAST_TICKS / 2u));
        MOV     DPTR,#s_status_led_phase
        MOVX    A,@DPTR
        ANL     A,#0x3
        CLR     C
        SUBB    A,#0x2
        JNC     ??status_led_refresh_5
??status_led_refresh_6:
        MOV     R1,#0x1
        SJMP    ??status_led_refresh_7
        ; Setup parameters for call to function startup_pattern_set
//  197         startup_pattern_set(blink_on);
//  198     } else {
//  199         s_startup_leds_owned = 1u;
??status_led_refresh_4:
        MOV     DPTR,#s_startup_leds_owned
        MOV     A,#0x1
        MOVX    @DPTR,A
//  200         blink_on = (uint8)((s_status_led_phase % STATUS_LED_SLOW_TICKS) <
//  201                            (STATUS_LED_SLOW_TICKS / 2u));
        MOV     DPTR,#s_status_led_phase
        MOVX    A,@DPTR
        MOV     B,#0xa
        DIV     AB
        MOV     A,B
        SUBB    A,#0x5
        JC      ??status_led_refresh_6
??status_led_refresh_5:
        MOV     R1,#0x0
//  202         startup_pattern_set(blink_on);
??status_led_refresh_7:
        ; Setup parameters for call to function startup_pattern_set
        LCALL   ??startup_pattern_set?relay
        CFI EndBlock cfiBlock10
//  203     }
//  204 }
??status_led_refresh_2:
        REQUIRE ?Subroutine1
        ; // Fall through to label ?Subroutine1

        RSEG BANKED_CODE:CODE:NOROOT(0)
?Subroutine1:
        CFI Block cfiBlock11 Using cfiCommon0
        CFI NoFunction
        CFI CFA_SP SP+-5
        CFI DPL0 Frame(CFA_SP, 4)
        CFI DPH0 Frame(CFA_SP, 5)
        POP     DPH
        CFI CFA_SP SP+-4
        CFI DPH0 SameValue
        POP     DPL
        CFI CFA_SP SP+-3
        CFI DPL0 SameValue
        LJMP    ?BRET
        CFI EndBlock cfiBlock11
//  205 

        RSEG BANKED_CODE:CODE:NOROOT(0)
//  206 void ZbNode_PreInit(void)
ZbNode_PreInit:
        CFI Block cfiBlock12 Using cfiCommon0
        CFI Function ZbNode_PreInit
        CODE
//  207 {
        FUNCALL ZbNode_PreInit, indicator_pin_init
        LOCFRAME ISTACK, 2, STACK
        LOCFRAME PSTACK, 0, STACK
        LOCFRAME XSTACK, 0, STACK
        LOCFRAME IOVERLAY, 0, STATIC
        LOCFRAME DOVERLAY, 0, STATIC
        ARGFRAME ISTACK, 2, STACK
        ARGFRAME PSTACK, 0, STACK
        ARGFRAME XSTACK, 0, STACK
        ARGFRAME IOVERLAY, 0, STATIC
        ARGFRAME DOVERLAY, 0, STATIC
        FUNCALL ZbNode_PreInit, indicator_pin_init
        LOCFRAME ISTACK, 2, STACK
        LOCFRAME PSTACK, 0, STACK
        LOCFRAME XSTACK, 0, STACK
        LOCFRAME IOVERLAY, 0, STATIC
        LOCFRAME DOVERLAY, 0, STATIC
        ARGFRAME ISTACK, 2, STACK
        ARGFRAME PSTACK, 0, STACK
        ARGFRAME XSTACK, 0, STACK
        ARGFRAME IOVERLAY, 0, STATIC
        ARGFRAME DOVERLAY, 0, STATIC
        FUNCALL ZbNode_PreInit, indicator_pin_init
        LOCFRAME ISTACK, 2, STACK
        LOCFRAME PSTACK, 0, STACK
        LOCFRAME XSTACK, 0, STACK
        LOCFRAME IOVERLAY, 0, STATIC
        LOCFRAME DOVERLAY, 0, STATIC
        ARGFRAME ISTACK, 2, STACK
        ARGFRAME PSTACK, 0, STACK
        ARGFRAME XSTACK, 0, STACK
        ARGFRAME IOVERLAY, 0, STATIC
        ARGFRAME DOVERLAY, 0, STATIC
        FUNCALL ZbNode_PreInit, status_led_refresh
        LOCFRAME ISTACK, 2, STACK
        LOCFRAME PSTACK, 0, STACK
        LOCFRAME XSTACK, 0, STACK
        LOCFRAME IOVERLAY, 0, STATIC
        LOCFRAME DOVERLAY, 0, STATIC
        ARGFRAME ISTACK, 2, STACK
        ARGFRAME PSTACK, 0, STACK
        ARGFRAME XSTACK, 0, STACK
        ARGFRAME IOVERLAY, 0, STATIC
        ARGFRAME DOVERLAY, 0, STATIC
        FUNCALL ZbNode_PreInit, zgWriteStartupOptions
        LOCFRAME ISTACK, 2, STACK
        LOCFRAME PSTACK, 0, STACK
        LOCFRAME XSTACK, 0, STACK
        LOCFRAME IOVERLAY, 0, STATIC
        LOCFRAME DOVERLAY, 0, STATIC
        ARGFRAME ISTACK, 2, STACK
        ARGFRAME PSTACK, 0, STACK
        ARGFRAME XSTACK, 0, STACK
        ARGFRAME IOVERLAY, 0, STATIC
        ARGFRAME DOVERLAY, 0, STATIC
        PUSH    DPL
        CFI DPL0 Frame(CFA_SP, 4)
        CFI CFA_SP SP+-4
        PUSH    DPH
        CFI DPH0 Frame(CFA_SP, 5)
        CFI CFA_SP SP+-5
        ; Saved register size: 2
        ; Auto size: 0
//  208     indicator_pin_init_all();
        ; Setup parameters for call to function indicator_pin_init
        MOV     R1,#0x4
        LCALL   ??indicator_pin_init?relay
        ; Setup parameters for call to function indicator_pin_init
        MOV     R1,#0x0
        LCALL   ??indicator_pin_init?relay
        ; Setup parameters for call to function indicator_pin_init
        MOV     R1,#0x1
        LCALL   ??indicator_pin_init?relay
//  209     s_status_led_phase = 0;
        MOV     DPTR,#s_status_led_phase
        CLR     A
        MOVX    @DPTR,A
//  210     s_startup_leds_owned = 1u;
        MOV     DPTR,#s_startup_leds_owned
        INC     A
        LCALL   ?Subroutine5 & 0xFFFF
//  211     s_nwk_joined = 0;
//  212     s_link_ready = 0;
//  213     s_wait_first_report_cfm = 0;
//  214     s_nwk_state = DEV_INIT;
//  215     status_led_refresh();
??CrossCallReturnLabel_2:
        ; Setup parameters for call to function status_led_refresh
        LCALL   ??status_led_refresh?relay
//  216     /* 每次上电都强制清掉 NV 的网络 + 配置状态，让端节点以"首次加入"方式走发现 → 加入流程。
//  217      * 只设 NETWORK_STATE 时，如果上次保留了 PANID/信道偏好，偶尔会卡在旧 PAN。
//  218      * 同时清 CONFIG_STATE 可以连 TCLK / NIB 参数一起清零。 */
//  219     (void)zgWriteStartupOptions(ZG_STARTUP_SET,
//  220                                 (uint8)(ZCD_STARTOPT_DEFAULT_NETWORK_STATE |
//  221                                         ZCD_STARTOPT_DEFAULT_CONFIG_STATE));
        ; Setup parameters for call to function zgWriteStartupOptions
        MOV     R2,#0x3
        MOV     R1,#-0x1
        LCALL   ??zgWriteStartupOptions?relay
//  222 }
        SJMP    ?Subroutine1
        CFI EndBlock cfiBlock12
//  223 

        RSEG BANKED_CODE:CODE:NOROOT(0)
//  224 static uint8 network_ready(void)
network_ready:
        CFI Block cfiBlock13 Using cfiCommon0
        CFI Function network_ready
        CODE
//  225 {
        FUNCALL network_ready, network_joined
        LOCFRAME ISTACK, 2, STACK
        LOCFRAME PSTACK, 0, STACK
        LOCFRAME XSTACK, 0, STACK
        LOCFRAME IOVERLAY, 0, STATIC
        LOCFRAME DOVERLAY, 0, STATIC
        ARGFRAME ISTACK, 2, STACK
        ARGFRAME PSTACK, 0, STACK
        ARGFRAME XSTACK, 0, STACK
        ARGFRAME IOVERLAY, 0, STATIC
        ARGFRAME DOVERLAY, 0, STATIC
        PUSH    DPL
        CFI DPL0 Frame(CFA_SP, 4)
        CFI CFA_SP SP+-4
        PUSH    DPH
        CFI DPH0 Frame(CFA_SP, 5)
        CFI CFA_SP SP+-5
        ; Saved register size: 2
        ; Auto size: 0
//  226     return s_nwk_joined &&
//  227            network_joined();
        MOV     DPTR,#s_nwk_joined
        MOVX    A,@DPTR
        JZ      ??network_ready_0
        ; Setup parameters for call to function network_joined
        LCALL   ??network_joined?relay
        MOV     A,R1
        JZ      ??network_ready_0
        MOV     R1,#0x1
        SJMP    ??network_ready_1
??network_ready_0:
        MOV     R1,#0x0
??network_ready_1:
        SJMP    ?Subroutine1
        CFI EndBlock cfiBlock13
//  228 }
//  229 

        RSEG BANKED_CODE:CODE:NOROOT(0)
//  230 static void note_local_report_failure(int8 rc)
note_local_report_failure:
        CFI Block cfiBlock14 Using cfiCommon0
        CFI Function note_local_report_failure
        CODE
//  231 {
        FUNCALL note_local_report_failure, network_ready
        LOCFRAME ISTACK, 0, STACK
        LOCFRAME PSTACK, 0, STACK
        LOCFRAME XSTACK, 9, STACK
        LOCFRAME IOVERLAY, 0, STATIC
        LOCFRAME DOVERLAY, 0, STATIC
        ARGFRAME ISTACK, 0, STACK
        ARGFRAME PSTACK, 0, STACK
        ARGFRAME XSTACK, 9, STACK
        ARGFRAME IOVERLAY, 0, STATIC
        ARGFRAME DOVERLAY, 0, STATIC
        FUNCALL note_local_report_failure, osal_start_timerEx
        LOCFRAME ISTACK, 0, STACK
        LOCFRAME PSTACK, 0, STACK
        LOCFRAME XSTACK, 9, STACK
        LOCFRAME IOVERLAY, 0, STATIC
        LOCFRAME DOVERLAY, 0, STATIC
        ARGFRAME ISTACK, 0, STACK
        ARGFRAME PSTACK, 0, STACK
        ARGFRAME XSTACK, 9, STACK
        ARGFRAME IOVERLAY, 0, STATIC
        ARGFRAME DOVERLAY, 0, STATIC
        MOV     A,#-0x9
        LCALL   ?BANKED_ENTER_XDATA
        CFI DPH0 load(1, XDATA, add(CFA_XSP16, literal(-1)))
        CFI DPL0 load(1, XDATA, add(CFA_XSP16, literal(-2)))
        CFI ?BRET_EXT load(1, XDATA, add(CFA_XSP16, literal(-3)))
        CFI ?RET_HIGH load(1, XDATA, add(CFA_XSP16, literal(-4)))
        CFI ?RET_LOW load(1, XDATA, add(CFA_XSP16, literal(-5)))
        CFI R7 load(1, XDATA, add(CFA_XSP16, literal(-6)))
        CFI V0 load(1, XDATA, add(CFA_XSP16, literal(-7)))
        CFI VB load(1, XDATA, add(CFA_XSP16, literal(-8)))
        CFI R6 load(1, XDATA, add(CFA_XSP16, literal(-9)))
        CFI CFA_SP SP+0
        CFI CFA_XSP16 add(XSP16, 9)
        ; Saved register size: 9
        ; Auto size: 0
        MOV     A,R1
//  232     s_report_diag.last_result = rc;
        MOV     DPTR,#s_report_diag
        MOVX    @DPTR,A
//  233     s_report_diag.fail_count++;
        MOV     DPTR,#s_report_diag + 4
        MOVX    A,@DPTR
        INC     A
        MOVX    @DPTR,A
//  234     s_report_diag.consecutive_fail++;
        INC     DPTR
        MOVX    A,@DPTR
        INC     A
        MOVX    @DPTR,A
//  235 
//  236     if (network_ready()) {
        ; Setup parameters for call to function network_ready
        LCALL   ??network_ready?relay
        MOV     A,R1
        JZ      ??note_local_report_failure_0
//  237         (void)osal_start_timerEx(ZbNode_TaskID, ZN_EVT_REPORT_RETRY, REPORT_RETRY_MS);
        ; Setup parameters for call to function osal_start_timerEx
        MOV     R4,#-0x38
        MOV     R5,#0x0
        MOV     R2,#0x2
        MOV     R3,#0x0
        MOV     DPTR,#ZbNode_TaskID
        MOVX    A,@DPTR
        MOV     R1,A
        LCALL   ??osal_start_timerEx?relay
//  238     }
//  239 }
??note_local_report_failure_0:
        LJMP    ?Subroutine3 & 0xFFFF
        CFI EndBlock cfiBlock14
//  240 

        RSEG BANKED_CODE:CODE:NOROOT(0)
//  241 static int8 send_attr_report(uint8 src_ep, uint16 cluster, uint16 attrId,
send_attr_report:
        CFI Block cfiBlock15 Using cfiCommon0
        CFI Function send_attr_report
        CODE
//  242                              uint8 dtype, const void *val, uint8 vlen)
//  243 {
        FUNCALL send_attr_report, zcl_report_send
        LOCFRAME ISTACK, 0, STACK
        LOCFRAME PSTACK, 0, STACK
        LOCFRAME XSTACK, 15, STACK
        LOCFRAME IOVERLAY, 0, STATIC
        LOCFRAME DOVERLAY, 0, STATIC
        ARGFRAME ISTACK, 0, STACK
        ARGFRAME PSTACK, 0, STACK
        ARGFRAME XSTACK, 15, STACK
        ARGFRAME IOVERLAY, 0, STATIC
        ARGFRAME DOVERLAY, 0, STATIC
        FUNCALL send_attr_report, note_local_report_failure
        LOCFRAME ISTACK, 0, STACK
        LOCFRAME PSTACK, 0, STACK
        LOCFRAME XSTACK, 11, STACK
        LOCFRAME IOVERLAY, 0, STATIC
        LOCFRAME DOVERLAY, 0, STATIC
        ARGFRAME ISTACK, 0, STACK
        ARGFRAME PSTACK, 0, STACK
        ARGFRAME XSTACK, 11, STACK
        ARGFRAME IOVERLAY, 0, STATIC
        ARGFRAME DOVERLAY, 0, STATIC
        MOV     A,#-0xb
        LCALL   ?BANKED_ENTER_XDATA
        CFI DPH0 load(1, XDATA, add(CFA_XSP16, literal(-1)))
        CFI DPL0 load(1, XDATA, add(CFA_XSP16, literal(-2)))
        CFI ?BRET_EXT load(1, XDATA, add(CFA_XSP16, literal(-3)))
        CFI ?RET_HIGH load(1, XDATA, add(CFA_XSP16, literal(-4)))
        CFI ?RET_LOW load(1, XDATA, add(CFA_XSP16, literal(-5)))
        CFI R7 load(1, XDATA, add(CFA_XSP16, literal(-6)))
        CFI V2 load(1, XDATA, add(CFA_XSP16, literal(-7)))
        CFI V1 load(1, XDATA, add(CFA_XSP16, literal(-8)))
        CFI V0 load(1, XDATA, add(CFA_XSP16, literal(-9)))
        CFI VB load(1, XDATA, add(CFA_XSP16, literal(-10)))
        CFI R6 load(1, XDATA, add(CFA_XSP16, literal(-11)))
        CFI CFA_SP SP+0
        CFI CFA_XSP16 add(XSP16, 11)
        ; Saved register size: 11
        ; Auto size: 0
        MOV     A,R1
        MOV     R7,A
        MOV     A,#0xb
        LCALL   ?XSTACK_DISP0_8
        MOVX    A,@DPTR
        MOV     R1,A
        MOV     A,#0xc
        LCALL   ?XSTACK_DISP0_8
        MOVX    A,@DPTR
        MOV     ?V0 + 0,A
        INC     DPTR
        MOVX    A,@DPTR
        MOV     ?V0 + 1,A
        MOV     A,#0xe
        LCALL   ?XSTACK_DISP0_8
        MOVX    A,@DPTR
//  244     int8 rc;
//  245 
//  246     rc = zcl_report_send(src_ep, cluster, attrId, dtype, val, vlen);
        ; Setup parameters for call to function zcl_report_send
        MOV     ?V0 + 2,A
        MOV     R0,#?V0 + 2
        LCALL   ?PUSH_XSTACK_I_ONE
        CFI CFA_XSP16 add(XSP16, 12)
        MOV     R0,#?V0 + 0
        LCALL   ?PUSH_XSTACK_I_TWO
        CFI CFA_XSP16 add(XSP16, 14)
        MOV     A,R1
        MOV     ?V0 + 0,A
        MOV     R0,#?V0 + 0
        LCALL   ?PUSH_XSTACK_I_ONE
        CFI CFA_XSP16 add(XSP16, 15)
        MOV     A,R7
        MOV     R1,A
        LCALL   ??zcl_report_send?relay
        MOV     A,#0x4
        LCALL   ?DEALLOC_XSTACK8
        CFI CFA_XSP16 add(XSP16, 11)
        MOV     A,R1
        MOV     R6,A
//  247     s_report_diag.last_result = rc;
        MOV     DPTR,#s_report_diag
        MOVX    @DPTR,A
//  248     if (rc == 0) {
        JNZ     ??send_attr_report_0
//  249         s_report_diag.pending_reports++;
        MOV     DPTR,#s_report_diag + 3
        MOVX    A,@DPTR
        INC     A
        MOVX    @DPTR,A
        SJMP    ??send_attr_report_1
//  250     } else {
//  251         note_local_report_failure(rc);
??send_attr_report_0:
        ; Setup parameters for call to function note_local_report_failure
        LCALL   ??note_local_report_failure?relay
//  252     }
//  253     return rc;
??send_attr_report_1:
        MOV     A,R6
        MOV     R1,A
        MOV     R7,#0x3
        LJMP    ?BANKED_LEAVE_XDATA
        CFI EndBlock cfiBlock15
//  254 }
//  255 

        RSEG BANKED_CODE:CODE:NOROOT(0)
//  256 static void register_endpoints(void)
register_endpoints:
        CFI Block cfiBlock16 Using cfiCommon0
        CFI Function register_endpoints
        CODE
//  257 {
        FUNCALL register_endpoints, afRegister
        LOCFRAME ISTACK, 2, STACK
        LOCFRAME PSTACK, 0, STACK
        LOCFRAME XSTACK, 0, STACK
        LOCFRAME IOVERLAY, 0, STATIC
        LOCFRAME DOVERLAY, 0, STATIC
        ARGFRAME ISTACK, 2, STACK
        ARGFRAME PSTACK, 0, STACK
        ARGFRAME XSTACK, 0, STACK
        ARGFRAME IOVERLAY, 0, STATIC
        ARGFRAME DOVERLAY, 0, STATIC
        FUNCALL register_endpoints, afRegister
        LOCFRAME ISTACK, 2, STACK
        LOCFRAME PSTACK, 0, STACK
        LOCFRAME XSTACK, 0, STACK
        LOCFRAME IOVERLAY, 0, STATIC
        LOCFRAME DOVERLAY, 0, STATIC
        ARGFRAME ISTACK, 2, STACK
        ARGFRAME PSTACK, 0, STACK
        ARGFRAME XSTACK, 0, STACK
        ARGFRAME IOVERLAY, 0, STATIC
        ARGFRAME DOVERLAY, 0, STATIC
        PUSH    DPL
        CFI DPL0 Frame(CFA_SP, 4)
        CFI CFA_SP SP+-4
        PUSH    DPH
        CFI DPH0 Frame(CFA_SP, 5)
        CFI CFA_SP SP+-5
        ; Saved register size: 2
        ; Auto size: 0
//  258     s_sd1.EndPoint           = ZBNODE_EP_SENSOR;
        MOV     DPTR,#s_sd1
        MOV     A,#0x1
        LCALL   ?Subroutine4 & 0xFFFF
//  259     s_sd1.AppProfId          = ZBNODE_PROFILE_ID;
//  260     s_sd1.AppDeviceId        = ZBNODE_DEVICE_ID;
//  261     s_sd1.AppDevVer          = ZBNODE_DEVICE_VER;
//  262     s_sd1.Reserved           = 0;
//  263     s_sd1.AppNumInClusters   = sizeof(s_in_sensor) / sizeof(s_in_sensor[0]);
//  264     s_sd1.pAppInClusterList  = s_in_sensor;
??CrossCallReturnLabel_0:
        MOV     A,#s_in_sensor & 0xff
        MOVX    @DPTR,A
        INC     DPTR
        MOV     A,#(s_in_sensor >> 8) & 0xff
        MOVX    @DPTR,A
//  265     s_sd1.AppNumOutClusters  = sizeof(s_out_sensor) / sizeof(s_out_sensor[0]);
        INC     DPTR
        MOV     A,#0x2
        MOVX    @DPTR,A
//  266     s_sd1.pAppOutClusterList = s_out_sensor;
        INC     DPTR
        MOV     A,#s_out_sensor & 0xff
        MOVX    @DPTR,A
        INC     DPTR
        MOV     A,#(s_out_sensor >> 8) & 0xff
        MOVX    @DPTR,A
//  267 
//  268     s_ep1.endPoint   = ZBNODE_EP_SENSOR;
        MOV     DPTR,#s_ep1
        MOV     A,#0x1
        LCALL   ?Subroutine7 & 0xFFFF
//  269     s_ep1.task_id    = &ZbNode_TaskID;
//  270     s_ep1.simpleDesc = &s_sd1;
??CrossCallReturnLabel_7:
        MOV     A,#s_sd1 & 0xff
        MOVX    @DPTR,A
        INC     DPTR
        MOV     A,#(s_sd1 >> 8) & 0xff
        MOVX    @DPTR,A
//  271     s_ep1.latencyReq = noLatencyReqs;
        INC     DPTR
        CLR     A
        MOVX    @DPTR,A
//  272     afRegister(&s_ep1);
        ; Setup parameters for call to function afRegister
        MOV     R2,#s_ep1 & 0xff
        MOV     R3,#(s_ep1 >> 8) & 0xff
        LCALL   ??afRegister?relay
//  273 
//  274     s_sd2.EndPoint           = ZBNODE_EP_BUZZER;
        MOV     DPTR,#s_sd2
        MOV     A,#0x2
        LCALL   ?Subroutine4 & 0xFFFF
//  275     s_sd2.AppProfId          = ZBNODE_PROFILE_ID;
//  276     s_sd2.AppDeviceId        = ZBNODE_DEVICE_ID;
//  277     s_sd2.AppDevVer          = ZBNODE_DEVICE_VER;
//  278     s_sd2.Reserved           = 0;
//  279     s_sd2.AppNumInClusters   = sizeof(s_in_buzzer) / sizeof(s_in_buzzer[0]);
//  280     s_sd2.pAppInClusterList  = s_in_buzzer;
??CrossCallReturnLabel_1:
        MOV     A,#s_in_buzzer & 0xff
        MOVX    @DPTR,A
        INC     DPTR
        MOV     A,#(s_in_buzzer >> 8) & 0xff
        MOVX    @DPTR,A
//  281     s_sd2.AppNumOutClusters  = sizeof(s_out_buzzer) / sizeof(s_out_buzzer[0]);
        INC     DPTR
        MOV     A,#0x1
        MOVX    @DPTR,A
//  282     s_sd2.pAppOutClusterList = s_out_buzzer;
        INC     DPTR
        MOV     A,#s_out_buzzer & 0xff
        MOVX    @DPTR,A
        INC     DPTR
        MOV     A,#(s_out_buzzer >> 8) & 0xff
        MOVX    @DPTR,A
//  283 
//  284     s_ep2.endPoint   = ZBNODE_EP_BUZZER;
        MOV     DPTR,#s_ep2
        MOV     A,#0x2
        LCALL   ?Subroutine7 & 0xFFFF
//  285     s_ep2.task_id    = &ZbNode_TaskID;
//  286     s_ep2.simpleDesc = &s_sd2;
??CrossCallReturnLabel_8:
        MOV     A,#s_sd2 & 0xff
        MOVX    @DPTR,A
        INC     DPTR
        MOV     A,#(s_sd2 >> 8) & 0xff
        MOVX    @DPTR,A
//  287     s_ep2.latencyReq = noLatencyReqs;
        INC     DPTR
        CLR     A
        MOVX    @DPTR,A
//  288     afRegister(&s_ep2);
        ; Setup parameters for call to function afRegister
        MOV     R2,#s_ep2 & 0xff
        MOV     R3,#(s_ep2 >> 8) & 0xff
        LCALL   ??afRegister?relay
//  289 }
        LJMP    ?Subroutine1 & 0xFFFF
        CFI EndBlock cfiBlock16

        RSEG BANKED_CODE:CODE:NOROOT(0)
?Subroutine7:
        CFI Block cfiCond17 Using cfiCommon0
        CFI NoFunction
        CFI Conditional ??CrossCallReturnLabel_7
        CFI DPL0 Frame(CFA_SP, 4)
        CFI DPH0 Frame(CFA_SP, 5)
        CFI CFA_SP SP+-5
        CFI Block cfiCond18 Using cfiCommon0
        CFI (cfiCond18) NoFunction
        CFI (cfiCond18) Conditional ??CrossCallReturnLabel_8
        CFI (cfiCond18) DPL0 Frame(CFA_SP, 4)
        CFI (cfiCond18) DPH0 Frame(CFA_SP, 5)
        CFI (cfiCond18) CFA_SP SP+-5
        CFI Block cfiPicker19 Using cfiCommon1
        CFI (cfiPicker19) NoFunction
        CFI (cfiPicker19) Picker
        MOVX    @DPTR,A
        INC     DPTR
        MOV     A,#ZbNode_TaskID & 0xff
        MOVX    @DPTR,A
        INC     DPTR
        MOV     A,#(ZbNode_TaskID >> 8) & 0xff
        MOVX    @DPTR,A
        INC     DPTR
        RET
        CFI EndBlock cfiCond17
        CFI EndBlock cfiCond18
        CFI EndBlock cfiPicker19

        RSEG BANKED_CODE:CODE:NOROOT(0)
?Subroutine4:
        CFI Block cfiCond20 Using cfiCommon0
        CFI NoFunction
        CFI Conditional ??CrossCallReturnLabel_0
        CFI DPL0 Frame(CFA_SP, 4)
        CFI DPH0 Frame(CFA_SP, 5)
        CFI CFA_SP SP+-5
        CFI Block cfiCond21 Using cfiCommon0
        CFI (cfiCond21) NoFunction
        CFI (cfiCond21) Conditional ??CrossCallReturnLabel_1
        CFI (cfiCond21) DPL0 Frame(CFA_SP, 4)
        CFI (cfiCond21) DPH0 Frame(CFA_SP, 5)
        CFI (cfiCond21) CFA_SP SP+-5
        CFI Block cfiPicker22 Using cfiCommon1
        CFI (cfiPicker22) NoFunction
        CFI (cfiPicker22) Picker
        MOVX    @DPTR,A
        INC     DPTR
        MOV     A,#0x4
        MOVX    @DPTR,A
        INC     DPTR
        MOV     A,#0x1
        MOVX    @DPTR,A
        INC     DPTR
        CLR     A
        MOVX    @DPTR,A
        INC     DPTR
        MOVX    @DPTR,A
        INC     DPTR
        INC     A
        MOVX    @DPTR,A
        INC     DPTR
        MOVX    @DPTR,A
        INC     DPTR
        RET
        CFI EndBlock cfiCond20
        CFI EndBlock cfiCond21
        CFI EndBlock cfiPicker22
//  290 

        RSEG BANKED_CODE:CODE:NOROOT(0)
//  291 void ZbNode_Init(uint8 task_id)
ZbNode_Init:
        CFI Block cfiBlock23 Using cfiCommon0
        CFI Function ZbNode_Init
        CODE
//  292 {
        FUNCALL ZbNode_Init, osal_memset
        LOCFRAME ISTACK, 0, STACK
        LOCFRAME PSTACK, 0, STACK
        LOCFRAME XSTACK, 38, STACK
        LOCFRAME IOVERLAY, 0, STATIC
        LOCFRAME DOVERLAY, 0, STATIC
        ARGFRAME ISTACK, 0, STACK
        ARGFRAME PSTACK, 0, STACK
        ARGFRAME XSTACK, 38, STACK
        ARGFRAME IOVERLAY, 0, STATIC
        ARGFRAME DOVERLAY, 0, STATIC
        FUNCALL ZbNode_Init, osal_memset
        LOCFRAME ISTACK, 0, STACK
        LOCFRAME PSTACK, 0, STACK
        LOCFRAME XSTACK, 38, STACK
        LOCFRAME IOVERLAY, 0, STATIC
        LOCFRAME DOVERLAY, 0, STATIC
        ARGFRAME ISTACK, 0, STACK
        ARGFRAME PSTACK, 0, STACK
        ARGFRAME XSTACK, 38, STACK
        ARGFRAME IOVERLAY, 0, STATIC
        ARGFRAME DOVERLAY, 0, STATIC
        FUNCALL ZbNode_Init, HalUARTOpen
        LOCFRAME ISTACK, 0, STACK
        LOCFRAME PSTACK, 0, STACK
        LOCFRAME XSTACK, 38, STACK
        LOCFRAME IOVERLAY, 0, STATIC
        LOCFRAME DOVERLAY, 0, STATIC
        ARGFRAME ISTACK, 0, STACK
        ARGFRAME PSTACK, 0, STACK
        ARGFRAME XSTACK, 38, STACK
        ARGFRAME IOVERLAY, 0, STATIC
        ARGFRAME DOVERLAY, 0, STATIC
        FUNCALL ZbNode_Init, actuator_init
        LOCFRAME ISTACK, 0, STACK
        LOCFRAME PSTACK, 0, STACK
        LOCFRAME XSTACK, 38, STACK
        LOCFRAME IOVERLAY, 0, STATIC
        LOCFRAME DOVERLAY, 0, STATIC
        ARGFRAME ISTACK, 0, STACK
        ARGFRAME PSTACK, 0, STACK
        ARGFRAME XSTACK, 38, STACK
        ARGFRAME IOVERLAY, 0, STATIC
        ARGFRAME DOVERLAY, 0, STATIC
        FUNCALL ZbNode_Init, ldr_init
        LOCFRAME ISTACK, 0, STACK
        LOCFRAME PSTACK, 0, STACK
        LOCFRAME XSTACK, 38, STACK
        LOCFRAME IOVERLAY, 0, STATIC
        LOCFRAME DOVERLAY, 0, STATIC
        ARGFRAME ISTACK, 0, STACK
        ARGFRAME PSTACK, 0, STACK
        ARGFRAME XSTACK, 38, STACK
        ARGFRAME IOVERLAY, 0, STATIC
        ARGFRAME DOVERLAY, 0, STATIC
        FUNCALL ZbNode_Init, register_endpoints
        LOCFRAME ISTACK, 0, STACK
        LOCFRAME PSTACK, 0, STACK
        LOCFRAME XSTACK, 38, STACK
        LOCFRAME IOVERLAY, 0, STATIC
        LOCFRAME DOVERLAY, 0, STATIC
        ARGFRAME ISTACK, 0, STACK
        ARGFRAME PSTACK, 0, STACK
        ARGFRAME XSTACK, 38, STACK
        ARGFRAME IOVERLAY, 0, STATIC
        ARGFRAME DOVERLAY, 0, STATIC
        FUNCALL ZbNode_Init, node_oled_view_init
        LOCFRAME ISTACK, 0, STACK
        LOCFRAME PSTACK, 0, STACK
        LOCFRAME XSTACK, 38, STACK
        LOCFRAME IOVERLAY, 0, STATIC
        LOCFRAME DOVERLAY, 0, STATIC
        ARGFRAME ISTACK, 0, STACK
        ARGFRAME PSTACK, 0, STACK
        ARGFRAME XSTACK, 38, STACK
        ARGFRAME IOVERLAY, 0, STATIC
        ARGFRAME DOVERLAY, 0, STATIC
        FUNCALL ZbNode_Init, oled_publish
        LOCFRAME ISTACK, 0, STACK
        LOCFRAME PSTACK, 0, STACK
        LOCFRAME XSTACK, 38, STACK
        LOCFRAME IOVERLAY, 0, STATIC
        LOCFRAME DOVERLAY, 0, STATIC
        ARGFRAME ISTACK, 0, STACK
        ARGFRAME PSTACK, 0, STACK
        ARGFRAME XSTACK, 38, STACK
        ARGFRAME IOVERLAY, 0, STATIC
        ARGFRAME DOVERLAY, 0, STATIC
        FUNCALL ZbNode_Init, node_oled_view_refresh
        LOCFRAME ISTACK, 0, STACK
        LOCFRAME PSTACK, 0, STACK
        LOCFRAME XSTACK, 38, STACK
        LOCFRAME IOVERLAY, 0, STATIC
        LOCFRAME DOVERLAY, 0, STATIC
        ARGFRAME ISTACK, 0, STACK
        ARGFRAME PSTACK, 0, STACK
        ARGFRAME XSTACK, 38, STACK
        ARGFRAME IOVERLAY, 0, STATIC
        ARGFRAME DOVERLAY, 0, STATIC
        FUNCALL ZbNode_Init, osal_start_reload_timer
        LOCFRAME ISTACK, 0, STACK
        LOCFRAME PSTACK, 0, STACK
        LOCFRAME XSTACK, 38, STACK
        LOCFRAME IOVERLAY, 0, STATIC
        LOCFRAME DOVERLAY, 0, STATIC
        ARGFRAME ISTACK, 0, STACK
        ARGFRAME PSTACK, 0, STACK
        ARGFRAME XSTACK, 38, STACK
        ARGFRAME IOVERLAY, 0, STATIC
        ARGFRAME DOVERLAY, 0, STATIC
        FUNCALL ZbNode_Init, osal_start_reload_timer
        LOCFRAME ISTACK, 0, STACK
        LOCFRAME PSTACK, 0, STACK
        LOCFRAME XSTACK, 38, STACK
        LOCFRAME IOVERLAY, 0, STATIC
        LOCFRAME DOVERLAY, 0, STATIC
        ARGFRAME ISTACK, 0, STACK
        ARGFRAME PSTACK, 0, STACK
        ARGFRAME XSTACK, 38, STACK
        ARGFRAME IOVERLAY, 0, STATIC
        ARGFRAME DOVERLAY, 0, STATIC
        FUNCALL ZbNode_Init, status_led_refresh
        LOCFRAME ISTACK, 0, STACK
        LOCFRAME PSTACK, 0, STACK
        LOCFRAME XSTACK, 38, STACK
        LOCFRAME IOVERLAY, 0, STATIC
        LOCFRAME DOVERLAY, 0, STATIC
        ARGFRAME ISTACK, 0, STACK
        ARGFRAME PSTACK, 0, STACK
        ARGFRAME XSTACK, 38, STACK
        ARGFRAME IOVERLAY, 0, STATIC
        ARGFRAME DOVERLAY, 0, STATIC
        FUNCALL ZbNode_Init, dbg_line
        LOCFRAME ISTACK, 0, STACK
        LOCFRAME PSTACK, 0, STACK
        LOCFRAME XSTACK, 38, STACK
        LOCFRAME IOVERLAY, 0, STATIC
        LOCFRAME DOVERLAY, 0, STATIC
        ARGFRAME ISTACK, 0, STACK
        ARGFRAME PSTACK, 0, STACK
        ARGFRAME XSTACK, 38, STACK
        ARGFRAME IOVERLAY, 0, STATIC
        ARGFRAME DOVERLAY, 0, STATIC
        MOV     A,#-0x9
        LCALL   ?BANKED_ENTER_XDATA
        CFI DPH0 load(1, XDATA, add(CFA_XSP16, literal(-1)))
        CFI DPL0 load(1, XDATA, add(CFA_XSP16, literal(-2)))
        CFI ?BRET_EXT load(1, XDATA, add(CFA_XSP16, literal(-3)))
        CFI ?RET_HIGH load(1, XDATA, add(CFA_XSP16, literal(-4)))
        CFI ?RET_LOW load(1, XDATA, add(CFA_XSP16, literal(-5)))
        CFI R7 load(1, XDATA, add(CFA_XSP16, literal(-6)))
        CFI V0 load(1, XDATA, add(CFA_XSP16, literal(-7)))
        CFI VB load(1, XDATA, add(CFA_XSP16, literal(-8)))
        CFI R6 load(1, XDATA, add(CFA_XSP16, literal(-9)))
        CFI CFA_SP SP+0
        CFI CFA_XSP16 add(XSP16, 9)
        ; Saved register size: 9
        ; Auto size: 29
        MOV     A,#-0x1d
        LCALL   ?ALLOC_XSTACK8
        CFI CFA_XSP16 add(XSP16, 38)
        MOV     A,R1
//  293     ZbNode_TaskID = task_id;
        MOV     DPTR,#ZbNode_TaskID
        LCALL   ?Subroutine5 & 0xFFFF
//  294     s_nwk_joined = 0;
//  295     s_link_ready = 0;
//  296     s_wait_first_report_cfm = 0;
//  297     s_nwk_state = DEV_INIT;
//  298     s_status_led_phase = 0;
??CrossCallReturnLabel_3:
        MOV     DPTR,#s_status_led_phase
        CLR     A
        MOVX    @DPTR,A
//  299     s_startup_leds_owned = 1u;
        MOV     DPTR,#s_startup_leds_owned
        INC     A
        MOVX    @DPTR,A
//  300     osal_memset(&s_report_diag, 0, sizeof(s_report_diag));
        ; Setup parameters for call to function osal_memset
        MOV     R4,#0x6
        MOV     R5,#0x0
        MOV     R1,#0x0
        MOV     R2,#s_report_diag & 0xff
        MOV     R3,#(s_report_diag >> 8) & 0xff
        LCALL   ??osal_memset?relay
//  301 
//  302     /* 打开 UART0 (P0.2/P0.3 → CH340G → USB) 115200 用于节点侧日志输出。
//  303      * 直接调 HalUARTOpen 而不用 MT_UartInit：Node1/Node2 build 里没有
//  304      * ZTOOL_P1 / ZAPP_P1 宏 → MT_UART_DEFAULT_PORT 未定义 → MT_UartInit
//  305      * 会静默跳过 HalUARTOpen（见 Components/mt/MT_UART.c:124 的条件编译）。 */
//  306     {
//  307         halUARTCfg_t cfg;
//  308         osal_memset(&cfg, 0, sizeof(cfg));
        ; Setup parameters for call to function osal_memset
        MOV     R4,#0x1d
        MOV     R5,#0x0
        MOV     R1,#0x0
        MOV     DPL,?XSP + 0
        MOV     DPH,?XSP + 1
        MOV     R2,DPL
        MOV     R3,DPH
        LCALL   ??osal_memset?relay
//  309         cfg.configured           = TRUE;
        MOV     DPL,?XSP + 0
        MOV     DPH,?XSP + 1
        MOV     A,#0x1
        MOVX    @DPTR,A
//  310         cfg.baudRate             = HAL_UART_BR_115200;
        LCALL   ?XSTACK_DISP0_8
        MOV     A,#0x4
        MOVX    @DPTR,A
//  311         cfg.flowControl          = FALSE;
        MOV     A,#0x2
        LCALL   ?XSTACK_DISP0_8
        CLR     A
        MOVX    @DPTR,A
//  312         cfg.flowControlThreshold = 0;
        MOV     A,#0x3
        LCALL   ?XSTACK_DISP0_8
        CLR     A
        MOVX    @DPTR,A
        INC     DPTR
        MOVX    @DPTR,A
//  313         cfg.rx.maxBufSize        = 64;
        MOV     A,#0xa
        LCALL   ?XSTACK_DISP0_8
        MOV     A,#0x40
        MOVX    @DPTR,A
        INC     DPTR
        CLR     A
        MOVX    @DPTR,A
//  314         cfg.tx.maxBufSize        = 128;
        MOV     A,#0x12
        LCALL   ?XSTACK_DISP0_8
        MOV     A,#-0x80
        MOVX    @DPTR,A
        INC     DPTR
        CLR     A
        MOVX    @DPTR,A
//  315         cfg.idleTimeout          = 6;
        MOV     A,#0x5
        LCALL   ?XSTACK_DISP0_8
        MOV     A,#0x6
        MOVX    @DPTR,A
//  316         cfg.intEnable            = TRUE;
        MOV     A,#0x16
        LCALL   ?XSTACK_DISP0_8
        MOV     A,#0x1
        MOVX    @DPTR,A
//  317         cfg.callBackFunc         = NULL;   /* 节点只 TX 不 RX */
        MOV     A,#0x1b
        LCALL   ?XSTACK_DISP0_8
        CLR     A
        MOVX    @DPTR,A
        INC     DPTR
        LCALL   ?Subroutine6 & 0xFFFF
//  318         (void)HalUARTOpen(HAL_UART_PORT_0, &cfg);
//  319     }
??CrossCallReturnLabel_4:
        MOV     R2,DPL
        MOV     R3,DPH
        MOV     R1,A
        LCALL   ??HalUARTOpen?relay
//  320 
//  321     actuator_init();
        ; Setup parameters for call to function actuator_init
        LCALL   ??actuator_init?relay
//  322 #if NODE_ROLE == 1
//  323     dht11_init();
//  324 #else
//  325     ldr_init();
        ; Setup parameters for call to function ldr_init
        LCALL   ??ldr_init?relay
//  326 #endif
//  327     register_endpoints();
        ; Setup parameters for call to function register_endpoints
        LCALL   ??register_endpoints?relay
//  328 
//  329     /* OLED 视图：初始化（含 ~120ms 上电稳定延时）+ 渲染首帧 "尚未入网" 画面 */
//  330     node_oled_view_init((uint8)NODE_ROLE);
        ; Setup parameters for call to function node_oled_view_init
        MOV     R1,#0x2
        LCALL   ??node_oled_view_init?relay
//  331     oled_publish();
        ; Setup parameters for call to function oled_publish
        LCALL   ??oled_publish?relay
//  332     node_oled_view_refresh();
        ; Setup parameters for call to function node_oled_view_refresh
        LCALL   ??node_oled_view_refresh?relay
//  333 
//  334     (void)osal_start_reload_timer(ZbNode_TaskID, ZN_EVT_REPORT, NODE_REPORT_PERIOD_MS);
        ; Setup parameters for call to function osal_start_reload_timer
        MOV     R4,#-0xc
        MOV     R5,#0x1
        MOV     R2,#0x1
        MOV     R3,#0x0
        MOV     DPTR,#ZbNode_TaskID
        MOVX    A,@DPTR
        MOV     R1,A
        LCALL   ??osal_start_reload_timer?relay
//  335     (void)osal_start_reload_timer(ZbNode_TaskID, ZN_EVT_STATUS_LED, STATUS_LED_TICK_MS);
        ; Setup parameters for call to function osal_start_reload_timer
        MOV     R4,#0x64
        MOV     R5,#0x0
        MOV     R2,#0x4
        MOV     R3,#0x0
        MOV     DPTR,#ZbNode_TaskID
        MOVX    A,@DPTR
        MOV     R1,A
        LCALL   ??osal_start_reload_timer?relay
//  336     status_led_refresh();
        ; Setup parameters for call to function status_led_refresh
        LCALL   ??status_led_refresh?relay
//  337 
//  338 #if NODE_ROLE == 1
//  339     dbg_line("\r\n==== Node1 (DHT11) ready, period=2000ms ====");
//  340 #else
//  341     dbg_line("\r\n==== Node2 (LDR)  ready, period=500ms  ====");
        ; Setup parameters for call to function dbg_line
        MOV     R2,#`?<Constant "\\r\\n==== Node2 (LDR)  r...">` & 0xff
        MOV     R3,#(`?<Constant "\\r\\n==== Node2 (LDR)  r...">` >> 8) & 0xff
        LCALL   ??dbg_line?relay
//  342 #endif
//  343 }
        MOV     A,#0x1d
        LCALL   ?DEALLOC_XSTACK8
        CFI CFA_XSP16 add(XSP16, 9)
        LJMP    ?Subroutine3 & 0xFFFF
        CFI EndBlock cfiBlock23

        RSEG BANKED_CODE:CODE:NOROOT(0)
?Subroutine5:
        CFI Block cfiCond24 Using cfiCommon0
        CFI NoFunction
        CFI Conditional ??CrossCallReturnLabel_2
        CFI DPL0 Frame(CFA_SP, 4)
        CFI DPH0 Frame(CFA_SP, 5)
        CFI CFA_SP SP+-5
        CFI Block cfiCond25 Using cfiCommon0
        CFI (cfiCond25) NoFunction
        CFI (cfiCond25) Conditional ??CrossCallReturnLabel_3
        CFI (cfiCond25) R6 load(1, XDATA, add(CFA_XSP16, literal(-9)))
        CFI (cfiCond25) VB load(1, XDATA, add(CFA_XSP16, literal(-8)))
        CFI (cfiCond25) V0 load(1, XDATA, add(CFA_XSP16, literal(-7)))
        CFI (cfiCond25) R7 load(1, XDATA, add(CFA_XSP16, literal(-6)))
        CFI (cfiCond25) ?RET_LOW load(1, XDATA, add(CFA_XSP16, literal(-5)))
        CFI (cfiCond25) ?RET_HIGH load(1, XDATA, add(CFA_XSP16, literal(-4)))
        CFI (cfiCond25) ?BRET_EXT load(1, XDATA, add(CFA_XSP16, literal(-3)))
        CFI (cfiCond25) DPL0 load(1, XDATA, add(CFA_XSP16, literal(-2)))
        CFI (cfiCond25) DPH0 load(1, XDATA, add(CFA_XSP16, literal(-1)))
        CFI (cfiCond25) CFA_SP SP+0
        CFI (cfiCond25) CFA_XSP16 add(XSP16, 38)
        CFI Block cfiPicker26 Using cfiCommon1
        CFI (cfiPicker26) NoFunction
        CFI (cfiPicker26) Picker
        MOVX    @DPTR,A
        LCALL   ?Subroutine9 & 0xFFFF
??CrossCallReturnLabel_11:
        MOV     DPTR,#s_nwk_state
        INC     A
        MOVX    @DPTR,A
        RET
        CFI EndBlock cfiCond24
        CFI EndBlock cfiCond25
        CFI EndBlock cfiPicker26
//  344 

        RSEG BANKED_CODE:CODE:NOROOT(0)
//  345 static void do_report(void)
do_report:
        CFI Block cfiBlock27 Using cfiCommon0
        CFI Function do_report
        CODE
//  346 {
        FUNCALL do_report, network_ready
        LOCFRAME ISTACK, 0, STACK
        LOCFRAME PSTACK, 0, STACK
        LOCFRAME XSTACK, 12, STACK
        LOCFRAME IOVERLAY, 0, STATIC
        LOCFRAME DOVERLAY, 0, STATIC
        ARGFRAME ISTACK, 0, STACK
        ARGFRAME PSTACK, 0, STACK
        ARGFRAME XSTACK, 12, STACK
        ARGFRAME IOVERLAY, 0, STATIC
        ARGFRAME DOVERLAY, 0, STATIC
        FUNCALL do_report, ldr_read_lux
        LOCFRAME ISTACK, 0, STACK
        LOCFRAME PSTACK, 0, STACK
        LOCFRAME XSTACK, 12, STACK
        LOCFRAME IOVERLAY, 0, STATIC
        LOCFRAME DOVERLAY, 0, STATIC
        ARGFRAME ISTACK, 0, STACK
        ARGFRAME PSTACK, 0, STACK
        ARGFRAME XSTACK, 12, STACK
        ARGFRAME IOVERLAY, 0, STATIC
        ARGFRAME DOVERLAY, 0, STATIC
        FUNCALL do_report, sprintf
        LOCFRAME ISTACK, 0, STACK
        LOCFRAME PSTACK, 0, STACK
        LOCFRAME XSTACK, 14, STACK
        LOCFRAME IOVERLAY, 0, STATIC
        LOCFRAME DOVERLAY, 0, STATIC
        ARGFRAME ISTACK, 0, STACK
        ARGFRAME PSTACK, 0, STACK
        ARGFRAME XSTACK, 14, STACK
        ARGFRAME IOVERLAY, 0, STATIC
        ARGFRAME DOVERLAY, 0, STATIC
        FUNCALL do_report, dbg_puts
        LOCFRAME ISTACK, 0, STACK
        LOCFRAME PSTACK, 0, STACK
        LOCFRAME XSTACK, 12, STACK
        LOCFRAME IOVERLAY, 0, STATIC
        LOCFRAME DOVERLAY, 0, STATIC
        ARGFRAME ISTACK, 0, STACK
        ARGFRAME PSTACK, 0, STACK
        ARGFRAME XSTACK, 12, STACK
        ARGFRAME IOVERLAY, 0, STATIC
        ARGFRAME DOVERLAY, 0, STATIC
        FUNCALL do_report, send_attr_report
        LOCFRAME ISTACK, 0, STACK
        LOCFRAME PSTACK, 0, STACK
        LOCFRAME XSTACK, 16, STACK
        LOCFRAME IOVERLAY, 0, STATIC
        LOCFRAME DOVERLAY, 0, STATIC
        ARGFRAME ISTACK, 0, STACK
        ARGFRAME PSTACK, 0, STACK
        ARGFRAME XSTACK, 16, STACK
        ARGFRAME IOVERLAY, 0, STATIC
        ARGFRAME DOVERLAY, 0, STATIC
        FUNCALL do_report, oled_publish
        LOCFRAME ISTACK, 0, STACK
        LOCFRAME PSTACK, 0, STACK
        LOCFRAME XSTACK, 12, STACK
        LOCFRAME IOVERLAY, 0, STATIC
        LOCFRAME DOVERLAY, 0, STATIC
        ARGFRAME ISTACK, 0, STACK
        ARGFRAME PSTACK, 0, STACK
        ARGFRAME XSTACK, 12, STACK
        ARGFRAME IOVERLAY, 0, STATIC
        ARGFRAME DOVERLAY, 0, STATIC
        MOV     A,#-0xa
        LCALL   ?BANKED_ENTER_XDATA
        CFI DPH0 load(1, XDATA, add(CFA_XSP16, literal(-1)))
        CFI DPL0 load(1, XDATA, add(CFA_XSP16, literal(-2)))
        CFI ?BRET_EXT load(1, XDATA, add(CFA_XSP16, literal(-3)))
        CFI ?RET_HIGH load(1, XDATA, add(CFA_XSP16, literal(-4)))
        CFI ?RET_LOW load(1, XDATA, add(CFA_XSP16, literal(-5)))
        CFI R7 load(1, XDATA, add(CFA_XSP16, literal(-6)))
        CFI V1 load(1, XDATA, add(CFA_XSP16, literal(-7)))
        CFI V0 load(1, XDATA, add(CFA_XSP16, literal(-8)))
        CFI VB load(1, XDATA, add(CFA_XSP16, literal(-9)))
        CFI R6 load(1, XDATA, add(CFA_XSP16, literal(-10)))
        CFI CFA_SP SP+0
        CFI CFA_XSP16 add(XSP16, 10)
        ; Saved register size: 10
        ; Auto size: 2
        MOV     A,#-0x2
        LCALL   ?ALLOC_XSTACK8
        CFI CFA_XSP16 add(XSP16, 12)
//  347     if (!network_ready()) {
        ; Setup parameters for call to function network_ready
        LCALL   ??network_ready?relay
        MOV     A,R1
        JZ      ??do_report_0
//  348         return;
//  349     }
//  350 
//  351 #if NODE_ROLE == 1
//  352     {
//  353         int16 t = 0;
//  354         uint16 h = 0;
//  355         int8 rc = dht11_read(&t, &h);
//  356 
//  357         if (rc == 0) {
//  358             int16 tabs = (t < 0) ? (int16)(-t) : t;
//  359             s_oled_model.temp_x100 = t;
//  360             s_oled_model.hum_x100  = h;
//  361             s_oled_model.has_sample = 1u;
//  362             (void)sprintf(s_dbg_buf, "[n1] DHT11 OK t=%s%d.%02d h=%u.%02u -> ZCL tx\r\n",
//  363                           (t < 0) ? "-" : "", (int)(tabs / 100), (int)(tabs % 100),
//  364                           (unsigned)(h / 100u), (unsigned)(h % 100u));
//  365             dbg_puts(s_dbg_buf);
//  366             (void)send_attr_report(ZBNODE_EP_SENSOR, CLU_TEMP, 0x0000, 0x10, &t, 2);
//  367             (void)send_attr_report(ZBNODE_EP_SENSOR, CLU_HUM,  0x0000, 0x11, &h, 2);
//  368         } else {
//  369             (void)sprintf(s_dbg_buf, "[n1] DHT11 FAIL rc=%d\r\n", (int)rc);
//  370             dbg_puts(s_dbg_buf);
//  371             note_local_report_failure(-7);
//  372         }
//  373     }
//  374 #else
//  375     {
//  376         uint16 lux = ldr_read_lux();
        ; Setup parameters for call to function ldr_read_lux
        LCALL   ??ldr_read_lux?relay
        MOV     DPL,?XSP + 0
        MOV     DPH,?XSP + 1
        MOV     A,R2
        MOVX    @DPTR,A
        INC     DPTR
        MOV     A,R3
        LCALL   ?Subroutine6 & 0xFFFF
//  377 
//  378         s_oled_model.lux = lux;
??CrossCallReturnLabel_5:
        MOVX    A,@DPTR
        MOV     R0,A
        INC     DPTR
        MOVX    A,@DPTR
        MOV     R1,A
        MOV     DPTR,#s_oled_model + 9
        MOV     A,R0
        MOVX    @DPTR,A
        INC     DPTR
        MOV     A,R1
        MOVX    @DPTR,A
//  379         s_oled_model.has_sample = 1u;
        MOV     DPTR,#s_oled_model + 13
        MOV     A,#0x1
        LCALL   ?Subroutine6 & 0xFFFF
//  380         (void)sprintf(s_dbg_buf, "[n2] LDR lux=%u -> ZCL tx\r\n", (unsigned)lux);
??CrossCallReturnLabel_6:
        LCALL   ?PUSH_XSTACK8_X_TWO
        CFI CFA_XSP16 add(XSP16, 14)
        MOV     R4,#`?<Constant "[n2] LDR lux=%u -> ZC...">` & 0xff
        MOV     R5,#(`?<Constant "[n2] LDR lux=%u -> ZC...">` >> 8) & 0xff
        MOV     R2,#s_dbg_buf & 0xff
        MOV     R3,#(s_dbg_buf >> 8) & 0xff
        LCALL   ??sprintf?relay
        MOV     A,#0x2
        LCALL   ?DEALLOC_XSTACK8
        CFI CFA_XSP16 add(XSP16, 12)
//  381         dbg_puts(s_dbg_buf);
        ; Setup parameters for call to function dbg_puts
        MOV     R2,#s_dbg_buf & 0xff
        MOV     R3,#(s_dbg_buf >> 8) & 0xff
        LCALL   ??dbg_puts?relay
//  382         (void)send_attr_report(ZBNODE_EP_SENSOR, CLU_LUX, 0x0000, 0x11, &lux, 2);
        ; Setup parameters for call to function send_attr_report
        MOV     ?V0 + 0,#0x2
        MOV     R0,#?V0 + 0
        LCALL   ?PUSH_XSTACK_I_ONE
        CFI CFA_XSP16 add(XSP16, 13)
        MOV     A,#0x1
        LCALL   ?XSTACK_DISP0_8
        MOV     ?V0 + 0,DPL
        MOV     ?V0 + 1,DPH
        MOV     R0,#?V0 + 0
        LCALL   ?PUSH_XSTACK_I_TWO
        CFI CFA_XSP16 add(XSP16, 15)
        MOV     ?V0 + 0,#0x11
        MOV     R0,#?V0 + 0
        LCALL   ?PUSH_XSTACK_I_ONE
        CFI CFA_XSP16 add(XSP16, 16)
        MOV     R4,#0x0
        MOV     R5,#0x0
        MOV     R2,#0x0
        MOV     R3,#0x4
        MOV     R1,#0x1
        LCALL   ??send_attr_report?relay
        MOV     A,#0x4
        LCALL   ?DEALLOC_XSTACK8
        CFI CFA_XSP16 add(XSP16, 12)
//  383     }
//  384 #endif
//  385     oled_publish();
        ; Setup parameters for call to function oled_publish
        LCALL   ??oled_publish?relay
//  386 }
??do_report_0:
        MOV     A,#0x2
        LCALL   ?DEALLOC_XSTACK8
        CFI CFA_XSP16 add(XSP16, 10)
        LJMP    ?Subroutine0 & 0xFFFF
        CFI EndBlock cfiBlock27

        RSEG BANKED_CODE:CODE:NOROOT(0)
?Subroutine6:
        CFI Block cfiCond28 Using cfiCommon0
        CFI NoFunction
        CFI Conditional ??CrossCallReturnLabel_4
        CFI R6 load(1, XDATA, add(CFA_XSP16, literal(-9)))
        CFI VB load(1, XDATA, add(CFA_XSP16, literal(-8)))
        CFI V0 load(1, XDATA, add(CFA_XSP16, literal(-7)))
        CFI R7 load(1, XDATA, add(CFA_XSP16, literal(-6)))
        CFI ?RET_LOW load(1, XDATA, add(CFA_XSP16, literal(-5)))
        CFI ?RET_HIGH load(1, XDATA, add(CFA_XSP16, literal(-4)))
        CFI ?BRET_EXT load(1, XDATA, add(CFA_XSP16, literal(-3)))
        CFI DPL0 load(1, XDATA, add(CFA_XSP16, literal(-2)))
        CFI DPH0 load(1, XDATA, add(CFA_XSP16, literal(-1)))
        CFI CFA_SP SP+0
        CFI CFA_XSP16 add(XSP16, 38)
        CFI Block cfiCond29 Using cfiCommon0
        CFI (cfiCond29) NoFunction
        CFI (cfiCond29) Conditional ??CrossCallReturnLabel_5
        CFI (cfiCond29) R6 load(1, XDATA, add(CFA_XSP16, literal(-10)))
        CFI (cfiCond29) VB load(1, XDATA, add(CFA_XSP16, literal(-9)))
        CFI (cfiCond29) V0 load(1, XDATA, add(CFA_XSP16, literal(-8)))
        CFI (cfiCond29) V1 load(1, XDATA, add(CFA_XSP16, literal(-7)))
        CFI (cfiCond29) R7 load(1, XDATA, add(CFA_XSP16, literal(-6)))
        CFI (cfiCond29) ?RET_LOW load(1, XDATA, add(CFA_XSP16, literal(-5)))
        CFI (cfiCond29) ?RET_HIGH load(1, XDATA, add(CFA_XSP16, literal(-4)))
        CFI (cfiCond29) ?BRET_EXT load(1, XDATA, add(CFA_XSP16, literal(-3)))
        CFI (cfiCond29) DPL0 load(1, XDATA, add(CFA_XSP16, literal(-2)))
        CFI (cfiCond29) DPH0 load(1, XDATA, add(CFA_XSP16, literal(-1)))
        CFI (cfiCond29) CFA_SP SP+0
        CFI (cfiCond29) CFA_XSP16 add(XSP16, 12)
        CFI Block cfiCond30 Using cfiCommon0
        CFI (cfiCond30) NoFunction
        CFI (cfiCond30) Conditional ??CrossCallReturnLabel_6
        CFI (cfiCond30) R6 load(1, XDATA, add(CFA_XSP16, literal(-10)))
        CFI (cfiCond30) VB load(1, XDATA, add(CFA_XSP16, literal(-9)))
        CFI (cfiCond30) V0 load(1, XDATA, add(CFA_XSP16, literal(-8)))
        CFI (cfiCond30) V1 load(1, XDATA, add(CFA_XSP16, literal(-7)))
        CFI (cfiCond30) R7 load(1, XDATA, add(CFA_XSP16, literal(-6)))
        CFI (cfiCond30) ?RET_LOW load(1, XDATA, add(CFA_XSP16, literal(-5)))
        CFI (cfiCond30) ?RET_HIGH load(1, XDATA, add(CFA_XSP16, literal(-4)))
        CFI (cfiCond30) ?BRET_EXT load(1, XDATA, add(CFA_XSP16, literal(-3)))
        CFI (cfiCond30) DPL0 load(1, XDATA, add(CFA_XSP16, literal(-2)))
        CFI (cfiCond30) DPH0 load(1, XDATA, add(CFA_XSP16, literal(-1)))
        CFI (cfiCond30) CFA_SP SP+0
        CFI (cfiCond30) CFA_XSP16 add(XSP16, 12)
        CFI Block cfiPicker31 Using cfiCommon1
        CFI (cfiPicker31) NoFunction
        CFI (cfiPicker31) Picker
        MOVX    @DPTR,A
        ; Setup parameters for call to function HalUARTOpen
        ; Setup parameters for call to function sprintf
        MOV     DPL,?XSP + 0
        MOV     DPH,?XSP + 1
        RET
        CFI EndBlock cfiCond28
        CFI EndBlock cfiCond29
        CFI EndBlock cfiCond30
        CFI EndBlock cfiPicker31
//  387 

        RSEG BANKED_CODE:CODE:NOROOT(0)
//  388 static void on_incoming(afIncomingMSGPacket_t *pkt)
on_incoming:
        CFI Block cfiBlock32 Using cfiCommon0
        CFI Function on_incoming
        CODE
//  389 {
        FUNCALL on_incoming, actuator_led_set
        LOCFRAME ISTACK, 0, STACK
        LOCFRAME PSTACK, 0, STACK
        LOCFRAME XSTACK, 13, STACK
        LOCFRAME IOVERLAY, 0, STATIC
        LOCFRAME DOVERLAY, 0, STATIC
        ARGFRAME ISTACK, 0, STACK
        ARGFRAME PSTACK, 0, STACK
        ARGFRAME XSTACK, 13, STACK
        ARGFRAME IOVERLAY, 0, STATIC
        ARGFRAME DOVERLAY, 0, STATIC
        FUNCALL on_incoming, actuator_led_state
        LOCFRAME ISTACK, 0, STACK
        LOCFRAME PSTACK, 0, STACK
        LOCFRAME XSTACK, 13, STACK
        LOCFRAME IOVERLAY, 0, STATIC
        LOCFRAME DOVERLAY, 0, STATIC
        ARGFRAME ISTACK, 0, STACK
        ARGFRAME PSTACK, 0, STACK
        ARGFRAME XSTACK, 13, STACK
        ARGFRAME IOVERLAY, 0, STATIC
        ARGFRAME DOVERLAY, 0, STATIC
        FUNCALL on_incoming, actuator_buzzer_state
        LOCFRAME ISTACK, 0, STACK
        LOCFRAME PSTACK, 0, STACK
        LOCFRAME XSTACK, 13, STACK
        LOCFRAME IOVERLAY, 0, STATIC
        LOCFRAME DOVERLAY, 0, STATIC
        ARGFRAME ISTACK, 0, STACK
        ARGFRAME PSTACK, 0, STACK
        ARGFRAME XSTACK, 13, STACK
        ARGFRAME IOVERLAY, 0, STATIC
        ARGFRAME DOVERLAY, 0, STATIC
        FUNCALL on_incoming, actuator_buzzer_set
        LOCFRAME ISTACK, 0, STACK
        LOCFRAME PSTACK, 0, STACK
        LOCFRAME XSTACK, 13, STACK
        LOCFRAME IOVERLAY, 0, STATIC
        LOCFRAME DOVERLAY, 0, STATIC
        ARGFRAME ISTACK, 0, STACK
        ARGFRAME PSTACK, 0, STACK
        ARGFRAME XSTACK, 13, STACK
        ARGFRAME IOVERLAY, 0, STATIC
        ARGFRAME DOVERLAY, 0, STATIC
        FUNCALL on_incoming, zcl_default_response
        LOCFRAME ISTACK, 0, STACK
        LOCFRAME PSTACK, 0, STACK
        LOCFRAME XSTACK, 14, STACK
        LOCFRAME IOVERLAY, 0, STATIC
        LOCFRAME DOVERLAY, 0, STATIC
        ARGFRAME ISTACK, 0, STACK
        ARGFRAME PSTACK, 0, STACK
        ARGFRAME XSTACK, 14, STACK
        ARGFRAME IOVERLAY, 0, STATIC
        ARGFRAME DOVERLAY, 0, STATIC
        FUNCALL on_incoming, send_attr_report
        LOCFRAME ISTACK, 0, STACK
        LOCFRAME PSTACK, 0, STACK
        LOCFRAME XSTACK, 17, STACK
        LOCFRAME IOVERLAY, 0, STATIC
        LOCFRAME DOVERLAY, 0, STATIC
        ARGFRAME ISTACK, 0, STACK
        ARGFRAME PSTACK, 0, STACK
        ARGFRAME XSTACK, 17, STACK
        ARGFRAME IOVERLAY, 0, STATIC
        ARGFRAME DOVERLAY, 0, STATIC
        FUNCALL on_incoming, oled_publish
        LOCFRAME ISTACK, 0, STACK
        LOCFRAME PSTACK, 0, STACK
        LOCFRAME XSTACK, 13, STACK
        LOCFRAME IOVERLAY, 0, STATIC
        LOCFRAME DOVERLAY, 0, STATIC
        ARGFRAME ISTACK, 0, STACK
        ARGFRAME PSTACK, 0, STACK
        ARGFRAME XSTACK, 13, STACK
        ARGFRAME IOVERLAY, 0, STATIC
        ARGFRAME DOVERLAY, 0, STATIC
        MOV     A,#-0xc
        LCALL   ?BANKED_ENTER_XDATA
        CFI DPH0 load(1, XDATA, add(CFA_XSP16, literal(-1)))
        CFI DPL0 load(1, XDATA, add(CFA_XSP16, literal(-2)))
        CFI ?BRET_EXT load(1, XDATA, add(CFA_XSP16, literal(-3)))
        CFI ?RET_HIGH load(1, XDATA, add(CFA_XSP16, literal(-4)))
        CFI ?RET_LOW load(1, XDATA, add(CFA_XSP16, literal(-5)))
        CFI R7 load(1, XDATA, add(CFA_XSP16, literal(-6)))
        CFI V3 load(1, XDATA, add(CFA_XSP16, literal(-7)))
        CFI V2 load(1, XDATA, add(CFA_XSP16, literal(-8)))
        CFI V1 load(1, XDATA, add(CFA_XSP16, literal(-9)))
        CFI V0 load(1, XDATA, add(CFA_XSP16, literal(-10)))
        CFI VB load(1, XDATA, add(CFA_XSP16, literal(-11)))
        CFI R6 load(1, XDATA, add(CFA_XSP16, literal(-12)))
        CFI CFA_SP SP+0
        CFI CFA_XSP16 add(XSP16, 12)
        ; Saved register size: 12
        ; Auto size: 1
        MOV     A,#-0x1
        LCALL   ?ALLOC_XSTACK8
        CFI CFA_XSP16 add(XSP16, 13)
        MOV     A,R2
        MOV     R6,A
        MOV     A,R3
        MOV     R7,A
//  390     uint8 *zcl;
//  391     uint8 zlen;
//  392     uint8 cmd;
//  393     uint8 seq;
//  394     uint8 onoff;
//  395     uint8 vstate;
//  396 
//  397     if (pkt->clusterId != CLU_ONOFF) {
        MOV     DPL,R6
        MOV     DPH,R7
        INC     DPTR
        INC     DPTR
        INC     DPTR
        INC     DPTR
        MOVX    A,@DPTR
        XRL     A,#0x6
        JNZ     ??on_incoming_0
        INC     DPTR
        MOVX    A,@DPTR
??on_incoming_0:
        JZ      $+5
        LJMP    ??on_incoming_1 & 0xFFFF
//  398         return;
//  399     }
//  400 
//  401     zcl = pkt->cmd.Data;
        MOV     A,R6
        ADD     A,#0x22
        MOV     DPL,A
        MOV     A,R7
        ADDC    A,#0x0
        MOV     DPH,A
        MOVX    A,@DPTR
        MOV     R0,A
        INC     DPTR
        MOVX    A,@DPTR
        MOV     R1,A
//  402     zlen = pkt->cmd.DataLength;
//  403     if (zlen < 3) {
        MOV     A,R6
        ADD     A,#0x20
        MOV     DPL,A
        MOV     A,R7
        ADDC    A,#0x0
        MOV     DPH,A
        MOVX    A,@DPTR
        CLR     C
        SUBB    A,#0x3
        JNC     $+5
        LJMP    ??on_incoming_1 & 0xFFFF
//  404         return;
//  405     }
//  406 
//  407     seq = zcl[1];
        MOV     DPL,R0
        MOV     DPH,R1
        INC     DPTR
        MOVX    A,@DPTR
        MOV     ?V0 + 0,A
//  408     cmd = zcl[2];
        MOV     DPL,R0
        MOV     DPH,R1
        INC     DPTR
        INC     DPTR
        MOVX    A,@DPTR
        MOV     ?V0 + 1,A
//  409     switch (cmd) {
        JZ      ??on_incoming_2
        DEC     A
        JZ      ??on_incoming_3
        DEC     A
        JZ      ??on_incoming_4
        LJMP    ??on_incoming_1 & 0xFFFF
//  410     case 0x00:
//  411         onoff = 0;
??on_incoming_2:
        MOV     ?V0 + 2,#0x0
//  412         break;
//  413     case 0x01:
//  414         onoff = 1;
//  415         break;
//  416     case 0x02:
//  417         if (pkt->endPoint == ZBNODE_EP_SENSOR) {
//  418             onoff = (uint8)(!actuator_led_state());
//  419         } else {
//  420             onoff = (uint8)(!actuator_buzzer_state());
//  421         }
//  422         break;
//  423     default:
//  424         return;
//  425     }
//  426 
//  427     if (pkt->endPoint == ZBNODE_EP_SENSOR) {
??on_incoming_5:
        LCALL   ?Subroutine8 & 0xFFFF
??CrossCallReturnLabel_9:
        JNZ     ??on_incoming_6
//  428         actuator_led_set(onoff);
        ; Setup parameters for call to function actuator_led_set
        MOV     R1,?V0 + 2
        LCALL   ??actuator_led_set?relay
        SJMP    ??on_incoming_7
//  429     } else if (pkt->endPoint == ZBNODE_EP_BUZZER) {
??on_incoming_4:
        LCALL   ?Subroutine8 & 0xFFFF
??CrossCallReturnLabel_10:
        JNZ     ??on_incoming_8
        ; Setup parameters for call to function actuator_led_state
        LCALL   ??actuator_led_state?relay
        MOV     A,R1
        JNZ     ??on_incoming_2
??on_incoming_3:
        MOV     ?V0 + 2,#0x1
        SJMP    ??on_incoming_5
??on_incoming_8:
        ; Setup parameters for call to function actuator_buzzer_state
        LCALL   ??actuator_buzzer_state?relay
        MOV     A,R1
        JNZ     ??on_incoming_2
        SJMP    ??on_incoming_3
??on_incoming_6:
        MOVX    A,@DPTR
        XRL     A,#0x2
        JNZ     ??on_incoming_7
//  430         actuator_buzzer_set(onoff);
        ; Setup parameters for call to function actuator_buzzer_set
        MOV     R1,?V0 + 2
        LCALL   ??actuator_buzzer_set?relay
//  431     }
//  432 
//  433     (void)zcl_default_response(pkt->endPoint, CLU_ONOFF, seq, cmd, 0x00);
??on_incoming_7:
        MOV     A,R6
        ADD     A,#0x14
        MOV     R6,A
        MOV     A,R7
        ADDC    A,#0x0
        MOV     R7,A
        ; Setup parameters for call to function zcl_default_response
        MOV     ?V0 + 3,#0x0
        MOV     R0,#?V0 + 3
        LCALL   ?PUSH_XSTACK_I_ONE
        CFI CFA_XSP16 add(XSP16, 14)
        MOV     R5,?V0 + 1
        MOV     R4,?V0 + 0
        MOV     R2,#0x6
        MOV     R3,#0x0
        MOV     DPL,R6
        MOV     DPH,R7
        MOVX    A,@DPTR
        MOV     R1,A
        LCALL   ??zcl_default_response?relay
        MOV     A,#0x1
        LCALL   ?DEALLOC_XSTACK8
        CFI CFA_XSP16 add(XSP16, 13)
//  434     vstate = onoff;
        MOV     DPL,?XSP + 0
        MOV     DPH,?XSP + 1
        MOV     A,?V0 + 2
        MOVX    @DPTR,A
//  435     (void)send_attr_report(pkt->endPoint, CLU_ONOFF, 0x0000, 0x01, &vstate, 1);
        ; Setup parameters for call to function send_attr_report
        MOV     ?V0 + 0,#0x1
        MOV     R0,#?V0 + 0
        LCALL   ?PUSH_XSTACK_I_ONE
        CFI CFA_XSP16 add(XSP16, 14)
        MOV     A,#0x1
        LCALL   ?XSTACK_DISP0_8
        MOV     ?V0 + 0,DPL
        MOV     ?V0 + 1,DPH
        MOV     R0,#?V0 + 0
        LCALL   ?PUSH_XSTACK_I_TWO
        CFI CFA_XSP16 add(XSP16, 16)
        MOV     ?V0 + 0,#0x1
        MOV     R0,#?V0 + 0
        LCALL   ?PUSH_XSTACK_I_ONE
        CFI CFA_XSP16 add(XSP16, 17)
        MOV     R4,#0x0
        MOV     R5,#0x0
        MOV     R2,#0x6
        MOV     R3,#0x0
        MOV     DPL,R6
        MOV     DPH,R7
        MOVX    A,@DPTR
        MOV     R1,A
        LCALL   ??send_attr_report?relay
        MOV     A,#0x4
        LCALL   ?DEALLOC_XSTACK8
        CFI CFA_XSP16 add(XSP16, 13)
//  436     oled_publish();
        ; Setup parameters for call to function oled_publish
        LCALL   ??oled_publish?relay
//  437 }
??on_incoming_1:
        MOV     A,#0x1
        LCALL   ?DEALLOC_XSTACK8
        CFI CFA_XSP16 add(XSP16, 12)
        MOV     R7,#0x4
        LJMP    ?BANKED_LEAVE_XDATA
        CFI EndBlock cfiBlock32

        RSEG BANKED_CODE:CODE:NOROOT(0)
?Subroutine8:
        CFI Block cfiCond33 Using cfiCommon0
        CFI NoFunction
        CFI Conditional ??CrossCallReturnLabel_9
        CFI R6 load(1, XDATA, add(CFA_XSP16, literal(-12)))
        CFI VB load(1, XDATA, add(CFA_XSP16, literal(-11)))
        CFI V0 load(1, XDATA, add(CFA_XSP16, literal(-10)))
        CFI V1 load(1, XDATA, add(CFA_XSP16, literal(-9)))
        CFI V2 load(1, XDATA, add(CFA_XSP16, literal(-8)))
        CFI V3 load(1, XDATA, add(CFA_XSP16, literal(-7)))
        CFI R7 load(1, XDATA, add(CFA_XSP16, literal(-6)))
        CFI ?RET_LOW load(1, XDATA, add(CFA_XSP16, literal(-5)))
        CFI ?RET_HIGH load(1, XDATA, add(CFA_XSP16, literal(-4)))
        CFI ?BRET_EXT load(1, XDATA, add(CFA_XSP16, literal(-3)))
        CFI DPL0 load(1, XDATA, add(CFA_XSP16, literal(-2)))
        CFI DPH0 load(1, XDATA, add(CFA_XSP16, literal(-1)))
        CFI CFA_SP SP+0
        CFI CFA_XSP16 add(XSP16, 13)
        CFI Block cfiCond34 Using cfiCommon0
        CFI (cfiCond34) NoFunction
        CFI (cfiCond34) Conditional ??CrossCallReturnLabel_10
        CFI (cfiCond34) R6 load(1, XDATA, add(CFA_XSP16, literal(-12)))
        CFI (cfiCond34) VB load(1, XDATA, add(CFA_XSP16, literal(-11)))
        CFI (cfiCond34) V0 load(1, XDATA, add(CFA_XSP16, literal(-10)))
        CFI (cfiCond34) V1 load(1, XDATA, add(CFA_XSP16, literal(-9)))
        CFI (cfiCond34) V2 load(1, XDATA, add(CFA_XSP16, literal(-8)))
        CFI (cfiCond34) V3 load(1, XDATA, add(CFA_XSP16, literal(-7)))
        CFI (cfiCond34) R7 load(1, XDATA, add(CFA_XSP16, literal(-6)))
        CFI (cfiCond34) ?RET_LOW load(1, XDATA, add(CFA_XSP16, literal(-5)))
        CFI (cfiCond34) ?RET_HIGH load(1, XDATA, add(CFA_XSP16, literal(-4)))
        CFI (cfiCond34) ?BRET_EXT load(1, XDATA, add(CFA_XSP16, literal(-3)))
        CFI (cfiCond34) DPL0 load(1, XDATA, add(CFA_XSP16, literal(-2)))
        CFI (cfiCond34) DPH0 load(1, XDATA, add(CFA_XSP16, literal(-1)))
        CFI (cfiCond34) CFA_SP SP+0
        CFI (cfiCond34) CFA_XSP16 add(XSP16, 13)
        CFI Block cfiPicker35 Using cfiCommon1
        CFI (cfiPicker35) NoFunction
        CFI (cfiPicker35) Picker
        MOV     A,R6
        ADD     A,#0x14
        MOV     DPL,A
        MOV     A,R7
        ADDC    A,#0x0
        MOV     DPH,A
        MOVX    A,@DPTR
        XRL     A,#0x1
        RET
        CFI EndBlock cfiCond33
        CFI EndBlock cfiCond34
        CFI EndBlock cfiPicker35
//  438 

        RSEG BANKED_CODE:CODE:NOROOT(0)
//  439 static void on_data_confirm(afDataConfirm_t *cfm)
on_data_confirm:
        CFI Block cfiBlock36 Using cfiCommon0
        CFI Function on_data_confirm
        CODE
//  440 {
        FUNCALL on_data_confirm, dbg_line
        LOCFRAME ISTACK, 0, STACK
        LOCFRAME PSTACK, 0, STACK
        LOCFRAME XSTACK, 10, STACK
        LOCFRAME IOVERLAY, 0, STATIC
        LOCFRAME DOVERLAY, 0, STATIC
        ARGFRAME ISTACK, 0, STACK
        ARGFRAME PSTACK, 0, STACK
        ARGFRAME XSTACK, 10, STACK
        ARGFRAME IOVERLAY, 0, STATIC
        ARGFRAME DOVERLAY, 0, STATIC
        FUNCALL on_data_confirm, status_led_refresh
        LOCFRAME ISTACK, 0, STACK
        LOCFRAME PSTACK, 0, STACK
        LOCFRAME XSTACK, 10, STACK
        LOCFRAME IOVERLAY, 0, STATIC
        LOCFRAME DOVERLAY, 0, STATIC
        ARGFRAME ISTACK, 0, STACK
        ARGFRAME PSTACK, 0, STACK
        ARGFRAME XSTACK, 10, STACK
        ARGFRAME IOVERLAY, 0, STATIC
        ARGFRAME DOVERLAY, 0, STATIC
        FUNCALL on_data_confirm, dbg_line
        LOCFRAME ISTACK, 0, STACK
        LOCFRAME PSTACK, 0, STACK
        LOCFRAME XSTACK, 10, STACK
        LOCFRAME IOVERLAY, 0, STATIC
        LOCFRAME DOVERLAY, 0, STATIC
        ARGFRAME ISTACK, 0, STACK
        ARGFRAME PSTACK, 0, STACK
        ARGFRAME XSTACK, 10, STACK
        ARGFRAME IOVERLAY, 0, STATIC
        ARGFRAME DOVERLAY, 0, STATIC
        FUNCALL on_data_confirm, sprintf
        LOCFRAME ISTACK, 0, STACK
        LOCFRAME PSTACK, 0, STACK
        LOCFRAME XSTACK, 12, STACK
        LOCFRAME IOVERLAY, 0, STATIC
        LOCFRAME DOVERLAY, 0, STATIC
        ARGFRAME ISTACK, 0, STACK
        ARGFRAME PSTACK, 0, STACK
        ARGFRAME XSTACK, 12, STACK
        ARGFRAME IOVERLAY, 0, STATIC
        ARGFRAME DOVERLAY, 0, STATIC
        FUNCALL on_data_confirm, dbg_puts
        LOCFRAME ISTACK, 0, STACK
        LOCFRAME PSTACK, 0, STACK
        LOCFRAME XSTACK, 10, STACK
        LOCFRAME IOVERLAY, 0, STATIC
        LOCFRAME DOVERLAY, 0, STATIC
        ARGFRAME ISTACK, 0, STACK
        ARGFRAME PSTACK, 0, STACK
        ARGFRAME XSTACK, 10, STACK
        ARGFRAME IOVERLAY, 0, STATIC
        ARGFRAME DOVERLAY, 0, STATIC
        FUNCALL on_data_confirm, note_local_report_failure
        LOCFRAME ISTACK, 0, STACK
        LOCFRAME PSTACK, 0, STACK
        LOCFRAME XSTACK, 10, STACK
        LOCFRAME IOVERLAY, 0, STATIC
        LOCFRAME DOVERLAY, 0, STATIC
        ARGFRAME ISTACK, 0, STACK
        ARGFRAME PSTACK, 0, STACK
        ARGFRAME XSTACK, 10, STACK
        ARGFRAME IOVERLAY, 0, STATIC
        ARGFRAME DOVERLAY, 0, STATIC
        MOV     A,#-0xa
        LCALL   ?BANKED_ENTER_XDATA
        CFI DPH0 load(1, XDATA, add(CFA_XSP16, literal(-1)))
        CFI DPL0 load(1, XDATA, add(CFA_XSP16, literal(-2)))
        CFI ?BRET_EXT load(1, XDATA, add(CFA_XSP16, literal(-3)))
        CFI ?RET_HIGH load(1, XDATA, add(CFA_XSP16, literal(-4)))
        CFI ?RET_LOW load(1, XDATA, add(CFA_XSP16, literal(-5)))
        CFI R7 load(1, XDATA, add(CFA_XSP16, literal(-6)))
        CFI V1 load(1, XDATA, add(CFA_XSP16, literal(-7)))
        CFI V0 load(1, XDATA, add(CFA_XSP16, literal(-8)))
        CFI VB load(1, XDATA, add(CFA_XSP16, literal(-9)))
        CFI R6 load(1, XDATA, add(CFA_XSP16, literal(-10)))
        CFI CFA_SP SP+0
        CFI CFA_XSP16 add(XSP16, 10)
        ; Saved register size: 10
        ; Auto size: 0
//  441     if (s_report_diag.pending_reports > 0) {
        MOV     DPTR,#s_report_diag + 3
        MOVX    A,@DPTR
        JZ      ??on_data_confirm_0
//  442         s_report_diag.pending_reports--;
        DEC     A
        MOVX    @DPTR,A
//  443     }
//  444 
//  445     s_report_diag.last_status = cfm->hdr.status;
??on_data_confirm_0:
        MOV     DPL,R2
        MOV     DPH,R3
        INC     DPTR
        MOV     R6,DPL
        MOV     R7,DPH
        MOVX    A,@DPTR
        MOV     DPTR,#s_report_diag + 1
        MOVX    @DPTR,A
//  446     s_report_diag.last_transid = cfm->transID;
        MOV     DPL,R2
        MOV     DPH,R3
        INC     DPTR
        INC     DPTR
        INC     DPTR
        MOVX    A,@DPTR
        MOV     DPTR,#s_report_diag + 2
        MOVX    @DPTR,A
//  447     if (cfm->hdr.status == ZSuccess) {
        MOV     DPL,R6
        MOV     DPH,R7
        MOVX    A,@DPTR
        JNZ     ??on_data_confirm_1
//  448         s_report_diag.last_result = 0;
        MOV     DPTR,#s_report_diag
        CLR     A
        MOVX    @DPTR,A
//  449         s_report_diag.consecutive_fail = 0;
        MOV     DPTR,#s_report_diag + 5
        MOVX    @DPTR,A
//  450         if (s_wait_first_report_cfm && s_nwk_joined) {
        MOV     DPTR,#s_wait_first_report_cfm
        MOVX    A,@DPTR
        JZ      ??on_data_confirm_2
        MOV     DPTR,#s_nwk_joined
        MOVX    A,@DPTR
        JZ      ??on_data_confirm_2
//  451             s_wait_first_report_cfm = 0u;
        MOV     DPTR,#s_wait_first_report_cfm
        CLR     A
        MOVX    @DPTR,A
//  452             s_link_ready = 1u;
        MOV     DPTR,#s_link_ready
        INC     A
        MOVX    @DPTR,A
//  453             dbg_line("[cfm] first report CONFIRMED, link READY");
        ; Setup parameters for call to function dbg_line
        MOV     R2,#`?<Constant "[cfm] first report CO...">` & 0xff
        MOV     R3,#(`?<Constant "[cfm] first report CO...">` >> 8) & 0xff
        LCALL   ??dbg_line?relay
//  454             status_led_refresh();
        ; Setup parameters for call to function status_led_refresh
        LCALL   ??status_led_refresh?relay
        SJMP    ??on_data_confirm_3
//  455         } else {
//  456             dbg_line("[cfm] OK");
??on_data_confirm_2:
        ; Setup parameters for call to function dbg_line
        MOV     R2,#`?<Constant "[cfm] OK">` & 0xff
        MOV     R3,#(`?<Constant "[cfm] OK">` >> 8) & 0xff
        LCALL   ??dbg_line?relay
        SJMP    ??on_data_confirm_3
//  457         }
//  458     } else {
//  459         (void)sprintf(s_dbg_buf, "[cfm] FAIL status=0x%02X\r\n", (unsigned)cfm->hdr.status);
??on_data_confirm_1:
        ; Setup parameters for call to function sprintf
        MOV     ?V0 + 0,A
        MOV     ?V0 + 1,#0x0
        MOV     R0,#?V0 + 0
        LCALL   ?PUSH_XSTACK_I_TWO
        CFI CFA_XSP16 add(XSP16, 12)
        MOV     R4,#`?<Constant "[cfm] FAIL status=0x%...">` & 0xff
        MOV     R5,#(`?<Constant "[cfm] FAIL status=0x%...">` >> 8) & 0xff
        MOV     R2,#s_dbg_buf & 0xff
        MOV     R3,#(s_dbg_buf >> 8) & 0xff
        LCALL   ??sprintf?relay
        MOV     A,#0x2
        LCALL   ?DEALLOC_XSTACK8
        CFI CFA_XSP16 add(XSP16, 10)
//  460         dbg_puts(s_dbg_buf);
        ; Setup parameters for call to function dbg_puts
        MOV     R2,#s_dbg_buf & 0xff
        MOV     R3,#(s_dbg_buf >> 8) & 0xff
        LCALL   ??dbg_puts?relay
//  461         note_local_report_failure((int8)cfm->hdr.status);
        ; Setup parameters for call to function note_local_report_failure
        MOV     DPL,R6
        MOV     DPH,R7
        MOVX    A,@DPTR
        MOV     R1,A
        LCALL   ??note_local_report_failure?relay
//  462     }
//  463 }
??on_data_confirm_3:
        LJMP    ?Subroutine0 & 0xFFFF
        CFI EndBlock cfiBlock36
//  464 

        RSEG BANKED_CODE:CODE:NOROOT(0)
//  465 UINT16 ZbNode_ProcessEvent(uint8 task_id, uint16 events)
ZbNode_ProcessEvent:
        CFI Block cfiBlock37 Using cfiCommon0
        CFI Function ZbNode_ProcessEvent
        CODE
//  466 {
        FUNCALL ZbNode_ProcessEvent, do_report
        LOCFRAME ISTACK, 0, STACK
        LOCFRAME PSTACK, 0, STACK
        LOCFRAME XSTACK, 14, STACK
        LOCFRAME IOVERLAY, 0, STATIC
        LOCFRAME DOVERLAY, 0, STATIC
        ARGFRAME ISTACK, 0, STACK
        ARGFRAME PSTACK, 0, STACK
        ARGFRAME XSTACK, 14, STACK
        ARGFRAME IOVERLAY, 0, STATIC
        ARGFRAME DOVERLAY, 0, STATIC
        FUNCALL ZbNode_ProcessEvent, status_led_refresh
        LOCFRAME ISTACK, 0, STACK
        LOCFRAME PSTACK, 0, STACK
        LOCFRAME XSTACK, 14, STACK
        LOCFRAME IOVERLAY, 0, STATIC
        LOCFRAME DOVERLAY, 0, STATIC
        ARGFRAME ISTACK, 0, STACK
        ARGFRAME PSTACK, 0, STACK
        ARGFRAME XSTACK, 14, STACK
        ARGFRAME IOVERLAY, 0, STATIC
        ARGFRAME DOVERLAY, 0, STATIC
        FUNCALL ZbNode_ProcessEvent, oled_publish
        LOCFRAME ISTACK, 0, STACK
        LOCFRAME PSTACK, 0, STACK
        LOCFRAME XSTACK, 14, STACK
        LOCFRAME IOVERLAY, 0, STATIC
        LOCFRAME DOVERLAY, 0, STATIC
        ARGFRAME ISTACK, 0, STACK
        ARGFRAME PSTACK, 0, STACK
        ARGFRAME XSTACK, 14, STACK
        ARGFRAME IOVERLAY, 0, STATIC
        ARGFRAME DOVERLAY, 0, STATIC
        FUNCALL ZbNode_ProcessEvent, osal_msg_deallocate
        LOCFRAME ISTACK, 0, STACK
        LOCFRAME PSTACK, 0, STACK
        LOCFRAME XSTACK, 14, STACK
        LOCFRAME IOVERLAY, 0, STATIC
        LOCFRAME DOVERLAY, 0, STATIC
        ARGFRAME ISTACK, 0, STACK
        ARGFRAME PSTACK, 0, STACK
        ARGFRAME XSTACK, 14, STACK
        ARGFRAME IOVERLAY, 0, STATIC
        ARGFRAME DOVERLAY, 0, STATIC
        FUNCALL ZbNode_ProcessEvent, osal_msg_receive
        LOCFRAME ISTACK, 0, STACK
        LOCFRAME PSTACK, 0, STACK
        LOCFRAME XSTACK, 14, STACK
        LOCFRAME IOVERLAY, 0, STATIC
        LOCFRAME DOVERLAY, 0, STATIC
        ARGFRAME ISTACK, 0, STACK
        ARGFRAME PSTACK, 0, STACK
        ARGFRAME XSTACK, 14, STACK
        ARGFRAME IOVERLAY, 0, STATIC
        ARGFRAME DOVERLAY, 0, STATIC
        FUNCALL ZbNode_ProcessEvent, on_incoming
        LOCFRAME ISTACK, 0, STACK
        LOCFRAME PSTACK, 0, STACK
        LOCFRAME XSTACK, 14, STACK
        LOCFRAME IOVERLAY, 0, STATIC
        LOCFRAME DOVERLAY, 0, STATIC
        ARGFRAME ISTACK, 0, STACK
        ARGFRAME PSTACK, 0, STACK
        ARGFRAME XSTACK, 14, STACK
        ARGFRAME IOVERLAY, 0, STATIC
        ARGFRAME DOVERLAY, 0, STATIC
        FUNCALL ZbNode_ProcessEvent, on_data_confirm
        LOCFRAME ISTACK, 0, STACK
        LOCFRAME PSTACK, 0, STACK
        LOCFRAME XSTACK, 14, STACK
        LOCFRAME IOVERLAY, 0, STATIC
        LOCFRAME DOVERLAY, 0, STATIC
        ARGFRAME ISTACK, 0, STACK
        ARGFRAME PSTACK, 0, STACK
        ARGFRAME XSTACK, 14, STACK
        ARGFRAME IOVERLAY, 0, STATIC
        ARGFRAME DOVERLAY, 0, STATIC
        FUNCALL ZbNode_ProcessEvent, sprintf
        LOCFRAME ISTACK, 0, STACK
        LOCFRAME PSTACK, 0, STACK
        LOCFRAME XSTACK, 18, STACK
        LOCFRAME IOVERLAY, 0, STATIC
        LOCFRAME DOVERLAY, 0, STATIC
        ARGFRAME ISTACK, 0, STACK
        ARGFRAME PSTACK, 0, STACK
        ARGFRAME XSTACK, 18, STACK
        ARGFRAME IOVERLAY, 0, STATIC
        ARGFRAME DOVERLAY, 0, STATIC
        FUNCALL ZbNode_ProcessEvent, dbg_puts
        LOCFRAME ISTACK, 0, STACK
        LOCFRAME PSTACK, 0, STACK
        LOCFRAME XSTACK, 14, STACK
        LOCFRAME IOVERLAY, 0, STATIC
        LOCFRAME DOVERLAY, 0, STATIC
        ARGFRAME ISTACK, 0, STACK
        ARGFRAME PSTACK, 0, STACK
        ARGFRAME XSTACK, 14, STACK
        ARGFRAME IOVERLAY, 0, STATIC
        ARGFRAME DOVERLAY, 0, STATIC
        FUNCALL ZbNode_ProcessEvent, network_joined
        LOCFRAME ISTACK, 0, STACK
        LOCFRAME PSTACK, 0, STACK
        LOCFRAME XSTACK, 14, STACK
        LOCFRAME IOVERLAY, 0, STATIC
        LOCFRAME DOVERLAY, 0, STATIC
        ARGFRAME ISTACK, 0, STACK
        ARGFRAME PSTACK, 0, STACK
        ARGFRAME XSTACK, 14, STACK
        ARGFRAME IOVERLAY, 0, STATIC
        ARGFRAME DOVERLAY, 0, STATIC
        FUNCALL ZbNode_ProcessEvent, NLME_GetShortAddr
        LOCFRAME ISTACK, 0, STACK
        LOCFRAME PSTACK, 0, STACK
        LOCFRAME XSTACK, 14, STACK
        LOCFRAME IOVERLAY, 0, STATIC
        LOCFRAME DOVERLAY, 0, STATIC
        ARGFRAME ISTACK, 0, STACK
        ARGFRAME PSTACK, 0, STACK
        ARGFRAME XSTACK, 14, STACK
        ARGFRAME IOVERLAY, 0, STATIC
        ARGFRAME DOVERLAY, 0, STATIC
        FUNCALL ZbNode_ProcessEvent, sprintf
        LOCFRAME ISTACK, 0, STACK
        LOCFRAME PSTACK, 0, STACK
        LOCFRAME XSTACK, 20, STACK
        LOCFRAME IOVERLAY, 0, STATIC
        LOCFRAME DOVERLAY, 0, STATIC
        ARGFRAME ISTACK, 0, STACK
        ARGFRAME PSTACK, 0, STACK
        ARGFRAME XSTACK, 20, STACK
        ARGFRAME IOVERLAY, 0, STATIC
        ARGFRAME DOVERLAY, 0, STATIC
        FUNCALL ZbNode_ProcessEvent, dbg_puts
        LOCFRAME ISTACK, 0, STACK
        LOCFRAME PSTACK, 0, STACK
        LOCFRAME XSTACK, 14, STACK
        LOCFRAME IOVERLAY, 0, STATIC
        LOCFRAME DOVERLAY, 0, STATIC
        ARGFRAME ISTACK, 0, STACK
        ARGFRAME PSTACK, 0, STACK
        ARGFRAME XSTACK, 14, STACK
        ARGFRAME IOVERLAY, 0, STATIC
        ARGFRAME DOVERLAY, 0, STATIC
        FUNCALL ZbNode_ProcessEvent, do_report
        LOCFRAME ISTACK, 0, STACK
        LOCFRAME PSTACK, 0, STACK
        LOCFRAME XSTACK, 14, STACK
        LOCFRAME IOVERLAY, 0, STATIC
        LOCFRAME DOVERLAY, 0, STATIC
        ARGFRAME ISTACK, 0, STACK
        ARGFRAME PSTACK, 0, STACK
        ARGFRAME XSTACK, 14, STACK
        ARGFRAME IOVERLAY, 0, STATIC
        ARGFRAME DOVERLAY, 0, STATIC
        FUNCALL ZbNode_ProcessEvent, do_report
        LOCFRAME ISTACK, 0, STACK
        LOCFRAME PSTACK, 0, STACK
        LOCFRAME XSTACK, 14, STACK
        LOCFRAME IOVERLAY, 0, STATIC
        LOCFRAME DOVERLAY, 0, STATIC
        ARGFRAME ISTACK, 0, STACK
        ARGFRAME PSTACK, 0, STACK
        ARGFRAME XSTACK, 14, STACK
        ARGFRAME IOVERLAY, 0, STATIC
        ARGFRAME DOVERLAY, 0, STATIC
        FUNCALL ZbNode_ProcessEvent, status_led_refresh
        LOCFRAME ISTACK, 0, STACK
        LOCFRAME PSTACK, 0, STACK
        LOCFRAME XSTACK, 14, STACK
        LOCFRAME IOVERLAY, 0, STATIC
        LOCFRAME DOVERLAY, 0, STATIC
        ARGFRAME ISTACK, 0, STACK
        ARGFRAME PSTACK, 0, STACK
        ARGFRAME XSTACK, 14, STACK
        ARGFRAME IOVERLAY, 0, STATIC
        ARGFRAME DOVERLAY, 0, STATIC
        FUNCALL ZbNode_ProcessEvent, oled_publish
        LOCFRAME ISTACK, 0, STACK
        LOCFRAME PSTACK, 0, STACK
        LOCFRAME XSTACK, 14, STACK
        LOCFRAME IOVERLAY, 0, STATIC
        LOCFRAME DOVERLAY, 0, STATIC
        ARGFRAME ISTACK, 0, STACK
        ARGFRAME PSTACK, 0, STACK
        ARGFRAME XSTACK, 14, STACK
        ARGFRAME IOVERLAY, 0, STATIC
        ARGFRAME DOVERLAY, 0, STATIC
        FUNCALL ZbNode_ProcessEvent, node_oled_view_refresh
        LOCFRAME ISTACK, 0, STACK
        LOCFRAME PSTACK, 0, STACK
        LOCFRAME XSTACK, 14, STACK
        LOCFRAME IOVERLAY, 0, STATIC
        LOCFRAME DOVERLAY, 0, STATIC
        ARGFRAME ISTACK, 0, STACK
        ARGFRAME PSTACK, 0, STACK
        ARGFRAME XSTACK, 14, STACK
        ARGFRAME IOVERLAY, 0, STATIC
        ARGFRAME DOVERLAY, 0, STATIC
        MOV     A,#-0xe
        LCALL   ?BANKED_ENTER_XDATA
        CFI DPH0 load(1, XDATA, add(CFA_XSP16, literal(-1)))
        CFI DPL0 load(1, XDATA, add(CFA_XSP16, literal(-2)))
        CFI ?BRET_EXT load(1, XDATA, add(CFA_XSP16, literal(-3)))
        CFI ?RET_HIGH load(1, XDATA, add(CFA_XSP16, literal(-4)))
        CFI ?RET_LOW load(1, XDATA, add(CFA_XSP16, literal(-5)))
        CFI R7 load(1, XDATA, add(CFA_XSP16, literal(-6)))
        CFI V5 load(1, XDATA, add(CFA_XSP16, literal(-7)))
        CFI V4 load(1, XDATA, add(CFA_XSP16, literal(-8)))
        CFI V3 load(1, XDATA, add(CFA_XSP16, literal(-9)))
        CFI V2 load(1, XDATA, add(CFA_XSP16, literal(-10)))
        CFI V1 load(1, XDATA, add(CFA_XSP16, literal(-11)))
        CFI V0 load(1, XDATA, add(CFA_XSP16, literal(-12)))
        CFI VB load(1, XDATA, add(CFA_XSP16, literal(-13)))
        CFI R6 load(1, XDATA, add(CFA_XSP16, literal(-14)))
        CFI CFA_SP SP+0
        CFI CFA_XSP16 add(XSP16, 14)
        ; Saved register size: 14
        ; Auto size: 0
        MOV     A,R2
        MOV     R6,A
        MOV     A,R3
        MOV     R7,A
//  467     afIncomingMSGPacket_t *MSGpkt;
//  468 
//  469     (void)task_id;
//  470 
//  471     if (events & SYS_EVENT_MSG) {
        ANL     A,#0x80
        JNZ     ??ZbNode_ProcessEvent_0
//  472         while ((MSGpkt = (afIncomingMSGPacket_t *)osal_msg_receive(ZbNode_TaskID)) != 0) {
//  473             switch (MSGpkt->hdr.event) {
//  474             case AF_INCOMING_MSG_CMD:
//  475                 on_incoming(MSGpkt);
//  476                 break;
//  477 
//  478             case AF_DATA_CONFIRM_CMD:
//  479                 on_data_confirm((afDataConfirm_t *)MSGpkt);
//  480                 break;
//  481 
//  482             case ZDO_STATE_CHANGE:
//  483                 s_nwk_state = (devStates_t)MSGpkt->hdr.status;
//  484                 (void)sprintf(s_dbg_buf, "[zdo] state=%u (%s)\r\n",
//  485                               (unsigned)s_nwk_state, state_name(s_nwk_state));
//  486                 dbg_puts(s_dbg_buf);
//  487                 if (network_joined()) {
//  488                     (void)sprintf(s_dbg_buf, "[zdo] JOINED pan=%04X short=%04X ch=%u\r\n",
//  489                                   (unsigned)_NIB.nwkPanId,
//  490                                   (unsigned)NLME_GetShortAddr(),
//  491                                   (unsigned)_NIB.nwkLogicalChannel);
//  492                     dbg_puts(s_dbg_buf);
//  493                     if (!s_nwk_joined) {
//  494                         s_nwk_joined = 1u;
//  495                         s_link_ready = 0u;
//  496                         s_wait_first_report_cfm = 1u;
//  497                         do_report();
//  498                     }
//  499                 } else {
//  500                     s_nwk_joined = 0u;
//  501                     s_link_ready = 0u;
//  502                     s_wait_first_report_cfm = 0u;
//  503                 }
//  504                 status_led_refresh();
//  505                 oled_publish();
//  506                 break;
//  507 
//  508             default:
//  509                 break;
//  510             }
//  511             osal_msg_deallocate((uint8 *)MSGpkt);
//  512         }
//  513         return (events ^ SYS_EVENT_MSG);
//  514     }
//  515 
//  516     if (events & ZN_EVT_REPORT) {
        MOV     A,R6
        MOV     C,0xE0 /* A   */.0
        JC      $+5
        LJMP    ??ZbNode_ProcessEvent_1 & 0xFFFF
//  517         do_report();
        ; Setup parameters for call to function do_report
        LCALL   ??do_report?relay
//  518         return (events ^ ZN_EVT_REPORT);
        MOV     A,R6
        XRL     A,#0x1
??ZbNode_ProcessEvent_2:
        MOV     R2,A
        MOV     A,R7
??ZbNode_ProcessEvent_3:
        MOV     R3,A
        LJMP    ??ZbNode_ProcessEvent_4 & 0xFFFF
//  519     }
??ZbNode_ProcessEvent_5:
        LCALL   ?Subroutine9 & 0xFFFF
??CrossCallReturnLabel_12:
        ; Setup parameters for call to function status_led_refresh
        LCALL   ??status_led_refresh?relay
        ; Setup parameters for call to function oled_publish
        LCALL   ??oled_publish?relay
??ZbNode_ProcessEvent_6:
        ; Setup parameters for call to function osal_msg_deallocate
        MOV     R2,?V0 + 0
        MOV     R3,?V0 + 1
        LCALL   ??osal_msg_deallocate?relay
??ZbNode_ProcessEvent_0:
        ; Setup parameters for call to function osal_msg_receive
        MOV     DPTR,#ZbNode_TaskID
        MOVX    A,@DPTR
        MOV     R1,A
        LCALL   ??osal_msg_receive?relay
        MOV     ?V0 + 0,R2
        MOV     ?V0 + 1,R3
        MOV     A,R2
        ORL     A,?V0 + 1
        JNZ     $+5
        LJMP    ??ZbNode_ProcessEvent_7 & 0xFFFF
        MOV     DPL,R2
        MOV     DPH,R3
        MOVX    A,@DPTR
        ADD     A,#-0x1a
        JZ      ??ZbNode_ProcessEvent_8
        ADD     A,#0x49
        JZ      ??ZbNode_ProcessEvent_9
        ADD     A,#-0x2c
        JZ      ??ZbNode_ProcessEvent_10
        SJMP    ??ZbNode_ProcessEvent_6
??ZbNode_ProcessEvent_8:
        ; Setup parameters for call to function on_incoming
        LCALL   ??on_incoming?relay
        SJMP    ??ZbNode_ProcessEvent_6
??ZbNode_ProcessEvent_10:
        ; Setup parameters for call to function on_data_confirm
        LCALL   ??on_data_confirm?relay
        SJMP    ??ZbNode_ProcessEvent_6
??ZbNode_ProcessEvent_9:
        INC     DPTR
        MOVX    A,@DPTR
        MOV     DPTR,#s_nwk_state
        MOVX    @DPTR,A
        JZ      ??ZbNode_ProcessEvent_11
        DEC     A
        JZ      ??ZbNode_ProcessEvent_12
        DEC     A
        JZ      ??ZbNode_ProcessEvent_13
        DEC     A
        JZ      ??ZbNode_ProcessEvent_14
        DEC     A
        JZ      ??ZbNode_ProcessEvent_15
        DEC     A
        JZ      ??ZbNode_ProcessEvent_16
        DEC     A
        JZ      ??ZbNode_ProcessEvent_17
        DEC     A
        JZ      ??ZbNode_ProcessEvent_18
        DEC     A
        JZ      ??ZbNode_ProcessEvent_19
        DEC     A
        JZ      ??ZbNode_ProcessEvent_20
        DEC     A
        JNZ     ??ZbNode_ProcessEvent_21
        MOV     ?V0 + 2,#`?<Constant "NWK_ORPHAN">` & 0xff
        MOV     ?V0 + 3,#(`?<Constant "NWK_ORPHAN">` >> 8) & 0xff
        SJMP    ??ZbNode_ProcessEvent_22
??ZbNode_ProcessEvent_20:
        MOV     ?V0 + 2,#`?<Constant "ZB_COORD">` & 0xff
        MOV     ?V0 + 3,#(`?<Constant "ZB_COORD">` >> 8) & 0xff
        SJMP    ??ZbNode_ProcessEvent_22
??ZbNode_ProcessEvent_19:
        MOV     ?V0 + 2,#`?<Constant "COORD_START">` & 0xff
        MOV     ?V0 + 3,#(`?<Constant "COORD_START">` >> 8) & 0xff
        SJMP    ??ZbNode_ProcessEvent_22
??ZbNode_ProcessEvent_18:
        MOV     ?V0 + 2,#`?<Constant "ROUTER">` & 0xff
        MOV     ?V0 + 3,#(`?<Constant "ROUTER">` >> 8) & 0xff
        SJMP    ??ZbNode_ProcessEvent_22
??ZbNode_ProcessEvent_17:
        MOV     ?V0 + 2,#`?<Constant "END_DEVICE">` & 0xff
        MOV     ?V0 + 3,#(`?<Constant "END_DEVICE">` >> 8) & 0xff
        SJMP    ??ZbNode_ProcessEvent_22
??ZbNode_ProcessEvent_16:
        MOV     ?V0 + 2,#`?<Constant "END_UNAUTH">` & 0xff
        MOV     ?V0 + 3,#(`?<Constant "END_UNAUTH">` >> 8) & 0xff
        SJMP    ??ZbNode_ProcessEvent_22
??ZbNode_ProcessEvent_15:
        MOV     ?V0 + 2,#`?<Constant "NWK_REJOIN">` & 0xff
        MOV     ?V0 + 3,#(`?<Constant "NWK_REJOIN">` >> 8) & 0xff
        SJMP    ??ZbNode_ProcessEvent_22
??ZbNode_ProcessEvent_14:
        MOV     ?V0 + 2,#`?<Constant "NWK_JOINING">` & 0xff
        MOV     ?V0 + 3,#(`?<Constant "NWK_JOINING">` >> 8) & 0xff
        SJMP    ??ZbNode_ProcessEvent_22
??ZbNode_ProcessEvent_13:
        MOV     ?V0 + 2,#`?<Constant "NWK_DISC">` & 0xff
        MOV     ?V0 + 3,#(`?<Constant "NWK_DISC">` >> 8) & 0xff
        SJMP    ??ZbNode_ProcessEvent_22
??ZbNode_ProcessEvent_12:
        MOV     ?V0 + 2,#`?<Constant "INIT">` & 0xff
        MOV     ?V0 + 3,#(`?<Constant "INIT">` >> 8) & 0xff
        SJMP    ??ZbNode_ProcessEvent_22
??ZbNode_ProcessEvent_11:
        MOV     ?V0 + 2,#`?<Constant "HOLD">` & 0xff
        MOV     ?V0 + 3,#(`?<Constant "HOLD">` >> 8) & 0xff
        SJMP    ??ZbNode_ProcessEvent_22
??ZbNode_ProcessEvent_21:
        MOV     ?V0 + 2,#`?<Constant "?">` & 0xff
        MOV     ?V0 + 3,#(`?<Constant "?">` >> 8) & 0xff
??ZbNode_ProcessEvent_22:
        ; Setup parameters for call to function sprintf
        MOV     R0,#?V0 + 2
        LCALL   ?PUSH_XSTACK_I_TWO
        CFI CFA_XSP16 add(XSP16, 16)
        MOV     DPTR,#s_nwk_state
        MOVX    A,@DPTR
        MOV     ?V0 + 2,A
        MOV     ?V0 + 3,#0x0
        MOV     R0,#?V0 + 2
        LCALL   ?PUSH_XSTACK_I_TWO
        CFI CFA_XSP16 add(XSP16, 18)
        MOV     R4,#`?<Constant "[zdo] state=%u (%s)\\r\\n">` & 0xff
        MOV     R5,#(`?<Constant "[zdo] state=%u (%s)\\r\\n">` >> 8) & 0xff
        MOV     R2,#s_dbg_buf & 0xff
        MOV     R3,#(s_dbg_buf >> 8) & 0xff
        LCALL   ??sprintf?relay
        MOV     A,#0x4
        LCALL   ?DEALLOC_XSTACK8
        CFI CFA_XSP16 add(XSP16, 14)
        ; Setup parameters for call to function dbg_puts
        MOV     R2,#s_dbg_buf & 0xff
        MOV     R3,#(s_dbg_buf >> 8) & 0xff
        LCALL   ??dbg_puts?relay
        ; Setup parameters for call to function network_joined
        LCALL   ??network_joined?relay
        MOV     A,R1
        JNZ     $+5
        LJMP    ??ZbNode_ProcessEvent_5 & 0xFFFF
        ; Setup parameters for call to function NLME_GetShortAddr
        LCALL   ??NLME_GetShortAddr?relay
        MOV     ?V0 + 2,R2
        MOV     ?V0 + 3,R3
        ; Setup parameters for call to function sprintf
        MOV     DPTR,#_NIB + 22
        MOVX    A,@DPTR
        MOV     ?V0 + 4,A
        MOV     ?V0 + 5,#0x0
        MOV     R0,#?V0 + 4
        LCALL   ?PUSH_XSTACK_I_TWO
        CFI CFA_XSP16 add(XSP16, 16)
        MOV     R0,#?V0 + 2
        LCALL   ?PUSH_XSTACK_I_TWO
        CFI CFA_XSP16 add(XSP16, 18)
        MOV     DPTR,#_NIB + 33
        LCALL   ?PUSH_XSTACK8_X_TWO
        CFI CFA_XSP16 add(XSP16, 20)
        MOV     R4,#`?<Constant "[zdo] JOINED pan=%04X...">` & 0xff
        MOV     R5,#(`?<Constant "[zdo] JOINED pan=%04X...">` >> 8) & 0xff
        MOV     R2,#s_dbg_buf & 0xff
        MOV     R3,#(s_dbg_buf >> 8) & 0xff
        LCALL   ??sprintf?relay
        MOV     A,#0x6
        LCALL   ?DEALLOC_XSTACK8
        CFI CFA_XSP16 add(XSP16, 14)
        ; Setup parameters for call to function dbg_puts
        MOV     R2,#s_dbg_buf & 0xff
        MOV     R3,#(s_dbg_buf >> 8) & 0xff
        LCALL   ??dbg_puts?relay
        MOV     DPTR,#s_nwk_joined
        MOVX    A,@DPTR
        JZ      $+5
        LJMP    ??CrossCallReturnLabel_12 & 0xFFFF
        MOV     A,#0x1
        MOVX    @DPTR,A
        MOV     DPTR,#s_link_ready
        CLR     A
        MOVX    @DPTR,A
        MOV     DPTR,#s_wait_first_report_cfm
        INC     A
        MOVX    @DPTR,A
        ; Setup parameters for call to function do_report
        LCALL   ??do_report?relay
        LJMP    ??CrossCallReturnLabel_12 & 0xFFFF
??ZbNode_ProcessEvent_7:
        MOV     A,R6
        MOV     R2,A
        MOV     A,R7
        XRL     A,#0x80
        LJMP    ??ZbNode_ProcessEvent_3 & 0xFFFF
//  520 
//  521     if (events & ZN_EVT_REPORT_RETRY) {
??ZbNode_ProcessEvent_1:
        ANL     A,#0x2
        JZ      ??ZbNode_ProcessEvent_23
//  522         do_report();
        ; Setup parameters for call to function do_report
        LCALL   ??do_report?relay
//  523         return (events ^ ZN_EVT_REPORT_RETRY);
        MOV     A,R6
        XRL     A,#0x2
        LJMP    ??ZbNode_ProcessEvent_2 & 0xFFFF
//  524     }
//  525 
//  526     if (events & ZN_EVT_STATUS_LED) {
??ZbNode_ProcessEvent_23:
        MOV     A,R6
        ANL     A,#0x4
        JZ      ??ZbNode_ProcessEvent_24
//  527         s_status_led_phase++;
        MOV     DPTR,#s_status_led_phase
        MOVX    A,@DPTR
        INC     A
        MOVX    @DPTR,A
//  528         status_led_refresh();
        ; Setup parameters for call to function status_led_refresh
        LCALL   ??status_led_refresh?relay
//  529         /* 100 ms 滴答顺便驱动 OLED：node_oled_view_refresh 内部 model_changed 后才真写屏，
//  530          * 不变化时只是几次比较，开销可忽略。 */
//  531         oled_publish();
        ; Setup parameters for call to function oled_publish
        LCALL   ??oled_publish?relay
//  532         node_oled_view_refresh();
        ; Setup parameters for call to function node_oled_view_refresh
        LCALL   ??node_oled_view_refresh?relay
//  533         return (events ^ ZN_EVT_STATUS_LED);
        MOV     A,R6
        XRL     A,#0x4
        LJMP    ??ZbNode_ProcessEvent_2 & 0xFFFF
//  534     }
//  535 
//  536     return 0;
??ZbNode_ProcessEvent_24:
        MOV     R2,#0x0
        MOV     R3,#0x0
??ZbNode_ProcessEvent_4:
        MOV     R7,#0x6
        LJMP    ?BANKED_LEAVE_XDATA
        CFI EndBlock cfiBlock37
//  537 }

        RSEG BANKED_CODE:CODE:NOROOT(0)
?Subroutine9:
        CFI Block cfiCond38 Using cfiCommon0
        CFI NoFunction
        CFI Conditional ??CrossCallReturnLabel_11, ??CrossCallReturnLabel_2
        CFI DPL0 Frame(CFA_SP, 4)
        CFI DPH0 Frame(CFA_SP, 5)
        CFI CFA_SP SP+-5
        CFI Block cfiCond39 Using cfiCommon0
        CFI (cfiCond39) NoFunction
        CFI (cfiCond39) Conditional ??CrossCallReturnLabel_11, ??CrossCallReturnLabel_3
        CFI (cfiCond39) R6 load(1, XDATA, add(CFA_XSP16, literal(-9)))
        CFI (cfiCond39) VB load(1, XDATA, add(CFA_XSP16, literal(-8)))
        CFI (cfiCond39) V0 load(1, XDATA, add(CFA_XSP16, literal(-7)))
        CFI (cfiCond39) R7 load(1, XDATA, add(CFA_XSP16, literal(-6)))
        CFI (cfiCond39) ?RET_LOW load(1, XDATA, add(CFA_XSP16, literal(-5)))
        CFI (cfiCond39) ?RET_HIGH load(1, XDATA, add(CFA_XSP16, literal(-4)))
        CFI (cfiCond39) ?BRET_EXT load(1, XDATA, add(CFA_XSP16, literal(-3)))
        CFI (cfiCond39) DPL0 load(1, XDATA, add(CFA_XSP16, literal(-2)))
        CFI (cfiCond39) DPH0 load(1, XDATA, add(CFA_XSP16, literal(-1)))
        CFI (cfiCond39) CFA_SP SP+0
        CFI (cfiCond39) CFA_XSP16 add(XSP16, 38)
        CFI Block cfiCond40 Using cfiCommon0
        CFI (cfiCond40) NoFunction
        CFI (cfiCond40) Conditional ??CrossCallReturnLabel_12
        CFI (cfiCond40) R6 load(1, XDATA, add(CFA_XSP16, literal(-14)))
        CFI (cfiCond40) VB load(1, XDATA, add(CFA_XSP16, literal(-13)))
        CFI (cfiCond40) V0 load(1, XDATA, add(CFA_XSP16, literal(-12)))
        CFI (cfiCond40) V1 load(1, XDATA, add(CFA_XSP16, literal(-11)))
        CFI (cfiCond40) V2 load(1, XDATA, add(CFA_XSP16, literal(-10)))
        CFI (cfiCond40) V3 load(1, XDATA, add(CFA_XSP16, literal(-9)))
        CFI (cfiCond40) V4 load(1, XDATA, add(CFA_XSP16, literal(-8)))
        CFI (cfiCond40) V5 load(1, XDATA, add(CFA_XSP16, literal(-7)))
        CFI (cfiCond40) R7 load(1, XDATA, add(CFA_XSP16, literal(-6)))
        CFI (cfiCond40) ?RET_LOW load(1, XDATA, add(CFA_XSP16, literal(-5)))
        CFI (cfiCond40) ?RET_HIGH load(1, XDATA, add(CFA_XSP16, literal(-4)))
        CFI (cfiCond40) ?BRET_EXT load(1, XDATA, add(CFA_XSP16, literal(-3)))
        CFI (cfiCond40) DPL0 load(1, XDATA, add(CFA_XSP16, literal(-2)))
        CFI (cfiCond40) DPH0 load(1, XDATA, add(CFA_XSP16, literal(-1)))
        CFI (cfiCond40) CFA_SP SP+0
        CFI (cfiCond40) CFA_XSP16 add(XSP16, 14)
        CFI Block cfiPicker41 Using cfiCommon1
        CFI (cfiPicker41) NoFunction
        CFI (cfiPicker41) Picker
        MOV     DPTR,#s_nwk_joined
        CLR     A
        MOVX    @DPTR,A
        MOV     DPTR,#s_link_ready
        MOVX    @DPTR,A
        MOV     DPTR,#s_wait_first_report_cfm
        MOVX    @DPTR,A
        RET
        CFI EndBlock cfiCond38
        CFI EndBlock cfiCond39
        CFI EndBlock cfiCond40
        CFI EndBlock cfiPicker41

        RSEG XDATA_ID:CODE:NOROOT(0)
`?<Initializer for <Constant "\\r\\n">>`:
        DB "\015\012"

        RSEG XDATA_ID:CODE:NOROOT(0)
`?<Initializer for <Constant "HOLD">>`:
        DB "HOLD"

        RSEG XDATA_ID:CODE:NOROOT(0)
`?<Initializer for <Constant "INIT">>`:
        DB "INIT"

        RSEG XDATA_ID:CODE:NOROOT(0)
`?<Initializer for <Constant "NWK_DISC">>`:
        DB "NWK_DISC"

        RSEG XDATA_ID:CODE:NOROOT(0)
`?<Initializer for <Constant "NWK_JOINING">>`:
        DB "NWK_JOINING"

        RSEG XDATA_ID:CODE:NOROOT(0)
`?<Initializer for <Constant "NWK_REJOIN">>`:
        DB "NWK_REJOIN"

        RSEG XDATA_ID:CODE:NOROOT(0)
`?<Initializer for <Constant "END_UNAUTH">>`:
        DB "END_UNAUTH"

        RSEG XDATA_ID:CODE:NOROOT(0)
`?<Initializer for <Constant "END_DEVICE">>`:
        DB "END_DEVICE"

        RSEG XDATA_ID:CODE:NOROOT(0)
`?<Initializer for <Constant "ROUTER">>`:
        DB "ROUTER"

        RSEG XDATA_ID:CODE:NOROOT(0)
`?<Initializer for <Constant "COORD_START">>`:
        DB "COORD_START"

        RSEG XDATA_ID:CODE:NOROOT(0)
`?<Initializer for <Constant "ZB_COORD">>`:
        DB "ZB_COORD"

        RSEG XDATA_ID:CODE:NOROOT(0)
`?<Initializer for <Constant "NWK_ORPHAN">>`:
        DB "NWK_ORPHAN"

        RSEG XDATA_ID:CODE:NOROOT(0)
`?<Initializer for <Constant "?">>`:
        DB "?"

        RSEG XDATA_ID:CODE:NOROOT(0)
`?<Initializer for <Constant "\\r\\n==== Node2 (L`:
        DB "\015\012==== Node2 (LDR)  ready, period=500ms  ===="

        RSEG XDATA_ID:CODE:NOROOT(0)
`?<Initializer for <Constant "[n2] LDR lux=%u -`:
        DB "[n2] LDR lux=%u -> ZCL tx\015\012"

        RSEG XDATA_ID:CODE:NOROOT(0)
`?<Initializer for <Constant "[cfm] first repor`:
        DB "[cfm] first report CONFIRMED, link READY"

        RSEG XDATA_ID:CODE:NOROOT(0)
`?<Initializer for <Constant "[cfm] OK">>`:
        DB "[cfm] OK"

        RSEG XDATA_ID:CODE:NOROOT(0)
`?<Initializer for <Constant "[cfm] FAIL status`:
        DB "[cfm] FAIL status=0x%02X\015\012"

        RSEG XDATA_ID:CODE:NOROOT(0)
`?<Initializer for <Constant "[zdo] state=%u (%`:
        DB "[zdo] state=%u (%s)\015\012"

        RSEG XDATA_ID:CODE:NOROOT(0)
`?<Initializer for <Constant "[zdo] JOINED pan=`:
        DB "[zdo] JOINED pan=%04X short=%04X ch=%u\015\012"

        RSEG XDATA_ID:CODE:NOROOT(0)
`?<Initializer for ZbNode_TaskID>`:
        DATA8
        DB 255

        RSEG XDATA_ID:CODE:NOROOT(0)
`?<Initializer for s_in_sensor>`:
        DATA16
        DW 6

        RSEG XDATA_ID:CODE:NOROOT(0)
`?<Initializer for s_out_sensor>`:
        DATA16
        DW 1024
        DW 6

        RSEG XDATA_ID:CODE:NOROOT(0)
`?<Initializer for s_in_buzzer>`:
        DATA16
        DW 6

        RSEG XDATA_ID:CODE:NOROOT(0)
`?<Initializer for s_out_buzzer>`:
        DATA16
        DW 6

        RSEG XDATA_ID:CODE:NOROOT(0)
`?<Initializer for s_nwk_state>`:
        DATA8
        DB 1

        RSEG XDATA_ID:CODE:NOROOT(0)
`?<Initializer for s_startup_leds_owned>`:
        DATA8
        DB 1

        RSEG BANK_RELAYS:CODE:REORDER:NOROOT(0)
??dbg_puts?relay:
        LCALL   ?BDISPATCH
        DATA
        DC24    dbg_puts

        RSEG BANK_RELAYS:CODE:REORDER:NOROOT(0)
??dbg_line?relay:
        LCALL   ?BDISPATCH
        DATA
        DC24    dbg_line

        RSEG BANK_RELAYS:CODE:REORDER:NOROOT(0)
??oled_publish?relay:
        LCALL   ?BDISPATCH
        DATA
        DC24    oled_publish

        RSEG BANK_RELAYS:CODE:REORDER:NOROOT(0)
??indicator_pin_init?relay:
        LCALL   ?BDISPATCH
        DATA
        DC24    indicator_pin_init

        RSEG BANK_RELAYS:CODE:REORDER:NOROOT(0)
??indicator_pin_set?relay:
        LCALL   ?BDISPATCH
        DATA
        DC24    indicator_pin_set

        RSEG BANK_RELAYS:CODE:REORDER:NOROOT(0)
??startup_pattern_set?relay:
        LCALL   ?BDISPATCH
        DATA
        DC24    startup_pattern_set

        RSEG BANK_RELAYS:CODE:REORDER:NOROOT(0)
??network_joined?relay:
        LCALL   ?BDISPATCH
        DATA
        DC24    network_joined

        RSEG BANK_RELAYS:CODE:REORDER:NOROOT(0)
??status_led_refresh?relay:
        LCALL   ?BDISPATCH
        DATA
        DC24    status_led_refresh

        RSEG BANK_RELAYS:CODE:REORDER:NOROOT(0)
??ZbNode_PreInit?relay:
        LCALL   ?BDISPATCH
        DATA
        DC24    ZbNode_PreInit

        RSEG BANK_RELAYS:CODE:REORDER:NOROOT(0)
??network_ready?relay:
        LCALL   ?BDISPATCH
        DATA
        DC24    network_ready

        RSEG BANK_RELAYS:CODE:REORDER:NOROOT(0)
??note_local_report_failure?relay:
        LCALL   ?BDISPATCH
        DATA
        DC24    note_local_report_failure

        RSEG BANK_RELAYS:CODE:REORDER:NOROOT(0)
??send_attr_report?relay:
        LCALL   ?BDISPATCH
        DATA
        DC24    send_attr_report

        RSEG BANK_RELAYS:CODE:REORDER:NOROOT(0)
??register_endpoints?relay:
        LCALL   ?BDISPATCH
        DATA
        DC24    register_endpoints

        RSEG BANK_RELAYS:CODE:REORDER:NOROOT(0)
??ZbNode_Init?relay:
        LCALL   ?BDISPATCH
        DATA
        DC24    ZbNode_Init

        RSEG BANK_RELAYS:CODE:REORDER:NOROOT(0)
??do_report?relay:
        LCALL   ?BDISPATCH
        DATA
        DC24    do_report

        RSEG BANK_RELAYS:CODE:REORDER:NOROOT(0)
??on_incoming?relay:
        LCALL   ?BDISPATCH
        DATA
        DC24    on_incoming

        RSEG BANK_RELAYS:CODE:REORDER:NOROOT(0)
??on_data_confirm?relay:
        LCALL   ?BDISPATCH
        DATA
        DC24    on_data_confirm

        RSEG BANK_RELAYS:CODE:REORDER:NOROOT(0)
??ZbNode_ProcessEvent?relay:
        LCALL   ?BDISPATCH
        DATA
        DC24    ZbNode_ProcessEvent

        END
// 
// 1 943 bytes in segment BANKED_CODE
//   108 bytes in segment BANK_RELAYS
//     3 bytes in segment SFR_AN
//   335 bytes in segment XDATA_I
//   335 bytes in segment XDATA_ID
//   156 bytes in segment XDATA_Z
// 
// 2 386 bytes of CODE  memory
//     0 bytes of DATA  memory (+ 3 bytes shared)
//   491 bytes of XDATA memory
//
//Errors: none
//Warnings: 1
