###############################################################################
#                                                                             #
# IAR C/C++ Compiler V8.10.3.10338/W32 for 8051         21/Apr/2026  20:41:00 #
# Copyright 2004-2011 IAR Systems AB.                                         #
#                                                                             #
#    Core               =  plain                                              #
#    Code model         =  banked                                             #
#    Data model         =  large                                              #
#    Calling convention =  xdata reentrant                                    #
#    Constant location  =  data                                               #
#    Dptr setup         =  1,16                                               #
#    Source file        =  D:\ZNJJ\ZStack-CC2530-2.5.1a\Projects\zstack\Sampl #
#                          es\ZbNode\Source\zb_node.c                         #
#    Command line       =  -f D:\ZNJJ\ZStack-CC2530-2.5.1a\Projects\zstack\Sa #
#                          mples\ZbNode\CC2530DB\..\..\..\Tools\CC2530DB\f8wE #
#                          ndev.cfg (-DCPU32MHZ -DROOT=__near_func            #
#                          -DMAC_CFG_TX_DATA_MAX=3 -DMAC_CFG_TX_MAX=6         #
#                          -DMAC_CFG_RX_MAX=3) -f D:\ZNJJ\ZStack-CC2530-2.5.1 #
#                          a\Projects\zstack\Samples\ZbNode\CC2530DB\..\..\.. #
#                          \Tools\CC2530DB\f8wConfig.cfg (-DZIGBEEPRO         #
#                          -DSECURE=0 -DZG_SECURE_DYNAMIC=0 -DREFLECTOR       #
#                          -DDEFAULT_CHANLIST=0x00000800                      #
#                          -DZDAPP_CONFIG_PAN_ID=0xFFFF                       #
#                          -DNWK_START_DELAY=100 -DEXTENDED_JOINING_RANDOM_MA #
#                          SK=0x007F -DBEACON_REQUEST_DELAY=100               #
#                          -DBEACON_REQ_DELAY_MASK=0x00FF                     #
#                          -DLINK_STATUS_JITTER_MASK=0x007F                   #
#                          -DROUTE_EXPIRY_TIME=30 -DAPSC_ACK_WAIT_DURATION_PO #
#                          LLED=3000 -DNWK_INDIRECT_MSG_TIMEOUT=7             #
#                          -DMAX_RREQ_ENTRIES=8 -DAPSC_MAX_FRAME_RETRIES=3    #
#                          -DNWK_MAX_DATA_RETRIES=2                           #
#                          -DMAX_POLL_FAILURE_RETRIES=2 -DMAX_BCAST=9         #
#                          -DAPS_MAX_GROUPS=16 -DMAX_RTG_ENTRIES=40           #
#                          -DNWK_MAX_BINDING_ENTRIES=4                        #
#                          -DMAX_BINDING_CLUSTER_IDS=4 "-DDEFAULT_KEY={0x01,  #
#                          0x03, 0x05, 0x07, 0x09, 0x0B, 0x0D, 0x0F, 0x00,    #
#                          0x02, 0x04, 0x06, 0x08, 0x0A, 0x0C, 0x0D}"         #
#                          -DMAC_MAX_FRAME_SIZE=116                           #
#                          -DZDNWKMGR_MIN_TRANSMISSIONS=20 "-DCONST=const     #
#                          __code" -DGENERIC=__generic                        #
#                          -DRFD_RCVC_ALWAYS_ON=FALSE -DPOLL_RATE=200         #
#                          -DQUEUED_POLL_RATE=50 -DRESPONSE_POLL_RATE=50      #
#                          -DREJOIN_POLL_RATE=440) D:\ZNJJ\ZStack-CC2530-2.5. #
#                          1a\Projects\zstack\Samples\ZbNode\Source\zb_node.c #
#                           -D NWK_AUTO_POLL -D NODE_ROLE=1 -D HAL_UART=TRUE  #
#                          -D HAL_LCD=FALSE -lC D:\ZNJJ\ZStack-CC2530-2.5.1a\ #
#                          Projects\zstack\Samples\ZbNode\CC2530DB\Node1_EndD #
#                          eviceEB\List\ -lA D:\ZNJJ\ZStack-CC2530-2.5.1a\Pro #
#                          jects\zstack\Samples\ZbNode\CC2530DB\Node1_EndDevi #
#                          ceEB\List\ --diag_suppress Pe001,Pa010 -o          #
#                          D:\ZNJJ\ZStack-CC2530-2.5.1a\Projects\zstack\Sampl #
#                          es\ZbNode\CC2530DB\Node1_EndDeviceEB\Obj\ -e       #
#                          --no_code_motion --debug --core=plain --dptr=16,1  #
#                          --data_model=large --code_model=banked             #
#                          --calling_convention=xdata_reentrant               #
#                          --place_constants=data --nr_virtual_regs 16 -I     #
#                          D:\ZNJJ\ZStack-CC2530-2.5.1a\Projects\zstack\Sampl #
#                          es\ZbNode\CC2530DB\ -I D:\ZNJJ\ZStack-CC2530-2.5.1 #
#                          a\Projects\zstack\Samples\ZbNode\CC2530DB\..\Sourc #
#                          e\ -I D:\ZNJJ\ZStack-CC2530-2.5.1a\Projects\zstack #
#                          \Samples\ZbNode\CC2530DB\..\..\..\ZMain\TI2530DB\  #
#                          -I D:\ZNJJ\ZStack-CC2530-2.5.1a\Projects\zstack\Sa #
#                          mples\ZbNode\CC2530DB\..\..\..\..\..\Components\ha #
#                          l\include\ -I D:\ZNJJ\ZStack-CC2530-2.5.1a\Project #
#                          s\zstack\Samples\ZbNode\CC2530DB\..\..\..\..\..\Co #
#                          mponents\hal\target\CC2530EB\ -I                   #
#                          D:\ZNJJ\ZStack-CC2530-2.5.1a\Projects\zstack\Sampl #
#                          es\ZbNode\CC2530DB\..\..\..\..\..\Components\mac\i #
#                          nclude\ -I D:\ZNJJ\ZStack-CC2530-2.5.1a\Projects\z #
#                          stack\Samples\ZbNode\CC2530DB\..\..\..\..\..\Compo #
#                          nents\mac\high_level\ -I                           #
#                          D:\ZNJJ\ZStack-CC2530-2.5.1a\Projects\zstack\Sampl #
#                          es\ZbNode\CC2530DB\..\..\..\..\..\Components\mac\l #
#                          ow_level\srf04\ -I D:\ZNJJ\ZStack-CC2530-2.5.1a\Pr #
#                          ojects\zstack\Samples\ZbNode\CC2530DB\..\..\..\..\ #
#                          ..\Components\mac\low_level\srf04\single_chip\ -I  #
#                          D:\ZNJJ\ZStack-CC2530-2.5.1a\Projects\zstack\Sampl #
#                          es\ZbNode\CC2530DB\..\..\..\..\..\Components\mt\   #
#                          -I D:\ZNJJ\ZStack-CC2530-2.5.1a\Projects\zstack\Sa #
#                          mples\ZbNode\CC2530DB\..\..\..\..\..\Components\os #
#                          al\include\ -I D:\ZNJJ\ZStack-CC2530-2.5.1a\Projec #
#                          ts\zstack\Samples\ZbNode\CC2530DB\..\..\..\..\..\C #
#                          omponents\services\saddr\ -I                       #
#                          D:\ZNJJ\ZStack-CC2530-2.5.1a\Projects\zstack\Sampl #
#                          es\ZbNode\CC2530DB\..\..\..\..\..\Components\servi #
#                          ces\sdata\ -I D:\ZNJJ\ZStack-CC2530-2.5.1a\Project #
#                          s\zstack\Samples\ZbNode\CC2530DB\..\..\..\..\..\Co #
#                          mponents\stack\af\ -I D:\ZNJJ\ZStack-CC2530-2.5.1a #
#                          \Projects\zstack\Samples\ZbNode\CC2530DB\..\..\..\ #
#                          ..\..\Components\stack\nwk\ -I                     #
#                          D:\ZNJJ\ZStack-CC2530-2.5.1a\Projects\zstack\Sampl #
#                          es\ZbNode\CC2530DB\..\..\..\..\..\Components\stack #
#                          \sapi\ -I D:\ZNJJ\ZStack-CC2530-2.5.1a\Projects\zs #
#                          tack\Samples\ZbNode\CC2530DB\..\..\..\..\..\Compon #
#                          ents\stack\sec\ -I D:\ZNJJ\ZStack-CC2530-2.5.1a\Pr #
#                          ojects\zstack\Samples\ZbNode\CC2530DB\..\..\..\..\ #
#                          ..\Components\stack\sys\ -I                        #
#                          D:\ZNJJ\ZStack-CC2530-2.5.1a\Projects\zstack\Sampl #
#                          es\ZbNode\CC2530DB\..\..\..\..\..\Components\stack #
#                          \zdo\ -I D:\ZNJJ\ZStack-CC2530-2.5.1a\Projects\zst #
#                          ack\Samples\ZbNode\CC2530DB\..\..\..\..\..\Compone #
#                          nts\zmac\ -I D:\ZNJJ\ZStack-CC2530-2.5.1a\Projects #
#                          \zstack\Samples\ZbNode\CC2530DB\..\..\..\..\..\Com #
#                          ponents\zmac\f8w\ -Ohz --require_prototypes        #
#    List file          =  D:\ZNJJ\ZStack-CC2530-2.5.1a\Projects\zstack\Sampl #
#                          es\ZbNode\CC2530DB\Node1_EndDeviceEB\List\zb_node. #
#                          lst                                                #
#    Object file        =  D:\ZNJJ\ZStack-CC2530-2.5.1a\Projects\zstack\Sampl #
#                          es\ZbNode\CC2530DB\Node1_EndDeviceEB\Obj\zb_node.r #
#                          51                                                 #
#                                                                             #
#                                                                             #
###############################################################################

D:\ZNJJ\ZStack-CC2530-2.5.1a\Projects\zstack\Samples\ZbNode\Source\zb_node.c
      1          /*
      2           * ZbNode task: AF endpoint registration, periodic sensor reporting, and
      3           * incoming OnOff command handling.
      4           */
      5          
      6          #include "zb_node.h"

  #ifndef __BOARD_E18_MS1_H__
                            ^
"D:\ZNJJ\ZStack-CC2530-2.5.1a\Projects\zstack\Samples\ZbNode\Source\board_e18ms1.h",1  Warning[Pa050]: 
          non-native end of line sequence detected (this diagnostic is only
          issued once)
      7          #include "actuator.h"
      8          #include "zcl_report.h"
      9          #include "node_oled_view.h"
     10          #if NODE_ROLE == 1
     11          #include "sensor_dht11.h"
     12          #else
     13          #include "sensor_ldr.h"
     14          #endif
     15          
     16          #include "OSAL.h"
     17          #include "OSAL_Timers.h"
     18          #include "ZComDef.h"
     19          #include "ZDApp.h"
     20          #include "AF.h"
     21          #include "ZGlobals.h"
     22          #include "ioCC2530.h"

   \                                 In  segment SFR_AN, at 0x90
   \   union <unnamed> volatile __sfr _A_P1
   \                     _A_P1:
   \   000000                DS 1

   \                                 In  segment SFR_AN, at 0xf4
   \   unsigned char volatile __sfr P1SEL
   \                     P1SEL:
   \   000000                DS 1

   \                                 In  segment SFR_AN, at 0xfe
   \   unsigned char volatile __sfr P1DIR
   \                     P1DIR:
   \   000000                DS 1
     23          #include "nwk.h"
     24          #include "nwk_globals.h"
     25          #include "hal_uart.h"
     26          #include <stdio.h>
     27          #include <string.h>
     28          
     29          /* ---- 节点侧串口调试：打到 UART0(P0.2/P0.3) → CH340G → Micro-USB → PC 串口助手 115200
     30           * 参考 references/ZStack-CC2530-main/.../SampleApp.c 的 HalUARTWrite(0,...) 套路。
     31           * 不用 OLED 就能知道节点是否在跑、是否入网、是否采到数据、是否 confirm 成功。 */

   \                                 In  segment XDATA_Z, align 1, keep-with-next
     32          static char s_dbg_buf[32];
   \                     s_dbg_buf:
   \   000000                DS 32
   \   000020                REQUIRE __INIT_XDATA_Z
     33          

   \                                 In  segment BANKED_CODE, align 1, keep-with-next
     34          static void dbg_puts(const char *s)
   \                     dbg_puts:
     35          {
   \   000000   74F6         MOV     A,#-0xa
   \   000002   12....       LCALL   ?BANKED_ENTER_XDATA
   \   000005                ; Saved register size: 10
   \   000005                ; Auto size: 0
   \   000005   EA           MOV     A,R2
   \   000006   FE           MOV     R6,A
   \   000007   EB           MOV     A,R3
   \   000008   FF           MOV     R7,A
     36              uint16 n = (uint16)strlen(s);
   \   000009                ; Setup parameters for call to function strlen
   \   000009   12....       LCALL   ??strlen?relay
   \   00000C   8A..         MOV     ?V0 + 0,R2
   \   00000E   8B..         MOV     ?V0 + 1,R3
   \   000010   AC..         MOV     R4,?V0 + 0
   \   000012   AD..         MOV     R5,?V0 + 1
     37              if (n != 0u) {
   \   000014   EC           MOV     A,R4
   \   000015   4D           ORL     A,R5
   \   000016   6009         JZ      ??dbg_puts_0
     38                  (void)HalUARTWrite(HAL_UART_PORT_0, (uint8 *)s, n);
   \   000018                ; Setup parameters for call to function HalUARTWrite
   \   000018   EE           MOV     A,R6
   \   000019   FA           MOV     R2,A
   \   00001A   EF           MOV     A,R7
   \   00001B   FB           MOV     R3,A
   \   00001C   7900         MOV     R1,#0x0
   \   00001E   12....       LCALL   ??HalUARTWrite?relay
     39              }
     40          }
   \                     ??dbg_puts_0:
   \   000021                REQUIRE ?Subroutine0
   \   000021                ; // Fall through to label ?Subroutine0

   \                                 In  segment BANKED_CODE, align 1, keep-with-next
   \                     ?Subroutine0:
   \   000000   7F02         MOV     R7,#0x2
   \   000002   02....       LJMP    ?BANKED_LEAVE_XDATA
     41          

   \                                 In  segment BANKED_CODE, align 1, keep-with-next
     42          static void dbg_line(const char *s)
   \                     dbg_line:
     43          {
   \   000000   C082         PUSH    DPL
   \   000002   C083         PUSH    DPH
   \   000004                ; Saved register size: 2
   \   000004                ; Auto size: 0
     44              dbg_puts(s);
   \   000004                ; Setup parameters for call to function dbg_puts
   \   000004   12....       LCALL   ??dbg_puts?relay
     45              dbg_puts("\r\n");
   \   000007                ; Setup parameters for call to function dbg_puts
   \   000007   7A..         MOV     R2,#`?<Constant "\\r\\n">` & 0xff
   \   000009   7B..         MOV     R3,#(`?<Constant "\\r\\n">` >> 8) & 0xff
   \   00000B   12....       LCALL   ??dbg_puts?relay
     46          }
   \   00000E   02....       LJMP    ?Subroutine1 & 0xFFFF

   \                                 In  segment BANKED_CODE, align 1, keep-with-next
   \                     ?Subroutine1:
   \   000000   D083         POP     DPH
   \   000002   D082         POP     DPL
   \   000004   02....       LJMP    ?BRET
     47          

   \                                 In  segment XDATA_I, align 1, keep-with-next
     48          uint8 ZbNode_TaskID = 0xFF;
   \                     ZbNode_TaskID:
   \   000000                DS 1
   \   000001                REQUIRE `?<Initializer for ZbNode_TaskID>`
   \   000001                REQUIRE __INIT_XDATA_I
     49          
     50          typedef struct {
     51              int8  last_result;
     52              uint8 last_status;
     53              uint8 last_transid;
     54              uint8 pending_reports;
     55              uint8 fail_count;
     56              uint8 consecutive_fail;
     57          } report_diag_t;
     58          

   \                                 In  segment XDATA_Z, align 1, keep-with-next
     59          static endPointDesc_t s_ep1, s_ep2;
   \                     s_ep1:
   \   000000                DS 6
   \   000006                REQUIRE __INIT_XDATA_Z

   \                                 In  segment XDATA_Z, align 1, keep-with-next
   \                     s_ep2:
   \   000000                DS 6
   \   000006                REQUIRE __INIT_XDATA_Z

   \                                 In  segment XDATA_Z, align 1, keep-with-next
     60          static SimpleDescriptionFormat_t s_sd1, s_sd2;
   \                     s_sd1:
   \   000000                DS 12
   \   00000C                REQUIRE __INIT_XDATA_Z

   \                                 In  segment XDATA_Z, align 1, keep-with-next
   \                     s_sd2:
   \   000000                DS 12
   \   00000C                REQUIRE __INIT_XDATA_Z

   \                                 In  segment XDATA_I, align 1, keep-with-next
     61          static cId_t s_in_sensor[1] = { 0x0006u };
   \                     s_in_sensor:
   \   000000                DS 2
   \   000002                REQUIRE `?<Initializer for s_in_sensor>`
   \   000002                REQUIRE __INIT_XDATA_I
     62          #if NODE_ROLE == 1

   \                                 In  segment XDATA_I, align 1, keep-with-next
     63          static cId_t s_out_sensor[3] = { 0x0402u, 0x0405u, 0x0006u };
   \                     s_out_sensor:
   \   000000                DS 6
   \   000006                REQUIRE `?<Initializer for s_out_sensor>`
   \   000006                REQUIRE __INIT_XDATA_I
     64          #else
     65          static cId_t s_out_sensor[2] = { 0x0400u, 0x0006u };
     66          #endif

   \                                 In  segment XDATA_I, align 1, keep-with-next
     67          static cId_t s_in_buzzer[1] = { 0x0006u };
   \                     s_in_buzzer:
   \   000000                DS 2
   \   000002                REQUIRE `?<Initializer for s_in_buzzer>`
   \   000002                REQUIRE __INIT_XDATA_I

   \                                 In  segment XDATA_I, align 1, keep-with-next
     68          static cId_t s_out_buzzer[1] = { 0x0006u };
   \                     s_out_buzzer:
   \   000000                DS 2
   \   000002                REQUIRE `?<Initializer for s_out_buzzer>`
   \   000002                REQUIRE __INIT_XDATA_I

   \                                 In  segment XDATA_Z, align 1, keep-with-next
     69          static uint8 s_nwk_joined = 0;
   \                     s_nwk_joined:
   \   000000                DS 1
   \   000001                REQUIRE __INIT_XDATA_Z

   \                                 In  segment XDATA_Z, align 1, keep-with-next
     70          static uint8 s_link_ready = 0;
   \                     s_link_ready:
   \   000000                DS 1
   \   000001                REQUIRE __INIT_XDATA_Z

   \                                 In  segment XDATA_Z, align 1, keep-with-next
     71          static uint8 s_wait_first_report_cfm = 0;
   \                     s_wait_first_report_cfm:
   \   000000                DS 1
   \   000001                REQUIRE __INIT_XDATA_Z

   \                                 In  segment XDATA_I, align 1, keep-with-next
     72          static devStates_t s_nwk_state = DEV_INIT;
   \                     s_nwk_state:
   \   000000                DS 1
   \   000001                REQUIRE `?<Initializer for s_nwk_state>`
   \   000001                REQUIRE __INIT_XDATA_I

   \                                 In  segment XDATA_Z, align 1, keep-with-next
     73          static report_diag_t s_report_diag;
   \                     s_report_diag:
   \   000000                DS 6
   \   000006                REQUIRE __INIT_XDATA_Z

   \                                 In  segment XDATA_Z, align 1, keep-with-next
     74          static uint8 s_status_led_phase = 0;
   \                     s_status_led_phase:
   \   000000                DS 1
   \   000001                REQUIRE __INIT_XDATA_Z

   \                                 In  segment XDATA_I, align 1, keep-with-next
     75          static uint8 s_startup_leds_owned = 1;
   \                     s_startup_leds_owned:
   \   000000                DS 1
   \   000001                REQUIRE `?<Initializer for s_startup_leds_owned>`
   \   000001                REQUIRE __INIT_XDATA_I
     76          
     77          #define CLU_ONOFF         0x0006u
     78          #define CLU_TEMP          0x0402u
     79          #define CLU_HUM           0x0405u
     80          #define CLU_LUX           0x0400u
     81          #define REPORT_RETRY_MS   200u
     82          #define STATUS_LED_TICK_MS 100u
     83          #define STATUS_LED_SLOW_TICKS 10u
     84          #define STATUS_LED_FAST_TICKS 4u
     85          
     86          /* OLED 模型缓存：刷新由 ZN_EVT_STATUS_LED 滴答（100ms）触发 model_changed 才写屏。 */

   \                                 In  segment XDATA_Z, align 1, keep-with-next
     87          static node_oled_model_t s_oled_model;
   \                     s_oled_model:
   \   000000                DS 14
   \   00000E                REQUIRE __INIT_XDATA_Z
     88          
     89          /* 前置声明：oled_publish() 引用了下方 network_ready()。 */
     90          static uint8 network_joined(void);
     91          static uint8 network_ready(void);
     92          

   \                                 In  segment BANKED_CODE, align 1, keep-with-next
     93          static void oled_publish(void)
   \                     oled_publish:
     94          {
   \   000000   C082         PUSH    DPL
   \   000002   C083         PUSH    DPH
   \   000004                ; Saved register size: 2
   \   000004                ; Auto size: 0
     95              s_oled_model.online    = network_ready() ? 1u : 0u;
   \   000004                ; Setup parameters for call to function network_ready
   \   000004   12....       LCALL   ??network_ready?relay
   \   000007   E9           MOV     A,R1
   \   000008   90....       MOV     DPTR,#s_oled_model + 1
   \   00000B   6004         JZ      ??oled_publish_0
   \   00000D   7401         MOV     A,#0x1
   \   00000F   8001         SJMP    ??oled_publish_1
   \                     ??oled_publish_0:
   \   000011   E4           CLR     A
   \                     ??oled_publish_1:
   \   000012   F0           MOVX    @DPTR,A
     96              s_oled_model.short_addr= NLME_GetShortAddr();
   \   000013                ; Setup parameters for call to function NLME_GetShortAddr
   \   000013   12....       LCALL   ??NLME_GetShortAddr?relay
   \   000016   90....       MOV     DPTR,#s_oled_model + 2
   \   000019   EA           MOV     A,R2
   \   00001A   F0           MOVX    @DPTR,A
   \   00001B   A3           INC     DPTR
   \   00001C   EB           MOV     A,R3
   \   00001D   F0           MOVX    @DPTR,A
     97              s_oled_model.channel   = _NIB.nwkLogicalChannel;
   \   00001E   90....       MOV     DPTR,#_NIB + 22
   \   000021   E0           MOVX    A,@DPTR
   \   000022   90....       MOV     DPTR,#s_oled_model + 4
   \   000025   F0           MOVX    @DPTR,A
     98              s_oled_model.led_on    = actuator_led_state();
   \   000026                ; Setup parameters for call to function actuator_led_state
   \   000026   12....       LCALL   ??actuator_led_state?relay
   \   000029   E9           MOV     A,R1
   \   00002A   90....       MOV     DPTR,#s_oled_model + 11
   \   00002D   F0           MOVX    @DPTR,A
     99              s_oled_model.buzzer_on = actuator_buzzer_state();
   \   00002E                ; Setup parameters for call to function actuator_buzzer_state
   \   00002E   12....       LCALL   ??actuator_buzzer_state?relay
   \   000031   E9           MOV     A,R1
   \   000032   90....       MOV     DPTR,#s_oled_model + 12
   \   000035   F0           MOVX    @DPTR,A
    100              node_oled_view_set(&s_oled_model);
   \   000036                ; Setup parameters for call to function node_oled_view_set
   \   000036   7A..         MOV     R2,#s_oled_model & 0xff
   \   000038   7B..         MOV     R3,#(s_oled_model >> 8) & 0xff
   \   00003A   12....       LCALL   ??node_oled_view_set?relay
    101          }
   \   00003D   02....       LJMP    ?Subroutine1 & 0xFFFF
    102          

   \                                 In  segment BANKED_CODE, align 1, keep-with-next
    103          static void indicator_pin_init(uint8 pin)
   \                     indicator_pin_init:
    104          {
   \   000000   C0..         PUSH    ?V0 + 0
   \   000002   C0..         PUSH    ?V0 + 1
   \   000004                ; Saved register size: 2
   \   000004                ; Auto size: 0
   \   000004   75..01       MOV     ?V0 + 0,#0x1
   \   000007   75..00       MOV     ?V0 + 1,#0x0
   \   00000A   E9           MOV     A,R1
   \   00000B   78..         MOV     R0,#?V0 + 0
   \   00000D   12....       LCALL   ?S_SHL
   \   000010   A8..         MOV     R0,?V0 + 0
   \   000012   E8           MOV     A,R0
   \   000013   F4           CPL     A
   \   000014   52F4         ANL     0xf4,A
    105              P1SEL &= (uint8)~(1u << pin);
    106              P1DIR |= (uint8)(1u << pin);
   \   000016   E8           MOV     A,R0
   \   000017   42FE         ORL     0xfe,A
    107          }
   \   000019                REQUIRE ?Subroutine2
   \   000019                REQUIRE P1SEL
   \   000019                REQUIRE P1DIR
   \   000019                ; // Fall through to label ?Subroutine2

   \                                 In  segment BANKED_CODE, align 1, keep-with-next
   \                     ?Subroutine2:
   \   000000   D0..         POP     ?V0 + 1
   \   000002   D0..         POP     ?V0 + 0
   \   000004   02....       LJMP    ?BRET
    108          

   \                                 In  segment BANKED_CODE, align 1, keep-with-next
    109          static void indicator_pin_set(uint8 pin, uint8 on)
   \                     indicator_pin_set:
    110          {
   \   000000   C0..         PUSH    ?V0 + 0
   \   000002   C0..         PUSH    ?V0 + 1
   \   000004                ; Saved register size: 2
   \   000004                ; Auto size: 0
    111              uint8 mask = (uint8)(1u << pin);
   \   000004   75..01       MOV     ?V0 + 0,#0x1
   \   000007   75..00       MOV     ?V0 + 1,#0x0
   \   00000A   E9           MOV     A,R1
   \   00000B   78..         MOV     R0,#?V0 + 0
   \   00000D   12....       LCALL   ?S_SHL
   \   000010   A8..         MOV     R0,?V0 + 0
    112              uint8 level = on ? NODE_STATUS_LED_ACTIVE_HIGH : (uint8)(!NODE_STATUS_LED_ACTIVE_HIGH);
   \   000012   EA           MOV     A,R2
   \   000013   6006         JZ      ??indicator_pin_set_0
    113          
    114              if (level) {
    115                  P1 |= mask;
    116              } else {
    117                  P1 &= (uint8)~mask;
   \   000015   E8           MOV     A,R0
   \   000016   F4           CPL     A
   \   000017   5290         ANL     0x90,A
   \   000019   8003         SJMP    ??indicator_pin_set_1
    118              }
   \                     ??indicator_pin_set_0:
   \   00001B   E8           MOV     A,R0
   \   00001C   4290         ORL     0x90,A
    119          }
   \                     ??indicator_pin_set_1:
   \   00001E   80..         SJMP    ?Subroutine2
   \   000020                REQUIRE _A_P1
    120          
    121          static void indicator_pin_init_all(void)
    122          {
    123              indicator_pin_init(NODE_LED_PIN);
    124              indicator_pin_init(NODE_START_LED_PIN);
    125              indicator_pin_init(NODE_ALIVE_LED_PIN);
    126          }
    127          
    128          static void startup_led_set(uint8 on)
    129          {
    130              indicator_pin_set(NODE_START_LED_PIN, on);
    131          }
    132          
    133          static void alive_led_set(uint8 on)
    134          {
    135              indicator_pin_set(NODE_ALIVE_LED_PIN, on);
    136          }
    137          
    138          static void startup_pattern_set(uint8 on)
    139          {
    140              startup_led_set(on);
    141          }
    142          

   \                                 In  segment BANKED_CODE, align 1, keep-with-next
    143          static uint8 network_joined(void)
   \                     network_joined:
    144          {
   \   000000   C082         PUSH    DPL
   \   000002   C083         PUSH    DPH
   \   000004                ; Saved register size: 2
   \   000004                ; Auto size: 0
    145              return (s_nwk_state == DEV_END_DEVICE) ||
    146                     (s_nwk_state == DEV_ROUTER) ||
    147                     (s_nwk_state == DEV_ZB_COORD);
   \   000004   90....       MOV     DPTR,#s_nwk_state
   \   000007   E0           MOVX    A,@DPTR
   \   000008   6406         XRL     A,#0x6
   \   00000A   600A         JZ      ??network_joined_0
   \   00000C   E0           MOVX    A,@DPTR
   \   00000D   6407         XRL     A,#0x7
   \   00000F   6005         JZ      ??network_joined_0
   \   000011   E0           MOVX    A,@DPTR
   \   000012   6409         XRL     A,#0x9
   \   000014   7004         JNZ     ??network_joined_1
   \                     ??network_joined_0:
   \   000016   7901         MOV     R1,#0x1
   \   000018   8002         SJMP    ??network_joined_2
   \                     ??network_joined_1:
   \   00001A   7900         MOV     R1,#0x0
   \                     ??network_joined_2:
   \   00001C   02....       LJMP    ?Subroutine1 & 0xFFFF
    148          }
    149          
    150          static uint8 network_joining(void)
    151          {
    152              return (s_nwk_state == DEV_NWK_DISC) ||
    153                     (s_nwk_state == DEV_NWK_JOINING) ||
    154                     (s_nwk_state == DEV_NWK_REJOIN) ||
    155                     (s_nwk_state == DEV_NWK_ORPHAN) ||
    156                     (s_nwk_state == DEV_END_DEVICE_UNAUTH);
    157          }
    158          

   \                                 In  segment BANKED_CODE, align 1, keep-with-next
    159          static void status_led_refresh(void)
   \                     status_led_refresh:
    160          {
   \   000000   74F7         MOV     A,#-0x9
   \   000002   12....       LCALL   ?BANKED_ENTER_XDATA
   \   000005                ; Saved register size: 9
   \   000005                ; Auto size: 0
    161              uint8 blink_on;
    162          
    163              alive_led_set(1u);
   \   000005                ; Setup parameters for call to function indicator_pin_set
   \   000005   7A01         MOV     R2,#0x1
   \   000007   7901         MOV     R1,#0x1
   \   000009   12....       LCALL   ??indicator_pin_set?relay
    164          
    165              if (s_link_ready) {
   \   00000C   90....       MOV     DPTR,#s_link_ready
   \   00000F   E0           MOVX    A,@DPTR
   \   000010   6019         JZ      ??status_led_refresh_0
    166                  if (s_startup_leds_owned) {
   \   000012   90....       MOV     DPTR,#s_startup_leds_owned
   \   000015   E0           MOVX    A,@DPTR
   \   000016   7A00         MOV     R2,#0x0
   \   000018   6073         JZ      ??status_led_refresh_1
    167                      startup_led_set(0u);
   \   00001A                ; Setup parameters for call to function indicator_pin_set
   \   00001A   7900         MOV     R1,#0x0
   \   00001C   12....       LCALL   ??indicator_pin_set?relay
    168                      actuator_led_set(0u);
   \   00001F                ; Setup parameters for call to function actuator_led_set
   \   00001F   7900         MOV     R1,#0x0
   \   000021   12....       LCALL   ??actuator_led_set?relay
    169                      s_startup_leds_owned = 0u;
   \   000024   90....       MOV     DPTR,#s_startup_leds_owned
   \   000027   E4           CLR     A
   \   000028   F0           MOVX    @DPTR,A
   \   000029   8067         SJMP    ??status_led_refresh_2
    170                  } else {
    171                      startup_led_set(0u);
    172                  }
    173              } else if (network_joining()) {
   \                     ??status_led_refresh_0:
   \   00002B   90....       MOV     DPTR,#s_nwk_state
   \   00002E   E0           MOVX    A,@DPTR
   \   00002F   6402         XRL     A,#0x2
   \   000031   6032         JZ      ??status_led_refresh_3
   \   000033   E0           MOVX    A,@DPTR
   \   000034   6403         XRL     A,#0x3
   \   000036   602D         JZ      ??status_led_refresh_3
   \   000038   E0           MOVX    A,@DPTR
   \   000039   6404         XRL     A,#0x4
   \   00003B   6028         JZ      ??status_led_refresh_3
   \   00003D   E0           MOVX    A,@DPTR
   \   00003E   640A         XRL     A,#0xa
   \   000040   6023         JZ      ??status_led_refresh_3
   \   000042   E0           MOVX    A,@DPTR
   \   000043   6405         XRL     A,#0x5
   \   000045   601E         JZ      ??status_led_refresh_3
    174                  s_startup_leds_owned = 1u;
    175                  blink_on = (uint8)((s_status_led_phase % STATUS_LED_FAST_TICKS) <
    176                                     (STATUS_LED_FAST_TICKS / 2u));
    177                  actuator_led_set(0u);
    178                  startup_pattern_set(blink_on);
    179              } else if (network_joined()) {
   \   000047                ; Setup parameters for call to function network_joined
   \   000047   12....       LCALL   ??network_joined?relay
   \   00004A   E9           MOV     A,R1
   \   00004B   90....       MOV     DPTR,#s_startup_leds_owned
   \   00004E   7028         JNZ     ??status_led_refresh_4
    180                  s_startup_leds_owned = 1u;
    181                  actuator_led_set(0u);
    182                  startup_led_set(1u);
    183              } else {
    184                  s_startup_leds_owned = 1u;
   \   000050   7401         MOV     A,#0x1
   \   000052   F0           MOVX    @DPTR,A
    185                  blink_on = (uint8)((s_status_led_phase % STATUS_LED_SLOW_TICKS) <
    186                                     (STATUS_LED_SLOW_TICKS / 2u));
   \   000053   90....       MOV     DPTR,#s_status_led_phase
   \   000056   E0           MOVX    A,@DPTR
   \   000057   75F00A       MOV     B,#0xa
   \   00005A   84           DIV     AB
   \   00005B   E5F0         MOV     A,B
   \   00005D   9405         SUBB    A,#0x5
   \   00005F   5023         JNC     ??status_led_refresh_5
   \                     ??status_led_refresh_6:
   \   000061   7E01         MOV     R6,#0x1
   \   000063   8021         SJMP    ??status_led_refresh_7
   \                     ??status_led_refresh_3:
   \   000065   90....       MOV     DPTR,#s_startup_leds_owned
   \   000068   7401         MOV     A,#0x1
   \   00006A   F0           MOVX    @DPTR,A
   \   00006B   90....       MOV     DPTR,#s_status_led_phase
   \   00006E   E0           MOVX    A,@DPTR
   \   00006F   5403         ANL     A,#0x3
   \   000071   C3           CLR     C
   \   000072   9402         SUBB    A,#0x2
   \   000074   500E         JNC     ??status_led_refresh_5
   \   000076   80E9         SJMP    ??status_led_refresh_6
   \   000078                ; Setup parameters for call to function actuator_led_set
   \                     ??status_led_refresh_4:
   \   000078   7401         MOV     A,#0x1
   \   00007A   F0           MOVX    @DPTR,A
   \   00007B                ; Setup parameters for call to function actuator_led_set
   \   00007B   7900         MOV     R1,#0x0
   \   00007D   12....       LCALL   ??actuator_led_set?relay
   \   000080                ; Setup parameters for call to function indicator_pin_set
   \   000080   7A01         MOV     R2,#0x1
   \   000082   8009         SJMP    ??status_led_refresh_1
   \                     ??status_led_refresh_5:
   \   000084   7E00         MOV     R6,#0x0
    187                  actuator_led_set(0u);
   \                     ??status_led_refresh_7:
   \   000086                ; Setup parameters for call to function actuator_led_set
   \   000086   7900         MOV     R1,#0x0
   \   000088   12....       LCALL   ??actuator_led_set?relay
    188                  startup_pattern_set(blink_on);
   \   00008B                ; Setup parameters for call to function indicator_pin_set
   \   00008B   EE           MOV     A,R6
   \   00008C   FA           MOV     R2,A
   \                     ??status_led_refresh_1:
   \   00008D   7900         MOV     R1,#0x0
   \   00008F   12....       LCALL   ??indicator_pin_set?relay
    189              }
    190          }
   \                     ??status_led_refresh_2:
   \   000092                REQUIRE ?Subroutine3
   \   000092                ; // Fall through to label ?Subroutine3

   \                                 In  segment BANKED_CODE, align 1, keep-with-next
   \                     ?Subroutine3:
   \   000000   7F01         MOV     R7,#0x1
   \   000002   02....       LJMP    ?BANKED_LEAVE_XDATA
    191          

   \                                 In  segment BANKED_CODE, align 1, keep-with-next
    192          void ZbNode_PreInit(void)
   \                     ZbNode_PreInit:
    193          {
   \   000000   C082         PUSH    DPL
   \   000002   C083         PUSH    DPH
   \   000004                ; Saved register size: 2
   \   000004                ; Auto size: 0
    194              indicator_pin_init_all();
   \   000004                ; Setup parameters for call to function indicator_pin_init
   \   000004   7904         MOV     R1,#0x4
   \   000006   12....       LCALL   ??indicator_pin_init?relay
   \   000009                ; Setup parameters for call to function indicator_pin_init
   \   000009   7900         MOV     R1,#0x0
   \   00000B   12....       LCALL   ??indicator_pin_init?relay
   \   00000E                ; Setup parameters for call to function indicator_pin_init
   \   00000E   7901         MOV     R1,#0x1
   \   000010   12....       LCALL   ??indicator_pin_init?relay
    195              s_status_led_phase = 0;
   \   000013   90....       MOV     DPTR,#s_status_led_phase
   \   000016   E4           CLR     A
   \   000017   F0           MOVX    @DPTR,A
    196              s_startup_leds_owned = 1u;
   \   000018   90....       MOV     DPTR,#s_startup_leds_owned
   \   00001B   04           INC     A
   \   00001C   12....       LCALL   ?Subroutine6 & 0xFFFF
    197              s_nwk_joined = 0;
    198              s_link_ready = 0;
    199              s_wait_first_report_cfm = 0;
    200              s_nwk_state = DEV_INIT;
    201              status_led_refresh();
   \                     ??CrossCallReturnLabel_2:
   \   00001F                ; Setup parameters for call to function status_led_refresh
   \   00001F   12....       LCALL   ??status_led_refresh?relay
    202              dbg_line("[boot] keep NV network state, try restore existing PAN");
   \   000022                ; Setup parameters for call to function dbg_line
   \   000022   7A..         MOV     R2,#`?<Constant "[boot] keep NV networ...">` & 0xff
   \   000024   7B..         MOV     R3,#(`?<Constant "[boot] keep NV networ...">` >> 8) & 0xff
   \   000026   12....       LCALL   ??dbg_line?relay
    203          }
   \   000029                REQUIRE ?Subroutine1
   \   000029                ; // Fall through to label ?Subroutine1

   \                                 In  segment BANKED_CODE, align 1, keep-with-next
   \                     ?Subroutine6:
   \   000000   F0           MOVX    @DPTR,A
   \   000001   90....       MOV     DPTR,#s_nwk_joined
   \   000004   12....       LCALL   ?Subroutine11 & 0xFFFF
   \                     ??CrossCallReturnLabel_12:
   \   000007   90....       MOV     DPTR,#s_nwk_state
   \   00000A   04           INC     A
   \   00000B   F0           MOVX    @DPTR,A
   \   00000C   22           RET

   \                                 In  segment BANKED_CODE, align 1, keep-with-next
   \                     ?Subroutine11:
   \   000000   E4           CLR     A
   \   000001   F0           MOVX    @DPTR,A
   \   000002   90....       MOV     DPTR,#s_link_ready
   \   000005   F0           MOVX    @DPTR,A
   \   000006   90....       MOV     DPTR,#s_wait_first_report_cfm
   \   000009   F0           MOVX    @DPTR,A
   \   00000A   22           RET
    204          

   \                                 In  segment BANKED_CODE, align 1, keep-with-next
    205          static uint8 network_ready(void)
   \                     network_ready:
    206          {
   \   000000   C082         PUSH    DPL
   \   000002   C083         PUSH    DPH
   \   000004                ; Saved register size: 2
   \   000004                ; Auto size: 0
    207              return s_nwk_joined &&
    208                     network_joined();
   \   000004   90....       MOV     DPTR,#s_nwk_joined
   \   000007   E0           MOVX    A,@DPTR
   \   000008   600A         JZ      ??network_ready_0
   \   00000A                ; Setup parameters for call to function network_joined
   \   00000A   12....       LCALL   ??network_joined?relay
   \   00000D   E9           MOV     A,R1
   \   00000E   6004         JZ      ??network_ready_0
   \   000010   7901         MOV     R1,#0x1
   \   000012   8002         SJMP    ??network_ready_1
   \                     ??network_ready_0:
   \   000014   7900         MOV     R1,#0x0
   \                     ??network_ready_1:
   \   000016   80..         SJMP    ?Subroutine1
    209          }
    210          

   \                                 In  segment BANKED_CODE, align 1, keep-with-next
    211          static void note_local_sample_failure(int8 rc)
   \                     note_local_sample_failure:
    212          {
   \   000000   C082         PUSH    DPL
   \   000002   C083         PUSH    DPH
   \   000004                ; Saved register size: 2
   \   000004                ; Auto size: 0
    213              s_report_diag.last_result = rc;
   \   000004   E9           MOV     A,R1
   \   000005   90....       MOV     DPTR,#s_report_diag
   \   000008   F0           MOVX    @DPTR,A
    214              s_report_diag.fail_count++;
   \   000009   90....       MOV     DPTR,#s_report_diag + 4
   \   00000C   E0           MOVX    A,@DPTR
   \   00000D   04           INC     A
   \   00000E   F0           MOVX    @DPTR,A
    215              s_report_diag.consecutive_fail++;
   \   00000F   A3           INC     DPTR
   \   000010   E0           MOVX    A,@DPTR
   \   000011   04           INC     A
   \   000012   F0           MOVX    @DPTR,A
    216          }
   \   000013   80..         SJMP    ?Subroutine1
    217          

   \                                 In  segment BANKED_CODE, align 1, keep-with-next
    218          static void note_transport_failure(int8 rc)
   \                     note_transport_failure:
    219          {
   \   000000   74F7         MOV     A,#-0x9
   \   000002   12....       LCALL   ?BANKED_ENTER_XDATA
   \   000005                ; Saved register size: 9
   \   000005                ; Auto size: 0
    220              note_local_sample_failure(rc);
   \   000005                ; Setup parameters for call to function note_local_sample_failure
   \   000005   12....       LCALL   ??note_local_sample_failure?relay
    221          
    222              if (network_ready()) {
   \   000008                ; Setup parameters for call to function network_ready
   \   000008   12....       LCALL   ??network_ready?relay
   \   00000B   E9           MOV     A,R1
   \   00000C   6010         JZ      ??note_transport_failure_0
    223                  (void)osal_start_timerEx(ZbNode_TaskID, ZN_EVT_REPORT_RETRY, REPORT_RETRY_MS);
   \   00000E                ; Setup parameters for call to function osal_start_timerEx
   \   00000E   7CC8         MOV     R4,#-0x38
   \   000010   7D00         MOV     R5,#0x0
   \   000012   7A02         MOV     R2,#0x2
   \   000014   7B00         MOV     R3,#0x0
   \   000016   90....       MOV     DPTR,#ZbNode_TaskID
   \   000019   E0           MOVX    A,@DPTR
   \   00001A   F9           MOV     R1,A
   \   00001B   12....       LCALL   ??osal_start_timerEx?relay
    224              }
    225          }
   \                     ??note_transport_failure_0:
   \   00001E   02....       LJMP    ?Subroutine3 & 0xFFFF
    226          

   \                                 In  segment BANKED_CODE, align 1, keep-with-next
    227          static int8 send_attr_report(uint8 src_ep, uint16 cluster, uint16 attrId,
   \                     send_attr_report:
    228                                       uint8 dtype, const void *val, uint8 vlen)
    229          {
   \   000000   74F5         MOV     A,#-0xb
   \   000002   12....       LCALL   ?BANKED_ENTER_XDATA
   \   000005                ; Saved register size: 11
   \   000005                ; Auto size: 0
   \   000005   E9           MOV     A,R1
   \   000006   FF           MOV     R7,A
   \   000007   740B         MOV     A,#0xb
   \   000009   12....       LCALL   ?XSTACK_DISP0_8
   \   00000C   E0           MOVX    A,@DPTR
   \   00000D   F9           MOV     R1,A
   \   00000E   740C         MOV     A,#0xc
   \   000010   12....       LCALL   ?XSTACK_DISP0_8
   \   000013   E0           MOVX    A,@DPTR
   \   000014   F5..         MOV     ?V0 + 0,A
   \   000016   A3           INC     DPTR
   \   000017   E0           MOVX    A,@DPTR
   \   000018   F5..         MOV     ?V0 + 1,A
   \   00001A   740E         MOV     A,#0xe
   \   00001C   12....       LCALL   ?XSTACK_DISP0_8
   \   00001F   E0           MOVX    A,@DPTR
    230              int8 rc;
    231          
    232              rc = zcl_report_send(src_ep, cluster, attrId, dtype, val, vlen);
   \   000020                ; Setup parameters for call to function zcl_report_send
   \   000020   F5..         MOV     ?V0 + 2,A
   \   000022   78..         MOV     R0,#?V0 + 2
   \   000024   12....       LCALL   ?PUSH_XSTACK_I_ONE
   \   000027   78..         MOV     R0,#?V0 + 0
   \   000029   12....       LCALL   ?PUSH_XSTACK_I_TWO
   \   00002C   E9           MOV     A,R1
   \   00002D   F5..         MOV     ?V0 + 0,A
   \   00002F   78..         MOV     R0,#?V0 + 0
   \   000031   12....       LCALL   ?PUSH_XSTACK_I_ONE
   \   000034   EF           MOV     A,R7
   \   000035   F9           MOV     R1,A
   \   000036   12....       LCALL   ??zcl_report_send?relay
   \   000039   7404         MOV     A,#0x4
   \   00003B   12....       LCALL   ?DEALLOC_XSTACK8
   \   00003E   E9           MOV     A,R1
   \   00003F   FE           MOV     R6,A
    233              s_report_diag.last_result = rc;
   \   000040   90....       MOV     DPTR,#s_report_diag
   \   000043   F0           MOVX    @DPTR,A
    234              if (rc == 0) {
   \   000044   7008         JNZ     ??send_attr_report_0
    235                  s_report_diag.pending_reports++;
   \   000046   90....       MOV     DPTR,#s_report_diag + 3
   \   000049   E0           MOVX    A,@DPTR
   \   00004A   04           INC     A
   \   00004B   F0           MOVX    @DPTR,A
   \   00004C   8003         SJMP    ??send_attr_report_1
    236              } else {
    237                  note_transport_failure(rc);
   \                     ??send_attr_report_0:
   \   00004E                ; Setup parameters for call to function note_transport_failure
   \   00004E   12....       LCALL   ??note_transport_failure?relay
    238              }
    239              return rc;
   \                     ??send_attr_report_1:
   \   000051   EE           MOV     A,R6
   \   000052   F9           MOV     R1,A
   \   000053   7F03         MOV     R7,#0x3
   \   000055   02....       LJMP    ?BANKED_LEAVE_XDATA
    240          }
    241          

   \                                 In  segment BANKED_CODE, align 1, keep-with-next
    242          static void register_endpoints(void)
   \                     register_endpoints:
    243          {
   \   000000   C082         PUSH    DPL
   \   000002   C083         PUSH    DPH
   \   000004                ; Saved register size: 2
   \   000004                ; Auto size: 0
    244              s_sd1.EndPoint           = ZBNODE_EP_SENSOR;
   \   000004   90....       MOV     DPTR,#s_sd1
   \   000007   7401         MOV     A,#0x1
   \   000009   12....       LCALL   ?Subroutine5 & 0xFFFF
    245              s_sd1.AppProfId          = ZBNODE_PROFILE_ID;
    246              s_sd1.AppDeviceId        = ZBNODE_DEVICE_ID;
    247              s_sd1.AppDevVer          = ZBNODE_DEVICE_VER;
    248              s_sd1.Reserved           = 0;
    249              s_sd1.AppNumInClusters   = sizeof(s_in_sensor) / sizeof(s_in_sensor[0]);
    250              s_sd1.pAppInClusterList  = s_in_sensor;
   \                     ??CrossCallReturnLabel_0:
   \   00000C   74..         MOV     A,#s_in_sensor & 0xff
   \   00000E   F0           MOVX    @DPTR,A
   \   00000F   A3           INC     DPTR
   \   000010   74..         MOV     A,#(s_in_sensor >> 8) & 0xff
   \   000012   F0           MOVX    @DPTR,A
    251              s_sd1.AppNumOutClusters  = sizeof(s_out_sensor) / sizeof(s_out_sensor[0]);
   \   000013   A3           INC     DPTR
   \   000014   7403         MOV     A,#0x3
   \   000016   F0           MOVX    @DPTR,A
    252              s_sd1.pAppOutClusterList = s_out_sensor;
   \   000017   A3           INC     DPTR
   \   000018   74..         MOV     A,#s_out_sensor & 0xff
   \   00001A   F0           MOVX    @DPTR,A
   \   00001B   A3           INC     DPTR
   \   00001C   74..         MOV     A,#(s_out_sensor >> 8) & 0xff
   \   00001E   F0           MOVX    @DPTR,A
    253          
    254              s_ep1.endPoint   = ZBNODE_EP_SENSOR;
   \   00001F   90....       MOV     DPTR,#s_ep1
   \   000022   7401         MOV     A,#0x1
   \   000024   12....       LCALL   ?Subroutine7 & 0xFFFF
    255              s_ep1.task_id    = &ZbNode_TaskID;
    256              s_ep1.simpleDesc = &s_sd1;
   \                     ??CrossCallReturnLabel_4:
   \   000027   74..         MOV     A,#s_sd1 & 0xff
   \   000029   F0           MOVX    @DPTR,A
   \   00002A   A3           INC     DPTR
   \   00002B   74..         MOV     A,#(s_sd1 >> 8) & 0xff
   \   00002D   F0           MOVX    @DPTR,A
    257              s_ep1.latencyReq = noLatencyReqs;
   \   00002E   A3           INC     DPTR
   \   00002F   E4           CLR     A
   \   000030   F0           MOVX    @DPTR,A
    258              afRegister(&s_ep1);
   \   000031                ; Setup parameters for call to function afRegister
   \   000031   7A..         MOV     R2,#s_ep1 & 0xff
   \   000033   7B..         MOV     R3,#(s_ep1 >> 8) & 0xff
   \   000035   12....       LCALL   ??afRegister?relay
    259          
    260              s_sd2.EndPoint           = ZBNODE_EP_BUZZER;
   \   000038   90....       MOV     DPTR,#s_sd2
   \   00003B   7402         MOV     A,#0x2
   \   00003D   12....       LCALL   ?Subroutine5 & 0xFFFF
    261              s_sd2.AppProfId          = ZBNODE_PROFILE_ID;
    262              s_sd2.AppDeviceId        = ZBNODE_DEVICE_ID;
    263              s_sd2.AppDevVer          = ZBNODE_DEVICE_VER;
    264              s_sd2.Reserved           = 0;
    265              s_sd2.AppNumInClusters   = sizeof(s_in_buzzer) / sizeof(s_in_buzzer[0]);
    266              s_sd2.pAppInClusterList  = s_in_buzzer;
   \                     ??CrossCallReturnLabel_1:
   \   000040   74..         MOV     A,#s_in_buzzer & 0xff
   \   000042   F0           MOVX    @DPTR,A
   \   000043   A3           INC     DPTR
   \   000044   74..         MOV     A,#(s_in_buzzer >> 8) & 0xff
   \   000046   F0           MOVX    @DPTR,A
    267              s_sd2.AppNumOutClusters  = sizeof(s_out_buzzer) / sizeof(s_out_buzzer[0]);
   \   000047   A3           INC     DPTR
   \   000048   7401         MOV     A,#0x1
   \   00004A   F0           MOVX    @DPTR,A
    268              s_sd2.pAppOutClusterList = s_out_buzzer;
   \   00004B   A3           INC     DPTR
   \   00004C   74..         MOV     A,#s_out_buzzer & 0xff
   \   00004E   F0           MOVX    @DPTR,A
   \   00004F   A3           INC     DPTR
   \   000050   74..         MOV     A,#(s_out_buzzer >> 8) & 0xff
   \   000052   F0           MOVX    @DPTR,A
    269          
    270              s_ep2.endPoint   = ZBNODE_EP_BUZZER;
   \   000053   90....       MOV     DPTR,#s_ep2
   \   000056   7402         MOV     A,#0x2
   \   000058   12....       LCALL   ?Subroutine7 & 0xFFFF
    271              s_ep2.task_id    = &ZbNode_TaskID;
    272              s_ep2.simpleDesc = &s_sd2;
   \                     ??CrossCallReturnLabel_5:
   \   00005B   74..         MOV     A,#s_sd2 & 0xff
   \   00005D   F0           MOVX    @DPTR,A
   \   00005E   A3           INC     DPTR
   \   00005F   74..         MOV     A,#(s_sd2 >> 8) & 0xff
   \   000061   F0           MOVX    @DPTR,A
    273              s_ep2.latencyReq = noLatencyReqs;
   \   000062   A3           INC     DPTR
   \   000063   E4           CLR     A
   \   000064   F0           MOVX    @DPTR,A
    274              afRegister(&s_ep2);
   \   000065                ; Setup parameters for call to function afRegister
   \   000065   7A..         MOV     R2,#s_ep2 & 0xff
   \   000067   7B..         MOV     R3,#(s_ep2 >> 8) & 0xff
   \   000069   12....       LCALL   ??afRegister?relay
    275          }
   \   00006C   02....       LJMP    ?Subroutine1 & 0xFFFF

   \                                 In  segment BANKED_CODE, align 1, keep-with-next
   \                     ?Subroutine7:
   \   000000   F0           MOVX    @DPTR,A
   \   000001   A3           INC     DPTR
   \   000002   74..         MOV     A,#ZbNode_TaskID & 0xff
   \   000004   F0           MOVX    @DPTR,A
   \   000005   A3           INC     DPTR
   \   000006   74..         MOV     A,#(ZbNode_TaskID >> 8) & 0xff
   \   000008   F0           MOVX    @DPTR,A
   \   000009   A3           INC     DPTR
   \   00000A   22           RET

   \                                 In  segment BANKED_CODE, align 1, keep-with-next
   \                     ?Subroutine5:
   \   000000   F0           MOVX    @DPTR,A
   \   000001   A3           INC     DPTR
   \   000002   7404         MOV     A,#0x4
   \   000004   F0           MOVX    @DPTR,A
   \   000005   A3           INC     DPTR
   \   000006   7401         MOV     A,#0x1
   \   000008   F0           MOVX    @DPTR,A
   \   000009   A3           INC     DPTR
   \   00000A   E4           CLR     A
   \   00000B   F0           MOVX    @DPTR,A
   \   00000C   A3           INC     DPTR
   \   00000D   F0           MOVX    @DPTR,A
   \   00000E   A3           INC     DPTR
   \   00000F   04           INC     A
   \   000010   F0           MOVX    @DPTR,A
   \   000011   A3           INC     DPTR
   \   000012   F0           MOVX    @DPTR,A
   \   000013   A3           INC     DPTR
   \   000014   22           RET
    276          

   \                                 In  segment BANKED_CODE, align 1, keep-with-next
    277          void ZbNode_Init(uint8 task_id)
   \                     ZbNode_Init:
    278          {
   \   000000   74F7         MOV     A,#-0x9
   \   000002   12....       LCALL   ?BANKED_ENTER_XDATA
   \   000005                ; Saved register size: 9
   \   000005                ; Auto size: 29
   \   000005   74E3         MOV     A,#-0x1d
   \   000007   12....       LCALL   ?ALLOC_XSTACK8
   \   00000A   E9           MOV     A,R1
    279              ZbNode_TaskID = task_id;
   \   00000B   90....       MOV     DPTR,#ZbNode_TaskID
   \   00000E   12....       LCALL   ?Subroutine6 & 0xFFFF
    280              s_nwk_joined = 0;
    281              s_link_ready = 0;
    282              s_wait_first_report_cfm = 0;
    283              s_nwk_state = DEV_INIT;
    284              s_status_led_phase = 0;
   \                     ??CrossCallReturnLabel_3:
   \   000011   90....       MOV     DPTR,#s_status_led_phase
   \   000014   E4           CLR     A
   \   000015   F0           MOVX    @DPTR,A
    285              s_startup_leds_owned = 1u;
   \   000016   90....       MOV     DPTR,#s_startup_leds_owned
   \   000019   04           INC     A
   \   00001A   F0           MOVX    @DPTR,A
    286              osal_memset(&s_report_diag, 0, sizeof(s_report_diag));
   \   00001B                ; Setup parameters for call to function osal_memset
   \   00001B   7C06         MOV     R4,#0x6
   \   00001D   7D00         MOV     R5,#0x0
   \   00001F   7900         MOV     R1,#0x0
   \   000021   7A..         MOV     R2,#s_report_diag & 0xff
   \   000023   7B..         MOV     R3,#(s_report_diag >> 8) & 0xff
   \   000025   12....       LCALL   ??osal_memset?relay
    287          
    288              /* 打开 UART0 (P0.2/P0.3 → CH340G → USB) 115200 用于节点侧日志输出。
    289               * 直接调 HalUARTOpen 而不用 MT_UartInit：Node1/Node2 build 里没有
    290               * ZTOOL_P1 / ZAPP_P1 宏 → MT_UART_DEFAULT_PORT 未定义 → MT_UartInit
    291               * 会静默跳过 HalUARTOpen（见 Components/mt/MT_UART.c:124 的条件编译）。 */
    292              {
    293                  halUARTCfg_t cfg;
    294                  osal_memset(&cfg, 0, sizeof(cfg));
   \   000028                ; Setup parameters for call to function osal_memset
   \   000028   7C1D         MOV     R4,#0x1d
   \   00002A   7D00         MOV     R5,#0x0
   \   00002C   7900         MOV     R1,#0x0
   \   00002E   85..82       MOV     DPL,?XSP + 0
   \   000031   85..83       MOV     DPH,?XSP + 1
   \   000034   AA82         MOV     R2,DPL
   \   000036   AB83         MOV     R3,DPH
   \   000038   12....       LCALL   ??osal_memset?relay
    295                  cfg.configured           = TRUE;
   \   00003B   85..82       MOV     DPL,?XSP + 0
   \   00003E   85..83       MOV     DPH,?XSP + 1
   \   000041   7401         MOV     A,#0x1
   \   000043   F0           MOVX    @DPTR,A
    296                  cfg.baudRate             = HAL_UART_BR_115200;
   \   000044   12....       LCALL   ?XSTACK_DISP0_8
   \   000047   7404         MOV     A,#0x4
   \   000049   F0           MOVX    @DPTR,A
    297                  cfg.flowControl          = FALSE;
   \   00004A   7402         MOV     A,#0x2
   \   00004C   12....       LCALL   ?XSTACK_DISP0_8
   \   00004F   E4           CLR     A
   \   000050   F0           MOVX    @DPTR,A
    298                  cfg.flowControlThreshold = 0;
   \   000051   7403         MOV     A,#0x3
   \   000053   12....       LCALL   ?XSTACK_DISP0_8
   \   000056   E4           CLR     A
   \   000057   F0           MOVX    @DPTR,A
   \   000058   A3           INC     DPTR
   \   000059   F0           MOVX    @DPTR,A
    299                  cfg.rx.maxBufSize        = 64;
   \   00005A   740A         MOV     A,#0xa
   \   00005C   12....       LCALL   ?XSTACK_DISP0_8
   \   00005F   7440         MOV     A,#0x40
   \   000061   F0           MOVX    @DPTR,A
   \   000062   A3           INC     DPTR
   \   000063   E4           CLR     A
   \   000064   F0           MOVX    @DPTR,A
    300                  cfg.tx.maxBufSize        = 128;
   \   000065   7412         MOV     A,#0x12
   \   000067   12....       LCALL   ?XSTACK_DISP0_8
   \   00006A   7480         MOV     A,#-0x80
   \   00006C   F0           MOVX    @DPTR,A
   \   00006D   A3           INC     DPTR
   \   00006E   E4           CLR     A
   \   00006F   F0           MOVX    @DPTR,A
    301                  cfg.idleTimeout          = 6;
   \   000070   7405         MOV     A,#0x5
   \   000072   12....       LCALL   ?XSTACK_DISP0_8
   \   000075   7406         MOV     A,#0x6
   \   000077   F0           MOVX    @DPTR,A
    302                  cfg.intEnable            = TRUE;
   \   000078   7416         MOV     A,#0x16
   \   00007A   12....       LCALL   ?XSTACK_DISP0_8
   \   00007D   7401         MOV     A,#0x1
   \   00007F   F0           MOVX    @DPTR,A
    303                  cfg.callBackFunc         = NULL;   /* 节点只 TX 不 RX */
   \   000080   741B         MOV     A,#0x1b
   \   000082   12....       LCALL   ?XSTACK_DISP0_8
   \   000085   E4           CLR     A
   \   000086   F0           MOVX    @DPTR,A
   \   000087   A3           INC     DPTR
   \   000088   F0           MOVX    @DPTR,A
    304                  (void)HalUARTOpen(HAL_UART_PORT_0, &cfg);
   \   000089                ; Setup parameters for call to function HalUARTOpen
   \   000089   85..82       MOV     DPL,?XSP + 0
   \   00008C   85..83       MOV     DPH,?XSP + 1
   \   00008F   AA82         MOV     R2,DPL
   \   000091   AB83         MOV     R3,DPH
   \   000093   F9           MOV     R1,A
   \   000094   12....       LCALL   ??HalUARTOpen?relay
    305              }
    306          
    307              actuator_init();
   \   000097                ; Setup parameters for call to function actuator_init
   \   000097   12....       LCALL   ??actuator_init?relay
    308          #if NODE_ROLE == 1
    309              dht11_init();
   \   00009A                ; Setup parameters for call to function dht11_init
   \   00009A   12....       LCALL   ??dht11_init?relay
    310          #else
    311              ldr_init();
    312          #endif
    313              register_endpoints();
   \   00009D                ; Setup parameters for call to function register_endpoints
   \   00009D   12....       LCALL   ??register_endpoints?relay
    314          
    315              /* OLED 视图：初始化（含 ~120ms 上电稳定延时）+ 渲染首帧 "尚未入网" 画面 */
    316              node_oled_view_init((uint8)NODE_ROLE);
   \   0000A0                ; Setup parameters for call to function node_oled_view_init
   \   0000A0   7901         MOV     R1,#0x1
   \   0000A2   12....       LCALL   ??node_oled_view_init?relay
    317              oled_publish();
   \   0000A5                ; Setup parameters for call to function oled_publish
   \   0000A5   12....       LCALL   ??oled_publish?relay
    318              node_oled_view_refresh();
   \   0000A8                ; Setup parameters for call to function node_oled_view_refresh
   \   0000A8   12....       LCALL   ??node_oled_view_refresh?relay
    319          
    320              (void)osal_start_reload_timer(ZbNode_TaskID, ZN_EVT_REPORT, NODE_REPORT_PERIOD_MS);
   \   0000AB                ; Setup parameters for call to function osal_start_reload_timer
   \   0000AB   7CD0         MOV     R4,#-0x30
   \   0000AD   7D07         MOV     R5,#0x7
   \   0000AF   7A01         MOV     R2,#0x1
   \   0000B1   7B00         MOV     R3,#0x0
   \   0000B3   90....       MOV     DPTR,#ZbNode_TaskID
   \   0000B6   E0           MOVX    A,@DPTR
   \   0000B7   F9           MOV     R1,A
   \   0000B8   12....       LCALL   ??osal_start_reload_timer?relay
    321              (void)osal_start_reload_timer(ZbNode_TaskID, ZN_EVT_STATUS_LED, STATUS_LED_TICK_MS);
   \   0000BB                ; Setup parameters for call to function osal_start_reload_timer
   \   0000BB   7C64         MOV     R4,#0x64
   \   0000BD   7D00         MOV     R5,#0x0
   \   0000BF   7A04         MOV     R2,#0x4
   \   0000C1   7B00         MOV     R3,#0x0
   \   0000C3   90....       MOV     DPTR,#ZbNode_TaskID
   \   0000C6   E0           MOVX    A,@DPTR
   \   0000C7   F9           MOV     R1,A
   \   0000C8   12....       LCALL   ??osal_start_reload_timer?relay
    322              status_led_refresh();
   \   0000CB                ; Setup parameters for call to function status_led_refresh
   \   0000CB   12....       LCALL   ??status_led_refresh?relay
    323          
    324          #if NODE_ROLE == 1
    325              dbg_line("\r\n==== Node1 (DHT11) ready, period=2000ms ====");
   \   0000CE                ; Setup parameters for call to function dbg_line
   \   0000CE   7A..         MOV     R2,#`?<Constant "\\r\\n==== Node1 (DHT11) ...">` & 0xff
   \   0000D0   7B..         MOV     R3,#(`?<Constant "\\r\\n==== Node1 (DHT11) ...">` >> 8) & 0xff
   \   0000D2   12....       LCALL   ??dbg_line?relay
    326          #else
    327              dbg_line("\r\n==== Node2 (LDR)  ready, period=500ms  ====");
    328          #endif
    329          }
   \   0000D5   741D         MOV     A,#0x1d
   \   0000D7   12....       LCALL   ?DEALLOC_XSTACK8
   \   0000DA   02....       LJMP    ?Subroutine3 & 0xFFFF
    330          

   \                                 In  segment BANKED_CODE, align 1, keep-with-next
    331          static void do_report(void)
   \                     do_report:
    332          {
   \   000000   74F4         MOV     A,#-0xc
   \   000002   12....       LCALL   ?BANKED_ENTER_XDATA
   \   000005                ; Saved register size: 12
   \   000005                ; Auto size: 4
   \   000005   74FC         MOV     A,#-0x4
   \   000007   12....       LCALL   ?ALLOC_XSTACK8
    333              if (!network_ready()) {
   \   00000A                ; Setup parameters for call to function network_ready
   \   00000A   12....       LCALL   ??network_ready?relay
   \   00000D   E9           MOV     A,R1
   \   00000E   7003         JNZ     $+5
   \   000010   02....       LJMP    ??do_report_0 & 0xFFFF
    334                  return;
    335              }
    336          
    337          #if NODE_ROLE == 1
    338              {
    339                  int16 t = 0;
   \   000013   85..82       MOV     DPL,?XSP + 0
   \   000016   85..83       MOV     DPH,?XSP + 1
   \   000019   E4           CLR     A
   \   00001A   F0           MOVX    @DPTR,A
   \   00001B   A3           INC     DPTR
   \   00001C   F0           MOVX    @DPTR,A
    340                  uint16 h = 0;
   \   00001D   7402         MOV     A,#0x2
   \   00001F   12....       LCALL   ?XSTACK_DISP0_8
   \   000022   E4           CLR     A
   \   000023   F0           MOVX    @DPTR,A
   \   000024   A3           INC     DPTR
   \   000025   F0           MOVX    @DPTR,A
    341                  int8 rc = dht11_read(&t, &h);
   \   000026                ; Setup parameters for call to function dht11_read
   \   000026   7402         MOV     A,#0x2
   \   000028   12....       LCALL   ?XSTACK_DISP0_8
   \   00002B   AC82         MOV     R4,DPL
   \   00002D   AD83         MOV     R5,DPH
   \   00002F   85..82       MOV     DPL,?XSP + 0
   \   000032   85..83       MOV     DPH,?XSP + 1
   \   000035   AA82         MOV     R2,DPL
   \   000037   AB83         MOV     R3,DPH
   \   000039   12....       LCALL   ??dht11_read?relay
   \   00003C   E9           MOV     A,R1
   \   00003D   FE           MOV     R6,A
    342          
    343                  if (rc == 0) {
   \   00003E   6003         JZ      $+5
   \   000040   02....       LJMP    ??do_report_1 & 0xFFFF
    344                      int16 tabs = (t < 0) ? (int16)(-t) : t;
   \   000043   12....       LCALL   ?Subroutine9 & 0xFFFF
   \                     ??CrossCallReturnLabel_8:
   \   000046   85..82       MOV     DPL,?XSP + 0
   \   000049   85..83       MOV     DPH,?XSP + 1
   \   00004C   E0           MOVX    A,@DPTR
   \   00004D   500C         JNC     ??do_report_2
   \   00004F   F8           MOV     R0,A
   \   000050   A3           INC     DPTR
   \   000051   E0           MOVX    A,@DPTR
   \   000052   F9           MOV     R1,A
   \   000053   C3           CLR     C
   \   000054   E4           CLR     A
   \   000055   98           SUBB    A,R0
   \   000056   FC           MOV     R4,A
   \   000057   E4           CLR     A
   \   000058   99           SUBB    A,R1
   \   000059   8003         SJMP    ??do_report_3
   \                     ??do_report_2:
   \   00005B   FC           MOV     R4,A
   \   00005C   A3           INC     DPTR
   \   00005D   E0           MOVX    A,@DPTR
   \                     ??do_report_3:
   \   00005E   FD           MOV     R5,A
    345                      s_oled_model.temp_x100 = t;
   \   00005F   85..82       MOV     DPL,?XSP + 0
   \   000062   85..83       MOV     DPH,?XSP + 1
   \   000065   12....       LCALL   ?Subroutine12 & 0xFFFF
   \                     ??CrossCallReturnLabel_14:
   \   000068   90....       MOV     DPTR,#s_oled_model + 5
   \   00006B   E8           MOV     A,R0
   \   00006C   F0           MOVX    @DPTR,A
   \   00006D   A3           INC     DPTR
   \   00006E   E9           MOV     A,R1
   \   00006F   F0           MOVX    @DPTR,A
    346                      s_oled_model.hum_x100  = h;
   \   000070   7402         MOV     A,#0x2
   \   000072   12....       LCALL   ?XSTACK_DISP0_8
   \   000075   12....       LCALL   ?Subroutine12 & 0xFFFF
   \                     ??CrossCallReturnLabel_15:
   \   000078   90....       MOV     DPTR,#s_oled_model + 7
   \   00007B   E8           MOV     A,R0
   \   00007C   F0           MOVX    @DPTR,A
   \   00007D   A3           INC     DPTR
   \   00007E   E9           MOV     A,R1
   \   00007F   F0           MOVX    @DPTR,A
    347                      s_oled_model.has_sample = 1u;
   \   000080   90....       MOV     DPTR,#s_oled_model + 13
   \   000083   7401         MOV     A,#0x1
   \   000085   F0           MOVX    @DPTR,A
    348                      (void)sprintf(s_dbg_buf, "[n1] T=%s%d.%02d H=%u.%02u\r\n",
    349                                    (t < 0) ? "-" : "", (int)(tabs / 100), (int)(tabs % 100),
    350                                    (unsigned)(h / 100u), (unsigned)(h % 100u));
   \   000086   12....       LCALL   ?Subroutine9 & 0xFFFF
   \                     ??CrossCallReturnLabel_9:
   \   000089   5008         JNC     ??do_report_4
   \   00008B   75....       MOV     ?V0 + 0,#`?<Constant "-">` & 0xff
   \   00008E   75....       MOV     ?V0 + 1,#(`?<Constant "-">` >> 8) & 0xff
   \   000091   8006         SJMP    ??do_report_5
   \                     ??do_report_4:
   \   000093   75....       MOV     ?V0 + 0,#`?<Constant "">` & 0xff
   \   000096   75....       MOV     ?V0 + 1,#(`?<Constant "">` >> 8) & 0xff
   \                     ??do_report_5:
   \   000099                ; Setup parameters for call to function sprintf
   \   000099   7402         MOV     A,#0x2
   \   00009B   12....       LCALL   ?XSTACK_DISP0_8
   \   00009E   12....       LCALL   ?Subroutine8 & 0xFFFF
   \                     ??CrossCallReturnLabel_6:
   \   0000A1   12....       LCALL   ?US_DIV_MOD
   \   0000A4   8A..         MOV     ?V0 + 2,R2
   \   0000A6   8B..         MOV     ?V0 + 3,R3
   \   0000A8   78..         MOV     R0,#?V0 + 2
   \   0000AA   12....       LCALL   ?PUSH_XSTACK_I_TWO
   \   0000AD   7404         MOV     A,#0x4
   \   0000AF   12....       LCALL   ?XSTACK_DISP0_8
   \   0000B2   12....       LCALL   ?Subroutine8 & 0xFFFF
   \                     ??CrossCallReturnLabel_7:
   \   0000B5   12....       LCALL   ?US_DIV_MOD
   \   0000B8   88..         MOV     ?V0 + 2,R0
   \   0000BA   89..         MOV     ?V0 + 3,R1
   \   0000BC   78..         MOV     R0,#?V0 + 2
   \   0000BE   12....       LCALL   ?PUSH_XSTACK_I_TWO
   \   0000C1   EC           MOV     A,R4
   \   0000C2   F8           MOV     R0,A
   \   0000C3   ED           MOV     A,R5
   \   0000C4   F9           MOV     R1,A
   \   0000C5   7A64         MOV     R2,#0x64
   \   0000C7   7B00         MOV     R3,#0x0
   \   0000C9   12....       LCALL   ?S_DIV_MOD
   \   0000CC   8A..         MOV     ?V0 + 2,R2
   \   0000CE   8B..         MOV     ?V0 + 3,R3
   \   0000D0   78..         MOV     R0,#?V0 + 2
   \   0000D2   12....       LCALL   ?PUSH_XSTACK_I_TWO
   \   0000D5   EC           MOV     A,R4
   \   0000D6   F8           MOV     R0,A
   \   0000D7   ED           MOV     A,R5
   \   0000D8   F9           MOV     R1,A
   \   0000D9   7A64         MOV     R2,#0x64
   \   0000DB   7B00         MOV     R3,#0x0
   \   0000DD   12....       LCALL   ?S_DIV_MOD
   \   0000E0   88..         MOV     ?V0 + 2,R0
   \   0000E2   89..         MOV     ?V0 + 3,R1
   \   0000E4   78..         MOV     R0,#?V0 + 2
   \   0000E6   12....       LCALL   ?PUSH_XSTACK_I_TWO
   \   0000E9   78..         MOV     R0,#?V0 + 0
   \   0000EB   12....       LCALL   ?PUSH_XSTACK_I_TWO
   \   0000EE   7C..         MOV     R4,#`?<Constant "[n1] T=%s%d.%02d H=%u...">` & 0xff
   \   0000F0   7D..         MOV     R5,#(`?<Constant "[n1] T=%s%d.%02d H=%u...">` >> 8) & 0xff
   \   0000F2   7A..         MOV     R2,#s_dbg_buf & 0xff
   \   0000F4   7B..         MOV     R3,#(s_dbg_buf >> 8) & 0xff
   \   0000F6   12....       LCALL   ??sprintf?relay
   \   0000F9   740A         MOV     A,#0xa
   \   0000FB   12....       LCALL   ?DEALLOC_XSTACK8
    351                      dbg_puts(s_dbg_buf);
   \   0000FE                ; Setup parameters for call to function dbg_puts
   \   0000FE   7A..         MOV     R2,#s_dbg_buf & 0xff
   \   000100   7B..         MOV     R3,#(s_dbg_buf >> 8) & 0xff
   \   000102   12....       LCALL   ??dbg_puts?relay
    352                      (void)send_attr_report(ZBNODE_EP_SENSOR, CLU_TEMP, 0x0000, 0x10, &t, 2);
   \   000105                ; Setup parameters for call to function send_attr_report
   \   000105   75..02       MOV     ?V0 + 0,#0x2
   \   000108   78..         MOV     R0,#?V0 + 0
   \   00010A   12....       LCALL   ?PUSH_XSTACK_I_ONE
   \   00010D   7401         MOV     A,#0x1
   \   00010F   12....       LCALL   ?XSTACK_DISP0_8
   \   000112   8582..       MOV     ?V0 + 0,DPL
   \   000115   8583..       MOV     ?V0 + 1,DPH
   \   000118   78..         MOV     R0,#?V0 + 0
   \   00011A   12....       LCALL   ?PUSH_XSTACK_I_TWO
   \   00011D   75..10       MOV     ?V0 + 0,#0x10
   \   000120   78..         MOV     R0,#?V0 + 0
   \   000122   12....       LCALL   ?PUSH_XSTACK_I_ONE
   \   000125   7C00         MOV     R4,#0x0
   \   000127   7D00         MOV     R5,#0x0
   \   000129   7A02         MOV     R2,#0x2
   \   00012B   7B04         MOV     R3,#0x4
   \   00012D   7901         MOV     R1,#0x1
   \   00012F   12....       LCALL   ??send_attr_report?relay
   \   000132   7404         MOV     A,#0x4
   \   000134   12....       LCALL   ?DEALLOC_XSTACK8
    353                      (void)send_attr_report(ZBNODE_EP_SENSOR, CLU_HUM,  0x0000, 0x11, &h, 2);
   \   000137                ; Setup parameters for call to function send_attr_report
   \   000137   75..02       MOV     ?V0 + 0,#0x2
   \   00013A   78..         MOV     R0,#?V0 + 0
   \   00013C   12....       LCALL   ?PUSH_XSTACK_I_ONE
   \   00013F   7403         MOV     A,#0x3
   \   000141   12....       LCALL   ?XSTACK_DISP0_8
   \   000144   8582..       MOV     ?V0 + 0,DPL
   \   000147   8583..       MOV     ?V0 + 1,DPH
   \   00014A   78..         MOV     R0,#?V0 + 0
   \   00014C   12....       LCALL   ?PUSH_XSTACK_I_TWO
   \   00014F   75..11       MOV     ?V0 + 0,#0x11
   \   000152   78..         MOV     R0,#?V0 + 0
   \   000154   12....       LCALL   ?PUSH_XSTACK_I_ONE
   \   000157   7C00         MOV     R4,#0x0
   \   000159   7D00         MOV     R5,#0x0
   \   00015B   7A05         MOV     R2,#0x5
   \   00015D   7B04         MOV     R3,#0x4
   \   00015F   7901         MOV     R1,#0x1
   \   000161   12....       LCALL   ??send_attr_report?relay
   \   000164   7404         MOV     A,#0x4
   \   000166   12....       LCALL   ?DEALLOC_XSTACK8
   \   000169   8028         SJMP    ??do_report_6
    354                  } else {
    355                      (void)sprintf(s_dbg_buf, "[n1] DHT rc=%d\r\n", (int)rc);
   \                     ??do_report_1:
   \   00016B                ; Setup parameters for call to function sprintf
   \   00016B   F5..         MOV     ?V0 + 0,A
   \   00016D   33           RLC     A
   \   00016E   95E0         SUBB    A,0xE0 /* A   */
   \   000170   F5..         MOV     ?V0 + 1,A
   \   000172   78..         MOV     R0,#?V0 + 0
   \   000174   12....       LCALL   ?PUSH_XSTACK_I_TWO
   \   000177   7C..         MOV     R4,#`?<Constant "[n1] DHT rc=%d\\r\\n">` & 0xff
   \   000179   7D..         MOV     R5,#(`?<Constant "[n1] DHT rc=%d\\r\\n">` >> 8) & 0xff
   \   00017B   7A..         MOV     R2,#s_dbg_buf & 0xff
   \   00017D   7B..         MOV     R3,#(s_dbg_buf >> 8) & 0xff
   \   00017F   12....       LCALL   ??sprintf?relay
   \   000182   7402         MOV     A,#0x2
   \   000184   12....       LCALL   ?DEALLOC_XSTACK8
    356                      dbg_puts(s_dbg_buf);
   \   000187                ; Setup parameters for call to function dbg_puts
   \   000187   7A..         MOV     R2,#s_dbg_buf & 0xff
   \   000189   7B..         MOV     R3,#(s_dbg_buf >> 8) & 0xff
   \   00018B   12....       LCALL   ??dbg_puts?relay
    357                      note_local_sample_failure(rc);
   \   00018E                ; Setup parameters for call to function note_local_sample_failure
   \   00018E   EE           MOV     A,R6
   \   00018F   F9           MOV     R1,A
   \   000190   12....       LCALL   ??note_local_sample_failure?relay
    358                  }
    359              }
    360          #else
    361              {
    362                  uint16 lux = ldr_read_lux();
    363          
    364                  s_oled_model.lux = lux;
    365                  s_oled_model.has_sample = 1u;
    366                  (void)sprintf(s_dbg_buf, "[n2] lux=%u\r\n", (unsigned)lux);
    367                  dbg_puts(s_dbg_buf);
    368                  (void)send_attr_report(ZBNODE_EP_SENSOR, CLU_LUX, 0x0000, 0x11, &lux, 2);
    369              }
    370          #endif
    371              oled_publish();
   \                     ??do_report_6:
   \   000193                ; Setup parameters for call to function oled_publish
   \   000193   12....       LCALL   ??oled_publish?relay
    372          }
   \                     ??do_report_0:
   \   000196   7404         MOV     A,#0x4
   \   000198                REQUIRE ?Subroutine4
   \   000198                ; // Fall through to label ?Subroutine4

   \                                 In  segment BANKED_CODE, align 1, keep-with-next
   \                     ?Subroutine4:
   \   000000   12....       LCALL   ?DEALLOC_XSTACK8
   \   000003   7F04         MOV     R7,#0x4
   \   000005   02....       LJMP    ?BANKED_LEAVE_XDATA

   \                                 In  segment BANKED_CODE, align 1, keep-with-next
   \                     ?Subroutine9:
   \   000000   85..82       MOV     DPL,?XSP + 0
   \   000003   85..83       MOV     DPH,?XSP + 1
   \   000006   C3           CLR     C
   \   000007   A3           INC     DPTR
   \   000008   E0           MOVX    A,@DPTR
   \   000009   9400         SUBB    A,#0x0
   \   00000B   A2D2         MOV     C,0xD0 /* PSW */.2
   \   00000D   65D0         XRL     A,PSW
   \   00000F   33           RLC     A
   \   000010   22           RET

   \                                 In  segment BANKED_CODE, align 1, keep-with-next
   \                     ?Subroutine8:
   \   000000   12....       LCALL   ?Subroutine12 & 0xFFFF
   \                     ??CrossCallReturnLabel_17:
   \   000003   7A64         MOV     R2,#0x64
   \   000005   7B00         MOV     R3,#0x0
   \   000007   22           RET

   \                                 In  segment BANKED_CODE, align 1, keep-with-next
   \                     ?Subroutine12:
   \   000000   E0           MOVX    A,@DPTR
   \   000001   F8           MOV     R0,A
   \   000002   A3           INC     DPTR
   \   000003   E0           MOVX    A,@DPTR
   \   000004   F9           MOV     R1,A
   \   000005   22           RET
    373          

   \                                 In  segment BANKED_CODE, align 1, keep-with-next
    374          static void on_incoming(afIncomingMSGPacket_t *pkt)
   \                     on_incoming:
    375          {
   \   000000   74F4         MOV     A,#-0xc
   \   000002   12....       LCALL   ?BANKED_ENTER_XDATA
   \   000005                ; Saved register size: 12
   \   000005                ; Auto size: 1
   \   000005   74FF         MOV     A,#-0x1
   \   000007   12....       LCALL   ?ALLOC_XSTACK8
   \   00000A   EA           MOV     A,R2
   \   00000B   FE           MOV     R6,A
   \   00000C   EB           MOV     A,R3
   \   00000D   FF           MOV     R7,A
    376              uint8 *zcl;
    377              uint8 zlen;
    378              uint8 cmd;
    379              uint8 seq;
    380              uint8 onoff;
    381              uint8 vstate;
    382          
    383              if (pkt->clusterId != CLU_ONOFF) {
   \   00000E   8E82         MOV     DPL,R6
   \   000010   8F83         MOV     DPH,R7
   \   000012   A3           INC     DPTR
   \   000013   A3           INC     DPTR
   \   000014   A3           INC     DPTR
   \   000015   A3           INC     DPTR
   \   000016   E0           MOVX    A,@DPTR
   \   000017   6406         XRL     A,#0x6
   \   000019   7002         JNZ     ??on_incoming_0
   \   00001B   A3           INC     DPTR
   \   00001C   E0           MOVX    A,@DPTR
   \                     ??on_incoming_0:
   \   00001D   6003         JZ      $+5
   \   00001F   02....       LJMP    ??on_incoming_1 & 0xFFFF
    384                  return;
    385              }
    386          
    387              zcl = pkt->cmd.Data;
   \   000022   EE           MOV     A,R6
   \   000023   2422         ADD     A,#0x22
   \   000025   F582         MOV     DPL,A
   \   000027   EF           MOV     A,R7
   \   000028   3400         ADDC    A,#0x0
   \   00002A   F583         MOV     DPH,A
   \   00002C   12....       LCALL   ?Subroutine12 & 0xFFFF
    388              zlen = pkt->cmd.DataLength;
    389              if (zlen < 3) {
   \                     ??CrossCallReturnLabel_16:
   \   00002F   EE           MOV     A,R6
   \   000030   2420         ADD     A,#0x20
   \   000032   F582         MOV     DPL,A
   \   000034   EF           MOV     A,R7
   \   000035   3400         ADDC    A,#0x0
   \   000037   F583         MOV     DPH,A
   \   000039   E0           MOVX    A,@DPTR
   \   00003A   C3           CLR     C
   \   00003B   9403         SUBB    A,#0x3
   \   00003D   5003         JNC     $+5
   \   00003F   02....       LJMP    ??on_incoming_1 & 0xFFFF
    390                  return;
    391              }
    392          
    393              seq = zcl[1];
   \   000042   8882         MOV     DPL,R0
   \   000044   8983         MOV     DPH,R1
   \   000046   A3           INC     DPTR
   \   000047   E0           MOVX    A,@DPTR
   \   000048   F5..         MOV     ?V0 + 0,A
    394              cmd = zcl[2];
   \   00004A   8882         MOV     DPL,R0
   \   00004C   8983         MOV     DPH,R1
   \   00004E   A3           INC     DPTR
   \   00004F   A3           INC     DPTR
   \   000050   E0           MOVX    A,@DPTR
   \   000051   F5..         MOV     ?V0 + 1,A
    395              switch (cmd) {
   \   000053   6009         JZ      ??on_incoming_2
   \   000055   14           DEC     A
   \   000056   6020         JZ      ??on_incoming_3
   \   000058   14           DEC     A
   \   000059   6012         JZ      ??on_incoming_4
   \   00005B   02....       LJMP    ??on_incoming_1 & 0xFFFF
    396              case 0x00:
    397                  onoff = 0;
   \                     ??on_incoming_2:
   \   00005E   75..00       MOV     ?V0 + 2,#0x0
    398                  break;
    399              case 0x01:
    400                  onoff = 1;
    401                  break;
    402              case 0x02:
    403                  if (pkt->endPoint == ZBNODE_EP_SENSOR) {
    404                      onoff = (uint8)(!actuator_led_state());
    405                  } else {
    406                      onoff = (uint8)(!actuator_buzzer_state());
    407                  }
    408                  break;
    409              default:
    410                  return;
    411              }
    412          
    413              if (pkt->endPoint == ZBNODE_EP_SENSOR) {
   \                     ??on_incoming_5:
   \   000061   12....       LCALL   ?Subroutine10 & 0xFFFF
   \                     ??CrossCallReturnLabel_10:
   \   000064   701F         JNZ     ??on_incoming_6
    414                  actuator_led_set(onoff);
   \   000066                ; Setup parameters for call to function actuator_led_set
   \   000066   A9..         MOV     R1,?V0 + 2
   \   000068   12....       LCALL   ??actuator_led_set?relay
   \   00006B   8022         SJMP    ??on_incoming_7
    415              } else if (pkt->endPoint == ZBNODE_EP_BUZZER) {
   \                     ??on_incoming_4:
   \   00006D   12....       LCALL   ?Subroutine10 & 0xFFFF
   \                     ??CrossCallReturnLabel_11:
   \   000070   700B         JNZ     ??on_incoming_8
   \   000072                ; Setup parameters for call to function actuator_led_state
   \   000072   12....       LCALL   ??actuator_led_state?relay
   \   000075   E9           MOV     A,R1
   \   000076   70E6         JNZ     ??on_incoming_2
   \                     ??on_incoming_3:
   \   000078   75..01       MOV     ?V0 + 2,#0x1
   \   00007B   80E4         SJMP    ??on_incoming_5
   \                     ??on_incoming_8:
   \   00007D                ; Setup parameters for call to function actuator_buzzer_state
   \   00007D   12....       LCALL   ??actuator_buzzer_state?relay
   \   000080   E9           MOV     A,R1
   \   000081   70DB         JNZ     ??on_incoming_2
   \   000083   80F3         SJMP    ??on_incoming_3
   \                     ??on_incoming_6:
   \   000085   E0           MOVX    A,@DPTR
   \   000086   6402         XRL     A,#0x2
   \   000088   7005         JNZ     ??on_incoming_7
    416                  actuator_buzzer_set(onoff);
   \   00008A                ; Setup parameters for call to function actuator_buzzer_set
   \   00008A   A9..         MOV     R1,?V0 + 2
   \   00008C   12....       LCALL   ??actuator_buzzer_set?relay
    417              }
    418          
    419              (void)zcl_default_response(pkt->endPoint, CLU_ONOFF, seq, cmd, 0x00);
   \                     ??on_incoming_7:
   \   00008F   EE           MOV     A,R6
   \   000090   2414         ADD     A,#0x14
   \   000092   FE           MOV     R6,A
   \   000093   EF           MOV     A,R7
   \   000094   3400         ADDC    A,#0x0
   \   000096   FF           MOV     R7,A
   \   000097                ; Setup parameters for call to function zcl_default_response
   \   000097   75..00       MOV     ?V0 + 3,#0x0
   \   00009A   78..         MOV     R0,#?V0 + 3
   \   00009C   12....       LCALL   ?PUSH_XSTACK_I_ONE
   \   00009F   AD..         MOV     R5,?V0 + 1
   \   0000A1   AC..         MOV     R4,?V0 + 0
   \   0000A3   7A06         MOV     R2,#0x6
   \   0000A5   7B00         MOV     R3,#0x0
   \   0000A7   8E82         MOV     DPL,R6
   \   0000A9   8F83         MOV     DPH,R7
   \   0000AB   E0           MOVX    A,@DPTR
   \   0000AC   F9           MOV     R1,A
   \   0000AD   12....       LCALL   ??zcl_default_response?relay
   \   0000B0   7401         MOV     A,#0x1
   \   0000B2   12....       LCALL   ?DEALLOC_XSTACK8
    420              vstate = onoff;
   \   0000B5   85..82       MOV     DPL,?XSP + 0
   \   0000B8   85..83       MOV     DPH,?XSP + 1
   \   0000BB   E5..         MOV     A,?V0 + 2
   \   0000BD   F0           MOVX    @DPTR,A
    421              (void)send_attr_report(pkt->endPoint, CLU_ONOFF, 0x0000, 0x01, &vstate, 1);
   \   0000BE                ; Setup parameters for call to function send_attr_report
   \   0000BE   75..01       MOV     ?V0 + 0,#0x1
   \   0000C1   78..         MOV     R0,#?V0 + 0
   \   0000C3   12....       LCALL   ?PUSH_XSTACK_I_ONE
   \   0000C6   7401         MOV     A,#0x1
   \   0000C8   12....       LCALL   ?XSTACK_DISP0_8
   \   0000CB   8582..       MOV     ?V0 + 0,DPL
   \   0000CE   8583..       MOV     ?V0 + 1,DPH
   \   0000D1   78..         MOV     R0,#?V0 + 0
   \   0000D3   12....       LCALL   ?PUSH_XSTACK_I_TWO
   \   0000D6   75..01       MOV     ?V0 + 0,#0x1
   \   0000D9   78..         MOV     R0,#?V0 + 0
   \   0000DB   12....       LCALL   ?PUSH_XSTACK_I_ONE
   \   0000DE   7C00         MOV     R4,#0x0
   \   0000E0   7D00         MOV     R5,#0x0
   \   0000E2   7A06         MOV     R2,#0x6
   \   0000E4   7B00         MOV     R3,#0x0
   \   0000E6   8E82         MOV     DPL,R6
   \   0000E8   8F83         MOV     DPH,R7
   \   0000EA   E0           MOVX    A,@DPTR
   \   0000EB   F9           MOV     R1,A
   \   0000EC   12....       LCALL   ??send_attr_report?relay
   \   0000EF   7404         MOV     A,#0x4
   \   0000F1   12....       LCALL   ?DEALLOC_XSTACK8
    422              oled_publish();
   \   0000F4                ; Setup parameters for call to function oled_publish
   \   0000F4   12....       LCALL   ??oled_publish?relay
    423          }
   \                     ??on_incoming_1:
   \   0000F7   7401         MOV     A,#0x1
   \   0000F9   02....       LJMP    ?Subroutine4 & 0xFFFF

   \                                 In  segment BANKED_CODE, align 1, keep-with-next
   \                     ?Subroutine10:
   \   000000   EE           MOV     A,R6
   \   000001   2414         ADD     A,#0x14
   \   000003   F582         MOV     DPL,A
   \   000005   EF           MOV     A,R7
   \   000006   3400         ADDC    A,#0x0
   \   000008   F583         MOV     DPH,A
   \   00000A   E0           MOVX    A,@DPTR
   \   00000B   6401         XRL     A,#0x1
   \   00000D   22           RET
    424          

   \                                 In  segment BANKED_CODE, align 1, keep-with-next
    425          static void on_data_confirm(afDataConfirm_t *cfm)
   \                     on_data_confirm:
    426          {
   \   000000   74F6         MOV     A,#-0xa
   \   000002   12....       LCALL   ?BANKED_ENTER_XDATA
   \   000005                ; Saved register size: 10
   \   000005                ; Auto size: 0
    427              if (s_report_diag.pending_reports > 0) {
   \   000005   90....       MOV     DPTR,#s_report_diag + 3
   \   000008   E0           MOVX    A,@DPTR
   \   000009   6002         JZ      ??on_data_confirm_0
    428                  s_report_diag.pending_reports--;
   \   00000B   14           DEC     A
   \   00000C   F0           MOVX    @DPTR,A
    429              }
    430          
    431              s_report_diag.last_status = cfm->hdr.status;
   \                     ??on_data_confirm_0:
   \   00000D   8A82         MOV     DPL,R2
   \   00000F   8B83         MOV     DPH,R3
   \   000011   A3           INC     DPTR
   \   000012   AE82         MOV     R6,DPL
   \   000014   AF83         MOV     R7,DPH
   \   000016   E0           MOVX    A,@DPTR
   \   000017   90....       MOV     DPTR,#s_report_diag + 1
   \   00001A   F0           MOVX    @DPTR,A
    432              s_report_diag.last_transid = cfm->transID;
   \   00001B   8A82         MOV     DPL,R2
   \   00001D   8B83         MOV     DPH,R3
   \   00001F   A3           INC     DPTR
   \   000020   A3           INC     DPTR
   \   000021   A3           INC     DPTR
   \   000022   E0           MOVX    A,@DPTR
   \   000023   90....       MOV     DPTR,#s_report_diag + 2
   \   000026   F0           MOVX    @DPTR,A
    433              if (cfm->hdr.status == ZSuccess) {
   \   000027   8E82         MOV     DPL,R6
   \   000029   8F83         MOV     DPH,R7
   \   00002B   E0           MOVX    A,@DPTR
   \   00002C   7034         JNZ     ??on_data_confirm_1
    434                  s_report_diag.last_result = 0;
   \   00002E   90....       MOV     DPTR,#s_report_diag
   \   000031   E4           CLR     A
   \   000032   F0           MOVX    @DPTR,A
    435                  s_report_diag.consecutive_fail = 0;
   \   000033   90....       MOV     DPTR,#s_report_diag + 5
   \   000036   F0           MOVX    @DPTR,A
    436                  if (s_wait_first_report_cfm && s_nwk_joined) {
   \   000037   90....       MOV     DPTR,#s_wait_first_report_cfm
   \   00003A   E0           MOVX    A,@DPTR
   \   00003B   601C         JZ      ??on_data_confirm_2
   \   00003D   90....       MOV     DPTR,#s_nwk_joined
   \   000040   E0           MOVX    A,@DPTR
   \   000041   6016         JZ      ??on_data_confirm_2
    437                      s_wait_first_report_cfm = 0u;
   \   000043   90....       MOV     DPTR,#s_wait_first_report_cfm
   \   000046   E4           CLR     A
   \   000047   F0           MOVX    @DPTR,A
    438                      s_link_ready = 1u;
   \   000048   90....       MOV     DPTR,#s_link_ready
   \   00004B   04           INC     A
   \   00004C   F0           MOVX    @DPTR,A
    439                      dbg_line("[cfm] first report CONFIRMED, link READY");
   \   00004D                ; Setup parameters for call to function dbg_line
   \   00004D   7A..         MOV     R2,#`?<Constant "[cfm] first report CO...">` & 0xff
   \   00004F   7B..         MOV     R3,#(`?<Constant "[cfm] first report CO...">` >> 8) & 0xff
   \   000051   12....       LCALL   ??dbg_line?relay
    440                      status_led_refresh();
   \   000054                ; Setup parameters for call to function status_led_refresh
   \   000054   12....       LCALL   ??status_led_refresh?relay
   \   000057   8033         SJMP    ??on_data_confirm_3
    441                  } else {
    442                      dbg_line("[cfm] OK");
   \                     ??on_data_confirm_2:
   \   000059                ; Setup parameters for call to function dbg_line
   \   000059   7A..         MOV     R2,#`?<Constant "[cfm] OK">` & 0xff
   \   00005B   7B..         MOV     R3,#(`?<Constant "[cfm] OK">` >> 8) & 0xff
   \   00005D   12....       LCALL   ??dbg_line?relay
   \   000060   802A         SJMP    ??on_data_confirm_3
    443                  }
    444              } else {
    445                  (void)sprintf(s_dbg_buf, "[cfm] fail=0x%02X\r\n", (unsigned)cfm->hdr.status);
   \                     ??on_data_confirm_1:
   \   000062                ; Setup parameters for call to function sprintf
   \   000062   F5..         MOV     ?V0 + 0,A
   \   000064   75..00       MOV     ?V0 + 1,#0x0
   \   000067   78..         MOV     R0,#?V0 + 0
   \   000069   12....       LCALL   ?PUSH_XSTACK_I_TWO
   \   00006C   7C..         MOV     R4,#`?<Constant "[cfm] fail=0x%02X\\r\\n">` & 0xff
   \   00006E   7D..         MOV     R5,#(`?<Constant "[cfm] fail=0x%02X\\r\\n">` >> 8) & 0xff
   \   000070   7A..         MOV     R2,#s_dbg_buf & 0xff
   \   000072   7B..         MOV     R3,#(s_dbg_buf >> 8) & 0xff
   \   000074   12....       LCALL   ??sprintf?relay
   \   000077   7402         MOV     A,#0x2
   \   000079   12....       LCALL   ?DEALLOC_XSTACK8
    446                  dbg_puts(s_dbg_buf);
   \   00007C                ; Setup parameters for call to function dbg_puts
   \   00007C   7A..         MOV     R2,#s_dbg_buf & 0xff
   \   00007E   7B..         MOV     R3,#(s_dbg_buf >> 8) & 0xff
   \   000080   12....       LCALL   ??dbg_puts?relay
    447                  note_transport_failure((int8)cfm->hdr.status);
   \   000083                ; Setup parameters for call to function note_transport_failure
   \   000083   8E82         MOV     DPL,R6
   \   000085   8F83         MOV     DPH,R7
   \   000087   E0           MOVX    A,@DPTR
   \   000088   F9           MOV     R1,A
   \   000089   12....       LCALL   ??note_transport_failure?relay
    448              }
    449          }
   \                     ??on_data_confirm_3:
   \   00008C   02....       LJMP    ?Subroutine0 & 0xFFFF
    450          

   \                                 In  segment BANKED_CODE, align 1, keep-with-next
    451          UINT16 ZbNode_ProcessEvent(uint8 task_id, uint16 events)
   \                     ZbNode_ProcessEvent:
    452          {
   \   000000   74F2         MOV     A,#-0xe
   \   000002   12....       LCALL   ?BANKED_ENTER_XDATA
   \   000005                ; Saved register size: 14
   \   000005                ; Auto size: 0
   \   000005   EA           MOV     A,R2
   \   000006   FE           MOV     R6,A
   \   000007   EB           MOV     A,R3
   \   000008   FF           MOV     R7,A
    453              afIncomingMSGPacket_t *MSGpkt;
    454          
    455              (void)task_id;
    456          
    457              if (events & SYS_EVENT_MSG) {
   \   000009   5480         ANL     A,#0x80
   \   00000B   7024         JNZ     ??ZbNode_ProcessEvent_0
    458                  while ((MSGpkt = (afIncomingMSGPacket_t *)osal_msg_receive(ZbNode_TaskID)) != 0) {
    459                      switch (MSGpkt->hdr.event) {
    460                      case AF_INCOMING_MSG_CMD:
    461                          on_incoming(MSGpkt);
    462                          break;
    463          
    464                      case AF_DATA_CONFIRM_CMD:
    465                          on_data_confirm((afDataConfirm_t *)MSGpkt);
    466                          break;
    467          
    468                      case ZDO_STATE_CHANGE:
    469                      {
    470                          devStates_t prev_state = s_nwk_state;
    471          
    472                          s_nwk_state = (devStates_t)MSGpkt->hdr.status;
    473                          (void)sprintf(s_dbg_buf, "[zdo] st=%u\r\n",
    474                                        (unsigned)s_nwk_state);
    475                          dbg_puts(s_dbg_buf);
    476                          if (!s_nwk_joined &&
    477                              prev_state == DEV_INIT &&
    478                              (s_nwk_state == DEV_NWK_DISC ||
    479                               s_nwk_state == DEV_NWK_JOINING ||
    480                               s_nwk_state == DEV_END_DEVICE_UNAUTH)) {
    481                              dbg_line("[boot] restore unavailable, fall back to join flow");
    482                          }
    483                          if (network_joined()) {
    484                              if (!s_nwk_joined &&
    485                                  (prev_state == DEV_NWK_DISC ||
    486                                   prev_state == DEV_NWK_JOINING ||
    487                                   prev_state == DEV_END_DEVICE_UNAUTH ||
    488                                   prev_state == DEV_NWK_REJOIN ||
    489                                   prev_state == DEV_NWK_ORPHAN)) {
    490                                  dbg_line("[zdo] FRESH-JOIN");
    491                              } else {
    492                                  dbg_line("[zdo] RESTORED");
    493                              }
    494                              (void)sprintf(s_dbg_buf, "[zdo] pan=%04X sa=%04X c=%u\r\n",
    495                                            (unsigned)_NIB.nwkPanId,
    496                                            (unsigned)NLME_GetShortAddr(),
    497                                            (unsigned)_NIB.nwkLogicalChannel);
    498                              dbg_puts(s_dbg_buf);
    499                              if (!s_nwk_joined) {
    500                                  s_nwk_joined = 1u;
    501                                  s_link_ready = 0u;
    502                                  s_wait_first_report_cfm = 1u;
    503                                  do_report();
    504                              }
    505                          } else {
    506                              s_nwk_joined = 0u;
    507                              s_link_ready = 0u;
    508                              s_wait_first_report_cfm = 0u;
    509                          }
    510                          status_led_refresh();
    511                          oled_publish();
    512                          break;
    513                      }
    514          
    515                      default:
    516                          break;
    517                      }
    518                      osal_msg_deallocate((uint8 *)MSGpkt);
    519                  }
    520                  return (events ^ SYS_EVENT_MSG);
    521              }
    522          
    523              if (events & ZN_EVT_REPORT) {
   \   00000D   EE           MOV     A,R6
   \   00000E   A2E0         MOV     C,0xE0 /* A   */.0
   \   000010   4003         JC      $+5
   \   000012   02....       LJMP    ??ZbNode_ProcessEvent_1 & 0xFFFF
    524                  do_report();
   \   000015                ; Setup parameters for call to function do_report
   \   000015   12....       LCALL   ??do_report?relay
    525                  return (events ^ ZN_EVT_REPORT);
   \   000018   EE           MOV     A,R6
   \   000019   6401         XRL     A,#0x1
   \                     ??ZbNode_ProcessEvent_2:
   \   00001B   FA           MOV     R2,A
   \   00001C   EF           MOV     A,R7
   \                     ??ZbNode_ProcessEvent_3:
   \   00001D   FB           MOV     R3,A
   \   00001E   02....       LJMP    ??ZbNode_ProcessEvent_4 & 0xFFFF
    526              }
   \                     ??ZbNode_ProcessEvent_5:
   \   000021   12....       LCALL   ?Subroutine11 & 0xFFFF
   \                     ??CrossCallReturnLabel_13:
   \   000024                ; Setup parameters for call to function status_led_refresh
   \   000024   12....       LCALL   ??status_led_refresh?relay
   \   000027                ; Setup parameters for call to function oled_publish
   \   000027   12....       LCALL   ??oled_publish?relay
   \                     ??ZbNode_ProcessEvent_6:
   \   00002A                ; Setup parameters for call to function osal_msg_deallocate
   \   00002A   AA..         MOV     R2,?V0 + 0
   \   00002C   AB..         MOV     R3,?V0 + 1
   \   00002E   12....       LCALL   ??osal_msg_deallocate?relay
   \                     ??ZbNode_ProcessEvent_0:
   \   000031                ; Setup parameters for call to function osal_msg_receive
   \   000031   90....       MOV     DPTR,#ZbNode_TaskID
   \   000034   E0           MOVX    A,@DPTR
   \   000035   F9           MOV     R1,A
   \   000036   12....       LCALL   ??osal_msg_receive?relay
   \   000039   8A..         MOV     ?V0 + 0,R2
   \   00003B   8B..         MOV     ?V0 + 1,R3
   \   00003D   EA           MOV     A,R2
   \   00003E   45..         ORL     A,?V0 + 1
   \   000040   7003         JNZ     $+5
   \   000042   02....       LJMP    ??ZbNode_ProcessEvent_7 & 0xFFFF
   \   000045   8A82         MOV     DPL,R2
   \   000047   8B83         MOV     DPH,R3
   \   000049   E0           MOVX    A,@DPTR
   \   00004A   24E6         ADD     A,#-0x1a
   \   00004C   600A         JZ      ??ZbNode_ProcessEvent_8
   \   00004E   2449         ADD     A,#0x49
   \   000050   6010         JZ      ??ZbNode_ProcessEvent_9
   \   000052   24D4         ADD     A,#-0x2c
   \   000054   6007         JZ      ??ZbNode_ProcessEvent_10
   \   000056   80D2         SJMP    ??ZbNode_ProcessEvent_6
   \                     ??ZbNode_ProcessEvent_8:
   \   000058                ; Setup parameters for call to function on_incoming
   \   000058   12....       LCALL   ??on_incoming?relay
   \   00005B   80CD         SJMP    ??ZbNode_ProcessEvent_6
   \                     ??ZbNode_ProcessEvent_10:
   \   00005D                ; Setup parameters for call to function on_data_confirm
   \   00005D   12....       LCALL   ??on_data_confirm?relay
   \   000060   80C8         SJMP    ??ZbNode_ProcessEvent_6
   \                     ??ZbNode_ProcessEvent_9:
   \   000062   90....       MOV     DPTR,#s_nwk_state
   \   000065   E0           MOVX    A,@DPTR
   \   000066   F5..         MOV     ?V0 + 4,A
   \   000068   8A82         MOV     DPL,R2
   \   00006A   8B83         MOV     DPH,R3
   \   00006C   A3           INC     DPTR
   \   00006D   E0           MOVX    A,@DPTR
   \   00006E   90....       MOV     DPTR,#s_nwk_state
   \   000071   F0           MOVX    @DPTR,A
   \   000072                ; Setup parameters for call to function sprintf
   \   000072   F5..         MOV     ?V0 + 2,A
   \   000074   75..00       MOV     ?V0 + 3,#0x0
   \   000077   78..         MOV     R0,#?V0 + 2
   \   000079   12....       LCALL   ?PUSH_XSTACK_I_TWO
   \   00007C   7C..         MOV     R4,#`?<Constant "[zdo] st=%u\\r\\n">` & 0xff
   \   00007E   7D..         MOV     R5,#(`?<Constant "[zdo] st=%u\\r\\n">` >> 8) & 0xff
   \   000080   7A..         MOV     R2,#s_dbg_buf & 0xff
   \   000082   7B..         MOV     R3,#(s_dbg_buf >> 8) & 0xff
   \   000084   12....       LCALL   ??sprintf?relay
   \   000087   7402         MOV     A,#0x2
   \   000089   12....       LCALL   ?DEALLOC_XSTACK8
   \   00008C                ; Setup parameters for call to function dbg_puts
   \   00008C   7A..         MOV     R2,#s_dbg_buf & 0xff
   \   00008E   7B..         MOV     R3,#(s_dbg_buf >> 8) & 0xff
   \   000090   12....       LCALL   ??dbg_puts?relay
   \   000093   90....       MOV     DPTR,#s_nwk_joined
   \   000096   E0           MOVX    A,@DPTR
   \   000097   701F         JNZ     ??ZbNode_ProcessEvent_11
   \   000099   7401         MOV     A,#0x1
   \   00009B   65..         XRL     A,?V0 + 4
   \   00009D   7019         JNZ     ??ZbNode_ProcessEvent_11
   \   00009F   90....       MOV     DPTR,#s_nwk_state
   \   0000A2   E0           MOVX    A,@DPTR
   \   0000A3   6402         XRL     A,#0x2
   \   0000A5   600A         JZ      ??ZbNode_ProcessEvent_12
   \   0000A7   E0           MOVX    A,@DPTR
   \   0000A8   6403         XRL     A,#0x3
   \   0000AA   6005         JZ      ??ZbNode_ProcessEvent_12
   \   0000AC   E0           MOVX    A,@DPTR
   \   0000AD   6405         XRL     A,#0x5
   \   0000AF   7007         JNZ     ??ZbNode_ProcessEvent_11
   \                     ??ZbNode_ProcessEvent_12:
   \   0000B1                ; Setup parameters for call to function dbg_line
   \   0000B1   7A..         MOV     R2,#`?<Constant "[boot] restore unavai...">` & 0xff
   \   0000B3   7B..         MOV     R3,#(`?<Constant "[boot] restore unavai...">` >> 8) & 0xff
   \   0000B5   12....       LCALL   ??dbg_line?relay
   \                     ??ZbNode_ProcessEvent_11:
   \   0000B8                ; Setup parameters for call to function network_joined
   \   0000B8   12....       LCALL   ??network_joined?relay
   \   0000BB   E9           MOV     A,R1
   \   0000BC   90....       MOV     DPTR,#s_nwk_joined
   \   0000BF   7003         JNZ     $+5
   \   0000C1   02....       LJMP    ??ZbNode_ProcessEvent_5 & 0xFFFF
   \   0000C4   E0           MOVX    A,@DPTR
   \   0000C5   7024         JNZ     ??ZbNode_ProcessEvent_13
   \   0000C7   7402         MOV     A,#0x2
   \   0000C9   65..         XRL     A,?V0 + 4
   \   0000CB   6018         JZ      ??ZbNode_ProcessEvent_14
   \   0000CD   7403         MOV     A,#0x3
   \   0000CF   65..         XRL     A,?V0 + 4
   \   0000D1   6012         JZ      ??ZbNode_ProcessEvent_14
   \   0000D3   7405         MOV     A,#0x5
   \   0000D5   65..         XRL     A,?V0 + 4
   \   0000D7   600C         JZ      ??ZbNode_ProcessEvent_14
   \   0000D9   7404         MOV     A,#0x4
   \   0000DB   65..         XRL     A,?V0 + 4
   \   0000DD   6006         JZ      ??ZbNode_ProcessEvent_14
   \   0000DF   740A         MOV     A,#0xa
   \   0000E1   65..         XRL     A,?V0 + 4
   \   0000E3   7006         JNZ     ??ZbNode_ProcessEvent_13
   \                     ??ZbNode_ProcessEvent_14:
   \   0000E5                ; Setup parameters for call to function dbg_line
   \   0000E5   7A..         MOV     R2,#`?<Constant "[zdo] FRESH-JOIN">` & 0xff
   \   0000E7   7B..         MOV     R3,#(`?<Constant "[zdo] FRESH-JOIN">` >> 8) & 0xff
   \   0000E9   8004         SJMP    ??ZbNode_ProcessEvent_15
   \                     ??ZbNode_ProcessEvent_13:
   \   0000EB                ; Setup parameters for call to function dbg_line
   \   0000EB   7A..         MOV     R2,#`?<Constant "[zdo] RESTORED">` & 0xff
   \   0000ED   7B..         MOV     R3,#(`?<Constant "[zdo] RESTORED">` >> 8) & 0xff
   \                     ??ZbNode_ProcessEvent_15:
   \   0000EF   12....       LCALL   ??dbg_line?relay
   \   0000F2                ; Setup parameters for call to function NLME_GetShortAddr
   \   0000F2   12....       LCALL   ??NLME_GetShortAddr?relay
   \   0000F5   8A..         MOV     ?V0 + 2,R2
   \   0000F7   8B..         MOV     ?V0 + 3,R3
   \   0000F9                ; Setup parameters for call to function sprintf
   \   0000F9   90....       MOV     DPTR,#_NIB + 22
   \   0000FC   E0           MOVX    A,@DPTR
   \   0000FD   F5..         MOV     ?V0 + 4,A
   \   0000FF   75..00       MOV     ?V0 + 5,#0x0
   \   000102   78..         MOV     R0,#?V0 + 4
   \   000104   12....       LCALL   ?PUSH_XSTACK_I_TWO
   \   000107   78..         MOV     R0,#?V0 + 2
   \   000109   12....       LCALL   ?PUSH_XSTACK_I_TWO
   \   00010C   90....       MOV     DPTR,#_NIB + 33
   \   00010F   12....       LCALL   ?PUSH_XSTACK8_X_TWO
   \   000112   7C..         MOV     R4,#`?<Constant "[zdo] pan=%04X sa=%04...">` & 0xff
   \   000114   7D..         MOV     R5,#(`?<Constant "[zdo] pan=%04X sa=%04...">` >> 8) & 0xff
   \   000116   7A..         MOV     R2,#s_dbg_buf & 0xff
   \   000118   7B..         MOV     R3,#(s_dbg_buf >> 8) & 0xff
   \   00011A   12....       LCALL   ??sprintf?relay
   \   00011D   7406         MOV     A,#0x6
   \   00011F   12....       LCALL   ?DEALLOC_XSTACK8
   \   000122                ; Setup parameters for call to function dbg_puts
   \   000122   7A..         MOV     R2,#s_dbg_buf & 0xff
   \   000124   7B..         MOV     R3,#(s_dbg_buf >> 8) & 0xff
   \   000126   12....       LCALL   ??dbg_puts?relay
   \   000129   90....       MOV     DPTR,#s_nwk_joined
   \   00012C   E0           MOVX    A,@DPTR
   \   00012D   6003         JZ      $+5
   \   00012F   02....       LJMP    ??CrossCallReturnLabel_13 & 0xFFFF
   \   000132   7401         MOV     A,#0x1
   \   000134   F0           MOVX    @DPTR,A
   \   000135   90....       MOV     DPTR,#s_link_ready
   \   000138   E4           CLR     A
   \   000139   F0           MOVX    @DPTR,A
   \   00013A   90....       MOV     DPTR,#s_wait_first_report_cfm
   \   00013D   04           INC     A
   \   00013E   F0           MOVX    @DPTR,A
   \   00013F                ; Setup parameters for call to function do_report
   \   00013F   12....       LCALL   ??do_report?relay
   \   000142   02....       LJMP    ??CrossCallReturnLabel_13 & 0xFFFF
   \                     ??ZbNode_ProcessEvent_7:
   \   000145   EE           MOV     A,R6
   \   000146   FA           MOV     R2,A
   \   000147   EF           MOV     A,R7
   \   000148   6480         XRL     A,#0x80
   \   00014A   02....       LJMP    ??ZbNode_ProcessEvent_3 & 0xFFFF
    527          
    528              if (events & ZN_EVT_REPORT_RETRY) {
   \                     ??ZbNode_ProcessEvent_1:
   \   00014D   5402         ANL     A,#0x2
   \   00014F   6009         JZ      ??ZbNode_ProcessEvent_16
    529                  do_report();
   \   000151                ; Setup parameters for call to function do_report
   \   000151   12....       LCALL   ??do_report?relay
    530                  return (events ^ ZN_EVT_REPORT_RETRY);
   \   000154   EE           MOV     A,R6
   \   000155   6402         XRL     A,#0x2
   \   000157   02....       LJMP    ??ZbNode_ProcessEvent_2 & 0xFFFF
    531              }
    532          
    533              if (events & ZN_EVT_STATUS_LED) {
   \                     ??ZbNode_ProcessEvent_16:
   \   00015A   EE           MOV     A,R6
   \   00015B   5404         ANL     A,#0x4
   \   00015D   6015         JZ      ??ZbNode_ProcessEvent_17
    534                  s_status_led_phase++;
   \   00015F   90....       MOV     DPTR,#s_status_led_phase
   \   000162   E0           MOVX    A,@DPTR
   \   000163   04           INC     A
   \   000164   F0           MOVX    @DPTR,A
    535                  status_led_refresh();
   \   000165                ; Setup parameters for call to function status_led_refresh
   \   000165   12....       LCALL   ??status_led_refresh?relay
    536                  /* 100 ms 滴答顺便驱动 OLED：node_oled_view_refresh 内部 model_changed 后才真写屏，
    537                   * 不变化时只是几次比较，开销可忽略。 */
    538                  oled_publish();
   \   000168                ; Setup parameters for call to function oled_publish
   \   000168   12....       LCALL   ??oled_publish?relay
    539                  node_oled_view_refresh();
   \   00016B                ; Setup parameters for call to function node_oled_view_refresh
   \   00016B   12....       LCALL   ??node_oled_view_refresh?relay
    540                  return (events ^ ZN_EVT_STATUS_LED);
   \   00016E   EE           MOV     A,R6
   \   00016F   6404         XRL     A,#0x4
   \   000171   02....       LJMP    ??ZbNode_ProcessEvent_2 & 0xFFFF
    541              }
    542          
    543              return 0;
   \                     ??ZbNode_ProcessEvent_17:
   \   000174   7A00         MOV     R2,#0x0
   \   000176   7B00         MOV     R3,#0x0
   \                     ??ZbNode_ProcessEvent_4:
   \   000178   7F06         MOV     R7,#0x6
   \   00017A   02....       LJMP    ?BANKED_LEAVE_XDATA
    544          }

   \                                 In  segment XDATA_ID, align 1, keep-with-next
   \                     `?<Initializer for <Constant "\\r\\n">>`:
   \   000000   0D0A00       DB "\015\012"

   \                                 In  segment XDATA_ID, align 1, keep-with-next
   \                     `?<Initializer for <Constant "[boot] keep NV ne`:
   \   000000   5B626F6F     DB 5BH, 62H, 6FH, 6FH, 74H, 5DH, 20H, 6BH
   \            745D206B
   \   000008   65657020     DB 65H, 65H, 70H, 20H, 4EH, 56H, 20H, 6EH
   \            4E56206E
   \   000010   6574776F     DB 65H, 74H, 77H, 6FH, 72H, 6BH, 20H, 73H
   \            726B2073
   \   000018   74617465     DB 74H, 61H, 74H, 65H, 2CH, 20H, 74H, 72H
   \            2C207472
   \   000020   79207265     DB 79H, 20H, 72H, 65H, 73H, 74H, 6FH, 72H
   \            73746F72
   \   000028   65206578     DB 65H, 20H, 65H, 78H, 69H, 73H, 74H, 69H
   \            69737469
   \   000030   6E672050     DB 6EH, 67H, 20H, 50H, 41H, 4EH, 0
   \            414E00  

   \                                 In  segment XDATA_ID, align 1, keep-with-next
   \                     `?<Initializer for <Constant "\\r\\n==== Node1 (D`:
   \   000000   0D0A3D3D     DB "\015\012==== Node1 (DHT11) ready, period=2000ms ===="
   \            3D3D204E
   \            6F646531
   \            20284448
   \            54313129
   \            20726561
   \            64792C20
   \            70657269
   \            6F643D32
   \            3030306D
   \            73203D3D
   \            3D3D00  

   \                                 In  segment XDATA_ID, align 1, keep-with-next
   \                     `?<Initializer for <Constant "[n1] T=%s%d.%02d `:
   \   000000   5B6E315D     DB "[n1] T=%s%d.%02d H=%u.%02u\015\012"
   \            20543D25
   \            7325642E
   \            25303264
   \            20483D25
   \            752E2530
   \            32750D0A
   \            00      

   \                                 In  segment XDATA_ID, align 1, keep-with-next
   \                     `?<Initializer for <Constant "-">>`:
   \   000000   2D00         DB "-"

   \                                 In  segment XDATA_ID, align 1, keep-with-next
   \                     `?<Initializer for <Constant "[n1] DHT rc=%d\\r\\`:
   \   000000   5B6E315D     DB "[n1] DHT rc=%d\015\012"
   \            20444854
   \            2072633D
   \            25640D0A
   \            00      

   \                                 In  segment XDATA_ID, align 1, keep-with-next
   \                     `?<Initializer for <Constant "[cfm] first repor`:
   \   000000   5B63666D     DB "[cfm] first report CONFIRMED, link READY"
   \            5D206669
   \            72737420
   \            7265706F
   \            72742043
   \            4F4E4649
   \            524D4544
   \            2C206C69
   \            6E6B2052
   \            45414459
   \            00      

   \                                 In  segment XDATA_ID, align 1, keep-with-next
   \                     `?<Initializer for <Constant "[cfm] OK">>`:
   \   000000   5B63666D     DB "[cfm] OK"
   \            5D204F4B
   \            00      

   \                                 In  segment XDATA_ID, align 1, keep-with-next
   \                     `?<Initializer for <Constant "[cfm] fail=0x%02X`:
   \   000000   5B63666D     DB "[cfm] fail=0x%02X\015\012"
   \            5D206661
   \            696C3D30
   \            78253032
   \            580D0A00

   \                                 In  segment XDATA_ID, align 1, keep-with-next
   \                     `?<Initializer for <Constant "[zdo] st=%u\\r\\n">`:
   \   000000   5B7A646F     DB "[zdo] st=%u\015\012"
   \            5D207374
   \            3D25750D
   \            0A00    

   \                                 In  segment XDATA_ID, align 1, keep-with-next
   \                     `?<Initializer for <Constant "[boot] restore un`:
   \   000000   5B626F6F     DB 5BH, 62H, 6FH, 6FH, 74H, 5DH, 20H, 72H
   \            745D2072
   \   000008   6573746F     DB 65H, 73H, 74H, 6FH, 72H, 65H, 20H, 75H
   \            72652075
   \   000010   6E617661     DB 6EH, 61H, 76H, 61H, 69H, 6CH, 61H, 62H
   \            696C6162
   \   000018   6C652C20     DB 6CH, 65H, 2CH, 20H, 66H, 61H, 6CH, 6CH
   \            66616C6C
   \   000020   20626163     DB 20H, 62H, 61H, 63H, 6BH, 20H, 74H, 6FH
   \            6B20746F
   \   000028   206A6F69     DB 20H, 6AH, 6FH, 69H, 6EH, 20H, 66H, 6CH
   \            6E20666C
   \   000030   6F7700       DB 6FH, 77H, 0

   \                                 In  segment XDATA_ID, align 1, keep-with-next
   \                     `?<Initializer for <Constant "[zdo] FRESH-JOIN"`:
   \   000000   5B7A646F     DB "[zdo] FRESH-JOIN"
   \            5D204652
   \            4553482D
   \            4A4F494E
   \            00      

   \                                 In  segment XDATA_ID, align 1, keep-with-next
   \                     `?<Initializer for <Constant "[zdo] RESTORED">>`:
   \   000000   5B7A646F     DB "[zdo] RESTORED"
   \            5D205245
   \            53544F52
   \            454400  

   \                                 In  segment XDATA_ID, align 1, keep-with-next
   \                     `?<Initializer for <Constant "[zdo] pan=%04X sa`:
   \   000000   5B7A646F     DB "[zdo] pan=%04X sa=%04X c=%u\015\012"
   \            5D207061
   \            6E3D2530
   \            34582073
   \            613D2530
   \            34582063
   \            3D25750D
   \            0A00    

   \                                 In  segment XDATA_ID, align 1, keep-with-next
   \                     `?<Initializer for ZbNode_TaskID>`:
   \   000000   FF           DB 255

   \                                 In  segment XDATA_ID, align 1, keep-with-next
   \                     `?<Initializer for s_in_sensor>`:
   \   000000   0600         DW 6

   \                                 In  segment XDATA_ID, align 1, keep-with-next
   \                     `?<Initializer for s_out_sensor>`:
   \   000000   0204         DW 1026
   \   000002   0504         DW 1029
   \   000004   0600         DW 6

   \                                 In  segment XDATA_ID, align 1, keep-with-next
   \                     `?<Initializer for s_in_buzzer>`:
   \   000000   0600         DW 6

   \                                 In  segment XDATA_ID, align 1, keep-with-next
   \                     `?<Initializer for s_out_buzzer>`:
   \   000000   0600         DW 6

   \                                 In  segment XDATA_ID, align 1, keep-with-next
   \                     `?<Initializer for s_nwk_state>`:
   \   000000   01           DB 1

   \                                 In  segment XDATA_ID, align 1, keep-with-next
   \                     `?<Initializer for s_startup_leds_owned>`:
   \   000000   01           DB 1

   \                                 In  segment BANK_RELAYS, align 1
   \                     ??dbg_puts?relay:
   \   000000   12....       LCALL   ?BDISPATCH
   \   000003   ......       DC24    dbg_puts

   \                                 In  segment BANK_RELAYS, align 1
   \                     ??dbg_line?relay:
   \   000000   12....       LCALL   ?BDISPATCH
   \   000003   ......       DC24    dbg_line

   \                                 In  segment BANK_RELAYS, align 1
   \                     ??oled_publish?relay:
   \   000000   12....       LCALL   ?BDISPATCH
   \   000003   ......       DC24    oled_publish

   \                                 In  segment BANK_RELAYS, align 1
   \                     ??indicator_pin_init?relay:
   \   000000   12....       LCALL   ?BDISPATCH
   \   000003   ......       DC24    indicator_pin_init

   \                                 In  segment BANK_RELAYS, align 1
   \                     ??indicator_pin_set?relay:
   \   000000   12....       LCALL   ?BDISPATCH
   \   000003   ......       DC24    indicator_pin_set

   \                                 In  segment BANK_RELAYS, align 1
   \                     ??network_joined?relay:
   \   000000   12....       LCALL   ?BDISPATCH
   \   000003   ......       DC24    network_joined

   \                                 In  segment BANK_RELAYS, align 1
   \                     ??status_led_refresh?relay:
   \   000000   12....       LCALL   ?BDISPATCH
   \   000003   ......       DC24    status_led_refresh

   \                                 In  segment BANK_RELAYS, align 1
   \                     ??ZbNode_PreInit?relay:
   \   000000   12....       LCALL   ?BDISPATCH
   \   000003   ......       DC24    ZbNode_PreInit

   \                                 In  segment BANK_RELAYS, align 1
   \                     ??network_ready?relay:
   \   000000   12....       LCALL   ?BDISPATCH
   \   000003   ......       DC24    network_ready

   \                                 In  segment BANK_RELAYS, align 1
   \                     ??note_local_sample_failure?relay:
   \   000000   12....       LCALL   ?BDISPATCH
   \   000003   ......       DC24    note_local_sample_failure

   \                                 In  segment BANK_RELAYS, align 1
   \                     ??note_transport_failure?relay:
   \   000000   12....       LCALL   ?BDISPATCH
   \   000003   ......       DC24    note_transport_failure

   \                                 In  segment BANK_RELAYS, align 1
   \                     ??send_attr_report?relay:
   \   000000   12....       LCALL   ?BDISPATCH
   \   000003   ......       DC24    send_attr_report

   \                                 In  segment BANK_RELAYS, align 1
   \                     ??register_endpoints?relay:
   \   000000   12....       LCALL   ?BDISPATCH
   \   000003   ......       DC24    register_endpoints

   \                                 In  segment BANK_RELAYS, align 1
   \                     ??ZbNode_Init?relay:
   \   000000   12....       LCALL   ?BDISPATCH
   \   000003   ......       DC24    ZbNode_Init

   \                                 In  segment BANK_RELAYS, align 1
   \                     ??do_report?relay:
   \   000000   12....       LCALL   ?BDISPATCH
   \   000003   ......       DC24    do_report

   \                                 In  segment BANK_RELAYS, align 1
   \                     ??on_incoming?relay:
   \   000000   12....       LCALL   ?BDISPATCH
   \   000003   ......       DC24    on_incoming

   \                                 In  segment BANK_RELAYS, align 1
   \                     ??on_data_confirm?relay:
   \   000000   12....       LCALL   ?BDISPATCH
   \   000003   ......       DC24    on_data_confirm

   \                                 In  segment BANK_RELAYS, align 1
   \                     ??ZbNode_ProcessEvent?relay:
   \   000000   12....       LCALL   ?BDISPATCH
   \   000003   ......       DC24    ZbNode_ProcessEvent

   \                                 In  segment XDATA_Z, align 1, keep-with-next
   \                     `?<Constant "">`:
   \   000000                DS 1
   \   000001                REQUIRE __INIT_XDATA_Z

   \                                 In  segment XDATA_I, align 1, keep-with-next
   \                     `?<Constant "\\r\\n">`:
   \   000000                DS 3
   \   000003                REQUIRE `?<Initializer for <Constant "\\r\\n">>`
   \   000003                REQUIRE __INIT_XDATA_I

   \                                 In  segment XDATA_I, align 1, keep-with-next
   \                     `?<Constant "[boot] keep NV networ...">`:
   \   000000                DS 55
   \   000037                REQUIRE `?<Initializer for <Constant "[boot] keep NV ne`
   \   000037                REQUIRE __INIT_XDATA_I

   \                                 In  segment XDATA_I, align 1, keep-with-next
   \                     `?<Constant "\\r\\n==== Node1 (DHT11) ...">`:
   \   000000                DS 47
   \   00002F                REQUIRE `?<Initializer for <Constant "\\r\\n==== Node1 (D`
   \   00002F                REQUIRE __INIT_XDATA_I

   \                                 In  segment XDATA_I, align 1, keep-with-next
   \                     `?<Constant "[n1] T=%s%d.%02d H=%u...">`:
   \   000000                DS 29
   \   00001D                REQUIRE `?<Initializer for <Constant "[n1] T=%s%d.%02d `
   \   00001D                REQUIRE __INIT_XDATA_I

   \                                 In  segment XDATA_I, align 1, keep-with-next
   \                     `?<Constant "-">`:
   \   000000                DS 2
   \   000002                REQUIRE `?<Initializer for <Constant "-">>`
   \   000002                REQUIRE __INIT_XDATA_I

   \                                 In  segment XDATA_I, align 1, keep-with-next
   \                     `?<Constant "[n1] DHT rc=%d\\r\\n">`:
   \   000000                DS 17
   \   000011                REQUIRE `?<Initializer for <Constant "[n1] DHT rc=%d\\r\\`
   \   000011                REQUIRE __INIT_XDATA_I

   \                                 In  segment XDATA_I, align 1, keep-with-next
   \                     `?<Constant "[cfm] first report CO...">`:
   \   000000                DS 41
   \   000029                REQUIRE `?<Initializer for <Constant "[cfm] first repor`
   \   000029                REQUIRE __INIT_XDATA_I

   \                                 In  segment XDATA_I, align 1, keep-with-next
   \                     `?<Constant "[cfm] OK">`:
   \   000000                DS 9
   \   000009                REQUIRE `?<Initializer for <Constant "[cfm] OK">>`
   \   000009                REQUIRE __INIT_XDATA_I

   \                                 In  segment XDATA_I, align 1, keep-with-next
   \                     `?<Constant "[cfm] fail=0x%02X\\r\\n">`:
   \   000000                DS 20
   \   000014                REQUIRE `?<Initializer for <Constant "[cfm] fail=0x%02X`
   \   000014                REQUIRE __INIT_XDATA_I

   \                                 In  segment XDATA_I, align 1, keep-with-next
   \                     `?<Constant "[zdo] st=%u\\r\\n">`:
   \   000000                DS 14
   \   00000E                REQUIRE `?<Initializer for <Constant "[zdo] st=%u\\r\\n">`
   \   00000E                REQUIRE __INIT_XDATA_I

   \                                 In  segment XDATA_I, align 1, keep-with-next
   \                     `?<Constant "[boot] restore unavai...">`:
   \   000000                DS 51
   \   000033                REQUIRE `?<Initializer for <Constant "[boot] restore un`
   \   000033                REQUIRE __INIT_XDATA_I

   \                                 In  segment XDATA_I, align 1, keep-with-next
   \                     `?<Constant "[zdo] FRESH-JOIN">`:
   \   000000                DS 17
   \   000011                REQUIRE `?<Initializer for <Constant "[zdo] FRESH-JOIN"`
   \   000011                REQUIRE __INIT_XDATA_I

   \                                 In  segment XDATA_I, align 1, keep-with-next
   \                     `?<Constant "[zdo] RESTORED">`:
   \   000000                DS 15
   \   00000F                REQUIRE `?<Initializer for <Constant "[zdo] RESTORED">>`
   \   00000F                REQUIRE __INIT_XDATA_I

   \                                 In  segment XDATA_I, align 1, keep-with-next
   \                     `?<Constant "[zdo] pan=%04X sa=%04...">`:
   \   000000                DS 30
   \   00001E                REQUIRE `?<Initializer for <Constant "[zdo] pan=%04X sa`
   \   00001E                REQUIRE __INIT_XDATA_I

   Maximum stack usage in bytes:

     Function                       ISTACK PSTACK XSTACK
     --------                       ------ ------ ------
     ZbNode_Init                        0      0     38
       -> osal_memset                   0      0     76
       -> osal_memset                   0      0     76
       -> HalUARTOpen                   0      0     76
       -> actuator_init                 0      0     76
       -> dht11_init                    0      0     76
       -> register_endpoints            0      0     76
       -> node_oled_view_init           0      0     76
       -> oled_publish                  0      0     76
       -> node_oled_view_refresh        0      0     76
       -> osal_start_reload_timer       0      0     76
       -> osal_start_reload_timer       0      0     76
       -> status_led_refresh            0      0     76
       -> dbg_line                      0      0     76
     ZbNode_PreInit                     2      0      0
       -> indicator_pin_init            4      0      0
       -> indicator_pin_init            4      0      0
       -> indicator_pin_init            4      0      0
       -> status_led_refresh            4      0      0
       -> dbg_line                      4      0      0
     ZbNode_ProcessEvent                0      0     20
       -> do_report                     0      0     28
       -> status_led_refresh            0      0     28
       -> oled_publish                  0      0     28
       -> osal_msg_deallocate           0      0     28
       -> osal_msg_receive              0      0     28
       -> on_incoming                   0      0     28
       -> on_data_confirm               0      0     28
       -> sprintf                       0      0     32
       -> dbg_puts                      0      0     28
       -> dbg_line                      0      0     28
       -> network_joined                0      0     28
       -> dbg_line                      0      0     28
       -> dbg_line                      0      0     28
       -> NLME_GetShortAddr             0      0     28
       -> sprintf                       0      0     40
       -> dbg_puts                      0      0     28
       -> do_report                     0      0     28
       -> do_report                     0      0     28
       -> status_led_refresh            0      0     28
       -> oled_publish                  0      0     28
       -> node_oled_view_refresh        0      0     28
     dbg_line                           2      0     38
       -> dbg_puts                      4      0      0
       -> dbg_puts                      4      0      0
     dbg_puts                           0      0     26
       -> strlen                        0      0     20
       -> HalUARTWrite                  0      0     20
     do_report                          0      0     40
       -> network_ready                 0      0     32
       -> dht11_read                    0      0     32
       -> sprintf                       0      0     52
       -> dbg_puts                      0      0     32
       -> send_attr_report              0      0     40
       -> send_attr_report              0      0     40
       -> sprintf                       0      0     36
       -> dbg_puts                      0      0     32
       -> note_local_sample_failure     0      0     32
       -> oled_publish                  0      0     32
     indicator_pin_init                 2      0      0
     indicator_pin_set                  2      0      9
     network_joined                     2      0     14
     network_ready                      2      0     16
       -> network_joined                4      0      0
     note_local_sample_failure          2      0     16
     note_transport_failure             0      0     20
       -> note_local_sample_failure     0      0     18
       -> network_ready                 0      0     18
       -> osal_start_timerEx            0      0     18
     oled_publish                       2      0     38
       -> network_ready                 4      0      0
       -> NLME_GetShortAddr             4      0      0
       -> actuator_led_state            4      0      0
       -> actuator_buzzer_state         4      0      0
       -> node_oled_view_set            4      0      0
     on_data_confirm                    0      0     26
       -> dbg_line                      0      0     20
       -> status_led_refresh            0      0     20
       -> dbg_line                      0      0     20
       -> sprintf                       0      0     24
       -> dbg_puts                      0      0     20
       -> note_transport_failure        0      0     20
     on_incoming                        1      0     31
       -> actuator_led_set              0      0     26
       -> actuator_led_state            0      0     26
       -> actuator_buzzer_state         0      0     26
       -> actuator_buzzer_set           0      0     26
       -> zcl_default_response          0      0     28
       -> send_attr_report              0      0     34
       -> oled_publish                  0      0     26
     register_endpoints                 2      0     38
       -> afRegister                    4      0      0
       -> afRegister                    4      0      0
     send_attr_report                   0      0     35
       -> zcl_report_send               0      0     30
       -> note_transport_failure        0      0     22
     status_led_refresh                 0      0     47
       -> indicator_pin_set             0      0     18
       -> indicator_pin_set             0      0     18
       -> actuator_led_set              0      0     18
       -> indicator_pin_set             0      0     18
       -> network_joined                0      0     18
       -> actuator_led_set              0      0     18
       -> indicator_pin_set             0      0     18
       -> actuator_led_set              0      0     18
       -> indicator_pin_set             0      0     18
       -> actuator_led_set              0      0     18
       -> indicator_pin_set             0      0     18


   Segment part sizes:

     Function/Label                                 Bytes
     --------------                                 -----
     _A_P1                                             1
     P1SEL                                             1
     P1DIR                                             1
     s_dbg_buf                                        32
     dbg_puts                                         33
     ?Subroutine0                                      5
     dbg_line                                         17
     ?Subroutine1                                      7
     ZbNode_TaskID                                     1
     s_ep1                                             6
     s_ep2                                             6
     s_sd1                                            12
     s_sd2                                            12
     s_in_sensor                                       2
     s_out_sensor                                      6
     s_in_buzzer                                       2
     s_out_buzzer                                      2
     s_nwk_joined                                      1
     s_link_ready                                      1
     s_wait_first_report_cfm                           1
     s_nwk_state                                       1
     s_report_diag                                     6
     s_status_led_phase                                1
     s_startup_leds_owned                              1
     s_oled_model                                     14
     oled_publish                                     64
     indicator_pin_init                               25
     ?Subroutine2                                      7
     indicator_pin_set                                32
     network_joined                                   31
     status_led_refresh                              146
     ?Subroutine3                                      5
     ZbNode_PreInit                                   41
     ?Subroutine6                                     13
     ?Subroutine11                                    11
     network_ready                                    24
     note_local_sample_failure                        21
     note_transport_failure                           33
     send_attr_report                                 88
     register_endpoints                              111
     ?Subroutine7                                     11
     ?Subroutine5                                     21
     ZbNode_Init                                     221
     do_report                                       408
     ?Subroutine4                                      8
     ?Subroutine9                                     17
     ?Subroutine8                                      8
     ?Subroutine12                                     6
     on_incoming                                     252
     ?Subroutine10                                    14
     on_data_confirm                                 143
     ZbNode_ProcessEvent                             381
     ?<Initializer for <Constant "\r\n">>              3
     ?<Initializer for <Constant "[boot] keep NV ne   55
     ?<Initializer for <Constant "\r\n==== Node1 (D   47
     ?<Initializer for <Constant "[n1] T=%s%d.%02d    29
     ?<Initializer for <Constant "-">>                 2
     ?<Initializer for <Constant "[n1] DHT rc=%d\r\   17
     ?<Initializer for <Constant "[cfm] first repor   41
     ?<Initializer for <Constant "[cfm] OK">>          9
     ?<Initializer for <Constant "[cfm] fail=0x%02X   20
     ?<Initializer for <Constant "[zdo] st=%u\r\n">   14
     ?<Initializer for <Constant "[boot] restore un   51
     ?<Initializer for <Constant "[zdo] FRESH-JOIN"   17
     ?<Initializer for <Constant "[zdo] RESTORED">>   15
     ?<Initializer for <Constant "[zdo] pan=%04X sa   30
     ?<Initializer for ZbNode_TaskID>                  1
     ?<Initializer for s_in_sensor>                    2
     ?<Initializer for s_out_sensor>                   6
     ?<Initializer for s_in_buzzer>                    2
     ?<Initializer for s_out_buzzer>                   2
     ?<Initializer for s_nwk_state>                    1
     ?<Initializer for s_startup_leds_owned>           1
     ??dbg_puts?relay                                  6
     ??dbg_line?relay                                  6
     ??oled_publish?relay                              6
     ??indicator_pin_init?relay                        6
     ??indicator_pin_set?relay                         6
     ??network_joined?relay                            6
     ??status_led_refresh?relay                        6
     ??ZbNode_PreInit?relay                            6
     ??network_ready?relay                             6
     ??note_local_sample_failure?relay                 6
     ??note_transport_failure?relay                    6
     ??send_attr_report?relay                          6
     ??register_endpoints?relay                        6
     ??ZbNode_Init?relay                               6
     ??do_report?relay                                 6
     ??on_incoming?relay                               6
     ??on_data_confirm?relay                           6
     ??ZbNode_ProcessEvent?relay                       6
     ?<Constant "">                                    1
     ?<Constant "\r\n">                                3
     ?<Constant "[boot] keep NV networ...">           55
     ?<Constant "\r\n==== Node1 (DHT11) ...">         47
     ?<Constant "[n1] T=%s%d.%02d H=%u...">           29
     ?<Constant "-">                                   2
     ?<Constant "[n1] DHT rc=%d\r\n">                 17
     ?<Constant "[cfm] first report CO...">           41
     ?<Constant "[cfm] OK">                            9
     ?<Constant "[cfm] fail=0x%02X\r\n">              20
     ?<Constant "[zdo] st=%u\r\n">                    14
     ?<Constant "[boot] restore unavai...">           51
     ?<Constant "[zdo] FRESH-JOIN">                   17
     ?<Constant "[zdo] RESTORED">                     15
     ?<Constant "[zdo] pan=%04X sa=%04...">           30

 
 2 204 bytes in segment BANKED_CODE
   108 bytes in segment BANK_RELAYS
     3 bytes in segment SFR_AN
   365 bytes in segment XDATA_I
   365 bytes in segment XDATA_ID
    93 bytes in segment XDATA_Z
 
 2 677 bytes of CODE  memory
     0 bytes of DATA  memory (+ 3 bytes shared)
   458 bytes of XDATA memory

Errors: none
Warnings: 1
