///////////////////////////////////////////////////////////////////////////////
//                                                                            /
// IAR C/C++ Compiler V8.10.3.10338/W32 for 8051        21/Apr/2026  20:41:00 /
// Copyright 2004-2011 IAR Systems AB.                                        /
//                                                                            /
//    Core               =  plain                                             /
//    Code model         =  banked                                            /
//    Data model         =  large                                             /
//    Calling convention =  xdata reentrant                                   /
//    Constant location  =  data                                              /
//    Dptr setup         =  1,16                                              /
//    Source file        =  D:\ZNJJ\ZStack-CC2530-2.5.1a\Projects\zstack\Samp /
//                          les\ZbNode\Source\zb_node.c                       /
//    Command line       =  -f D:\ZNJJ\ZStack-CC2530-2.5.1a\Projects\zstack\S /
//                          amples\ZbNode\CC2530DB\..\..\..\Tools\CC2530DB\f8 /
//                          wEndev.cfg (-DCPU32MHZ -DROOT=__near_func         /
//                          -DMAC_CFG_TX_DATA_MAX=3 -DMAC_CFG_TX_MAX=6        /
//                          -DMAC_CFG_RX_MAX=3) -f D:\ZNJJ\ZStack-CC2530-2.5. /
//                          1a\Projects\zstack\Samples\ZbNode\CC2530DB\..\..\ /
//                          ..\Tools\CC2530DB\f8wConfig.cfg (-DZIGBEEPRO      /
//                          -DSECURE=0 -DZG_SECURE_DYNAMIC=0 -DREFLECTOR      /
//                          -DDEFAULT_CHANLIST=0x00000800                     /
//                          -DZDAPP_CONFIG_PAN_ID=0xFFFF                      /
//                          -DNWK_START_DELAY=100 -DEXTENDED_JOINING_RANDOM_M /
//                          ASK=0x007F -DBEACON_REQUEST_DELAY=100             /
//                          -DBEACON_REQ_DELAY_MASK=0x00FF                    /
//                          -DLINK_STATUS_JITTER_MASK=0x007F                  /
//                          -DROUTE_EXPIRY_TIME=30 -DAPSC_ACK_WAIT_DURATION_P /
//                          OLLED=3000 -DNWK_INDIRECT_MSG_TIMEOUT=7           /
//                          -DMAX_RREQ_ENTRIES=8 -DAPSC_MAX_FRAME_RETRIES=3   /
//                          -DNWK_MAX_DATA_RETRIES=2                          /
//                          -DMAX_POLL_FAILURE_RETRIES=2 -DMAX_BCAST=9        /
//                          -DAPS_MAX_GROUPS=16 -DMAX_RTG_ENTRIES=40          /
//                          -DNWK_MAX_BINDING_ENTRIES=4                       /
//                          -DMAX_BINDING_CLUSTER_IDS=4                       /
//                          "-DDEFAULT_KEY={0x01, 0x03, 0x05, 0x07, 0x09,     /
//                          0x0B, 0x0D, 0x0F, 0x00, 0x02, 0x04, 0x06, 0x08,   /
//                          0x0A, 0x0C, 0x0D}" -DMAC_MAX_FRAME_SIZE=116       /
//                          -DZDNWKMGR_MIN_TRANSMISSIONS=20 "-DCONST=const    /
//                          __code" -DGENERIC=__generic                       /
//                          -DRFD_RCVC_ALWAYS_ON=FALSE -DPOLL_RATE=200        /
//                          -DQUEUED_POLL_RATE=50 -DRESPONSE_POLL_RATE=50     /
//                          -DREJOIN_POLL_RATE=440)                           /
//                          D:\ZNJJ\ZStack-CC2530-2.5.1a\Projects\zstack\Samp /
//                          les\ZbNode\Source\zb_node.c -D NWK_AUTO_POLL -D   /
//                          NODE_ROLE=1 -D HAL_UART=TRUE -D HAL_LCD=FALSE     /
//                          -lC D:\ZNJJ\ZStack-CC2530-2.5.1a\Projects\zstack\ /
//                          Samples\ZbNode\CC2530DB\Node1_EndDeviceEB\List\   /
//                          -lA D:\ZNJJ\ZStack-CC2530-2.5.1a\Projects\zstack\ /
//                          Samples\ZbNode\CC2530DB\Node1_EndDeviceEB\List\   /
//                          --diag_suppress Pe001,Pa010 -o                    /
//                          D:\ZNJJ\ZStack-CC2530-2.5.1a\Projects\zstack\Samp /
//                          les\ZbNode\CC2530DB\Node1_EndDeviceEB\Obj\ -e     /
//                          --no_code_motion --debug --core=plain             /
//                          --dptr=16,1 --data_model=large                    /
//                          --code_model=banked --calling_convention=xdata_re /
//                          entrant --place_constants=data --nr_virtual_regs  /
//                          16 -I D:\ZNJJ\ZStack-CC2530-2.5.1a\Projects\zstac /
//                          k\Samples\ZbNode\CC2530DB\ -I                     /
//                          D:\ZNJJ\ZStack-CC2530-2.5.1a\Projects\zstack\Samp /
//                          les\ZbNode\CC2530DB\..\Source\ -I                 /
//                          D:\ZNJJ\ZStack-CC2530-2.5.1a\Projects\zstack\Samp /
//                          les\ZbNode\CC2530DB\..\..\..\ZMain\TI2530DB\ -I   /
//                          D:\ZNJJ\ZStack-CC2530-2.5.1a\Projects\zstack\Samp /
//                          les\ZbNode\CC2530DB\..\..\..\..\..\Components\hal /
//                          \include\ -I D:\ZNJJ\ZStack-CC2530-2.5.1a\Project /
//                          s\zstack\Samples\ZbNode\CC2530DB\..\..\..\..\..\C /
//                          omponents\hal\target\CC2530EB\ -I                 /
//                          D:\ZNJJ\ZStack-CC2530-2.5.1a\Projects\zstack\Samp /
//                          les\ZbNode\CC2530DB\..\..\..\..\..\Components\mac /
//                          \include\ -I D:\ZNJJ\ZStack-CC2530-2.5.1a\Project /
//                          s\zstack\Samples\ZbNode\CC2530DB\..\..\..\..\..\C /
//                          omponents\mac\high_level\ -I                      /
//                          D:\ZNJJ\ZStack-CC2530-2.5.1a\Projects\zstack\Samp /
//                          les\ZbNode\CC2530DB\..\..\..\..\..\Components\mac /
//                          \low_level\srf04\ -I D:\ZNJJ\ZStack-CC2530-2.5.1a /
//                          \Projects\zstack\Samples\ZbNode\CC2530DB\..\..\.. /
//                          \..\..\Components\mac\low_level\srf04\single_chip /
//                          \ -I D:\ZNJJ\ZStack-CC2530-2.5.1a\Projects\zstack /
//                          \Samples\ZbNode\CC2530DB\..\..\..\..\..\Component /
//                          s\mt\ -I D:\ZNJJ\ZStack-CC2530-2.5.1a\Projects\zs /
//                          tack\Samples\ZbNode\CC2530DB\..\..\..\..\..\Compo /
//                          nents\osal\include\ -I D:\ZNJJ\ZStack-CC2530-2.5. /
//                          1a\Projects\zstack\Samples\ZbNode\CC2530DB\..\..\ /
//                          ..\..\..\Components\services\saddr\ -I            /
//                          D:\ZNJJ\ZStack-CC2530-2.5.1a\Projects\zstack\Samp /
//                          les\ZbNode\CC2530DB\..\..\..\..\..\Components\ser /
//                          vices\sdata\ -I D:\ZNJJ\ZStack-CC2530-2.5.1a\Proj /
//                          ects\zstack\Samples\ZbNode\CC2530DB\..\..\..\..\. /
//                          .\Components\stack\af\ -I                         /
//                          D:\ZNJJ\ZStack-CC2530-2.5.1a\Projects\zstack\Samp /
//                          les\ZbNode\CC2530DB\..\..\..\..\..\Components\sta /
//                          ck\nwk\ -I D:\ZNJJ\ZStack-CC2530-2.5.1a\Projects\ /
//                          zstack\Samples\ZbNode\CC2530DB\..\..\..\..\..\Com /
//                          ponents\stack\sapi\ -I D:\ZNJJ\ZStack-CC2530-2.5. /
//                          1a\Projects\zstack\Samples\ZbNode\CC2530DB\..\..\ /
//                          ..\..\..\Components\stack\sec\ -I                 /
//                          D:\ZNJJ\ZStack-CC2530-2.5.1a\Projects\zstack\Samp /
//                          les\ZbNode\CC2530DB\..\..\..\..\..\Components\sta /
//                          ck\sys\ -I D:\ZNJJ\ZStack-CC2530-2.5.1a\Projects\ /
//                          zstack\Samples\ZbNode\CC2530DB\..\..\..\..\..\Com /
//                          ponents\stack\zdo\ -I D:\ZNJJ\ZStack-CC2530-2.5.1 /
//                          a\Projects\zstack\Samples\ZbNode\CC2530DB\..\..\. /
//                          .\..\..\Components\zmac\ -I                       /
//                          D:\ZNJJ\ZStack-CC2530-2.5.1a\Projects\zstack\Samp /
//                          les\ZbNode\CC2530DB\..\..\..\..\..\Components\zma /
//                          c\f8w\ -Ohz --require_prototypes                  /
//    List file          =  D:\ZNJJ\ZStack-CC2530-2.5.1a\Projects\zstack\Samp /
//                          les\ZbNode\CC2530DB\Node1_EndDeviceEB\List\zb_nod /
//                          e.s51                                             /
//                                                                            /
//                                                                            /
///////////////////////////////////////////////////////////////////////////////

        NAME zb_node

        RTMODEL "__SystemLibrary", "CLib"
        RTMODEL "__calling_convention", "xdata_reentrant"
        RTMODEL "__code_model", "banked"
        RTMODEL "__core", "plain"
        RTMODEL "__data_model", "large"
        RTMODEL "__dptr_size", "16"
        RTMODEL "__extended_stack", "disabled"
        RTMODEL "__location_for_constants", "data"
        RTMODEL "__number_of_dptrs", "1"
        RTMODEL "__rt_version", "1"

        RSEG DOVERLAY:DATA:NOROOT(0)
        RSEG IOVERLAY:IDATA:NOROOT(0)
        RSEG ISTACK:IDATA:NOROOT(0)
        RSEG PSTACK:XDATA:NOROOT(0)
        RSEG XSTACK:XDATA:NOROOT(0)

        EXTERN ?ALLOC_XSTACK8
        EXTERN ?BANKED_ENTER_XDATA
        EXTERN ?BANKED_LEAVE_XDATA
        EXTERN ?BDISPATCH
        EXTERN ?BRET
        EXTERN ?DEALLOC_XSTACK8
        EXTERN ?PUSH_XSTACK8_X_TWO
        EXTERN ?PUSH_XSTACK_I_ONE
        EXTERN ?PUSH_XSTACK_I_TWO
        EXTERN ?S_DIV_MOD
        EXTERN ?S_SHL
        EXTERN ?US_DIV_MOD
        EXTERN ?V0
        EXTERN ?XSP
        EXTERN ?XSTACK_DISP0_8
        EXTERN __INIT_XDATA_I
        EXTERN __INIT_XDATA_Z

        PUBLIC ??ZbNode_Init?relay
        FUNCTION ??ZbNode_Init?relay,0203H
        PUBLIC ??ZbNode_PreInit?relay
        FUNCTION ??ZbNode_PreInit?relay,0203H
        PUBLIC ??ZbNode_ProcessEvent?relay
        FUNCTION ??ZbNode_ProcessEvent?relay,0203H
        FUNCTION ??dbg_line?relay,0203H
        FUNCTION ??dbg_puts?relay,0203H
        FUNCTION ??do_report?relay,0203H
        FUNCTION ??indicator_pin_init?relay,0203H
        FUNCTION ??indicator_pin_set?relay,0203H
        FUNCTION ??network_joined?relay,0203H
        FUNCTION ??network_ready?relay,0203H
        FUNCTION ??note_local_sample_failure?relay,0203H
        FUNCTION ??note_transport_failure?relay,0203H
        FUNCTION ??oled_publish?relay,0203H
        FUNCTION ??on_data_confirm?relay,0203H
        FUNCTION ??on_incoming?relay,0203H
        FUNCTION ??register_endpoints?relay,0203H
        FUNCTION ??send_attr_report?relay,0203H
        FUNCTION ??status_led_refresh?relay,0203H
        PUBWEAK P1DIR
        PUBWEAK P1SEL
        PUBLIC ZbNode_Init
        FUNCTION ZbNode_Init,021203H
        ARGFRAME XSTACK, 0, STACK
        LOCFRAME XSTACK, 38, STACK
        PUBLIC ZbNode_PreInit
        FUNCTION ZbNode_PreInit,021203H
        ARGFRAME XSTACK, 0, STACK
        LOCFRAME ISTACK, 2, STACK
        PUBLIC ZbNode_ProcessEvent
        FUNCTION ZbNode_ProcessEvent,021203H
        ARGFRAME XSTACK, 0, STACK
        LOCFRAME XSTACK, 20, STACK
        PUBLIC ZbNode_TaskID
        PUBWEAK _A_P1
        FUNCTION dbg_line,021203H
        ARGFRAME XSTACK, 38, STACK
        ARGFRAME IOVERLAY, 0, STATIC
        ARGFRAME DOVERLAY, 0, STATIC
        LOCFRAME ISTACK, 2, STACK
        FUNCTION dbg_puts,021203H
        ARGFRAME XSTACK, 16, STACK
        ARGFRAME IOVERLAY, 0, STATIC
        ARGFRAME DOVERLAY, 0, STATIC
        LOCFRAME XSTACK, 10, STACK
        FUNCTION do_report,021203H
        ARGFRAME XSTACK, 14, STACK
        ARGFRAME IOVERLAY, 0, STATIC
        ARGFRAME DOVERLAY, 0, STATIC
        LOCFRAME XSTACK, 26, STACK
        FUNCTION indicator_pin_init,0203H
        ARGFRAME XSTACK, 0, STACK
        ARGFRAME IOVERLAY, 0, STATIC
        ARGFRAME DOVERLAY, 0, STATIC
        LOCFRAME ISTACK, 2, STACK
        FUNCTION indicator_pin_set,0203H
        ARGFRAME XSTACK, 9, STACK
        ARGFRAME IOVERLAY, 0, STATIC
        ARGFRAME DOVERLAY, 0, STATIC
        LOCFRAME ISTACK, 2, STACK
        FUNCTION network_joined,0203H
        ARGFRAME XSTACK, 14, STACK
        ARGFRAME IOVERLAY, 0, STATIC
        ARGFRAME DOVERLAY, 0, STATIC
        LOCFRAME ISTACK, 2, STACK
        FUNCTION network_ready,021203H
        ARGFRAME XSTACK, 16, STACK
        ARGFRAME IOVERLAY, 0, STATIC
        ARGFRAME DOVERLAY, 0, STATIC
        LOCFRAME ISTACK, 2, STACK
        FUNCTION note_local_sample_failure,0203H
        ARGFRAME XSTACK, 16, STACK
        ARGFRAME IOVERLAY, 0, STATIC
        ARGFRAME DOVERLAY, 0, STATIC
        LOCFRAME ISTACK, 2, STACK
        FUNCTION note_transport_failure,021203H
        ARGFRAME XSTACK, 11, STACK
        ARGFRAME IOVERLAY, 0, STATIC
        ARGFRAME DOVERLAY, 0, STATIC
        LOCFRAME XSTACK, 9, STACK
        FUNCTION oled_publish,021203H
        ARGFRAME XSTACK, 38, STACK
        ARGFRAME IOVERLAY, 0, STATIC
        ARGFRAME DOVERLAY, 0, STATIC
        LOCFRAME ISTACK, 2, STACK
        FUNCTION on_data_confirm,021203H
        ARGFRAME XSTACK, 14, STACK
        ARGFRAME IOVERLAY, 0, STATIC
        ARGFRAME DOVERLAY, 0, STATIC
        LOCFRAME XSTACK, 12, STACK
        FUNCTION on_incoming,021203H
        ARGFRAME XSTACK, 14, STACK
        ARGFRAME IOVERLAY, 0, STATIC
        ARGFRAME DOVERLAY, 0, STATIC
        LOCFRAME ISTACK, 1, STACK
        LOCFRAME XSTACK, 17, STACK
        FUNCTION register_endpoints,021203H
        ARGFRAME XSTACK, 38, STACK
        ARGFRAME IOVERLAY, 0, STATIC
        ARGFRAME DOVERLAY, 0, STATIC
        LOCFRAME ISTACK, 2, STACK
        FUNCTION send_attr_report,021203H
        ARGFRAME XSTACK, 20, STACK
        ARGFRAME IOVERLAY, 0, STATIC
        ARGFRAME DOVERLAY, 0, STATIC
        LOCFRAME XSTACK, 15, STACK
        FUNCTION status_led_refresh,021203H
        ARGFRAME XSTACK, 38, STACK
        ARGFRAME IOVERLAY, 0, STATIC
        ARGFRAME DOVERLAY, 0, STATIC
        LOCFRAME XSTACK, 9, STACK
        
        CFI Names cfiNames0
        CFI StackFrame CFA_SP SP IDATA
        CFI StackFrame CFA_PSP16 PSP16 XDATA
        CFI StackFrame CFA_XSP16 XSP16 XDATA
        CFI StaticOverlayFrame CFA_IOVERLAY IOVERLAY
        CFI StaticOverlayFrame CFA_DOVERLAY DOVERLAY
        CFI Resource `PSW.CY`:1, `B.BR0`:1, `B.BR1`:1, `B.BR2`:1, `B.BR3`:1
        CFI Resource `B.BR4`:1, `B.BR5`:1, `B.BR6`:1, `B.BR7`:1, `VB.BR8`:1
        CFI Resource `VB.BR9`:1, `VB.BR10`:1, `VB.BR11`:1, `VB.BR12`:1
        CFI Resource `VB.BR13`:1, `VB.BR14`:1, `VB.BR15`:1, VB:8, B:8, A:8
        CFI Resource PSW:8, DPL0:8, DPH0:8, R0:8, R1:8, R2:8, R3:8, R4:8, R5:8
        CFI Resource R6:8, R7:8, V0:8, V1:8, V2:8, V3:8, V4:8, V5:8, V6:8, V7:8
        CFI Resource V8:8, V9:8, V10:8, V11:8, V12:8, V13:8, V14:8, V15:8, SP:8
        CFI Resource PSPH:8, PSPL:8, PSP16:16, XSPH:8, XSPL:8, XSP16:16
        CFI VirtualResource ?RET:24
        CFI Resource ?BRET_EXT:8
        CFI VirtualResource ?RET_HIGH:8, ?RET_LOW:8
        CFI ResourceParts PSP16 PSPH, PSPL
        CFI ResourceParts XSP16 XSPH, XSPL
        CFI ResourceParts ?RET ?BRET_EXT, ?RET_HIGH, ?RET_LOW
        CFI EndNames cfiNames0
        
        CFI Common cfiCommon0 Using cfiNames0
        CFI CodeAlign 1
        CFI DataAlign -1
        CFI ReturnAddress ?RET CODE
        CFI CFA_DOVERLAY Used
        CFI CFA_IOVERLAY Used
        CFI CFA_SP SP+-3
        CFI CFA_PSP16 PSP16+0
        CFI CFA_XSP16 XSP16+0
        CFI `PSW.CY` SameValue
        CFI `B.BR0` SameValue
        CFI `B.BR1` SameValue
        CFI `B.BR2` SameValue
        CFI `B.BR3` SameValue
        CFI `B.BR4` SameValue
        CFI `B.BR5` SameValue
        CFI `B.BR6` SameValue
        CFI `B.BR7` SameValue
        CFI `VB.BR8` SameValue
        CFI `VB.BR9` SameValue
        CFI `VB.BR10` SameValue
        CFI `VB.BR11` SameValue
        CFI `VB.BR12` SameValue
        CFI `VB.BR13` SameValue
        CFI `VB.BR14` SameValue
        CFI `VB.BR15` SameValue
        CFI VB SameValue
        CFI B Undefined
        CFI A Undefined
        CFI PSW SameValue
        CFI DPL0 SameValue
        CFI DPH0 SameValue
        CFI R0 Undefined
        CFI R1 Undefined
        CFI R2 Undefined
        CFI R3 Undefined
        CFI R4 Undefined
        CFI R5 Undefined
        CFI R6 SameValue
        CFI R7 SameValue
        CFI V0 SameValue
        CFI V1 SameValue
        CFI V2 SameValue
        CFI V3 SameValue
        CFI V4 SameValue
        CFI V5 SameValue
        CFI V6 SameValue
        CFI V7 SameValue
        CFI V8 SameValue
        CFI V9 SameValue
        CFI V10 SameValue
        CFI V11 SameValue
        CFI V12 SameValue
        CFI V13 SameValue
        CFI V14 SameValue
        CFI V15 SameValue
        CFI PSPH Undefined
        CFI PSPL Undefined
        CFI XSPH Undefined
        CFI XSPL Undefined
        CFI ?RET Concat
        CFI ?BRET_EXT Frame(CFA_SP, 3)
        CFI ?RET_HIGH Frame(CFA_SP, 2)
        CFI ?RET_LOW Frame(CFA_SP, 1)
        CFI EndCommon cfiCommon0
        
        
        CFI Common cfiCommon1 Using cfiNames0
        CFI CodeAlign 1
        CFI DataAlign -1
        CFI ReturnAddress ?RET CODE
        CFI CFA_DOVERLAY Used
        CFI CFA_IOVERLAY Used
        CFI CFA_SP SP+-2
        CFI CFA_PSP16 PSP16+0
        CFI CFA_XSP16 XSP16+0
        CFI `PSW.CY` SameValue
        CFI `B.BR0` SameValue
        CFI `B.BR1` SameValue
        CFI `B.BR2` SameValue
        CFI `B.BR3` SameValue
        CFI `B.BR4` SameValue
        CFI `B.BR5` SameValue
        CFI `B.BR6` SameValue
        CFI `B.BR7` SameValue
        CFI `VB.BR8` SameValue
        CFI `VB.BR9` SameValue
        CFI `VB.BR10` SameValue
        CFI `VB.BR11` SameValue
        CFI `VB.BR12` SameValue
        CFI `VB.BR13` SameValue
        CFI `VB.BR14` SameValue
        CFI `VB.BR15` SameValue
        CFI VB SameValue
        CFI B SameValue
        CFI A SameValue
        CFI PSW SameValue
        CFI DPL0 SameValue
        CFI DPH0 SameValue
        CFI R0 SameValue
        CFI R1 SameValue
        CFI R2 SameValue
        CFI R3 SameValue
        CFI R4 SameValue
        CFI R5 SameValue
        CFI R6 SameValue
        CFI R7 SameValue
        CFI V0 SameValue
        CFI V1 SameValue
        CFI V2 SameValue
        CFI V3 SameValue
        CFI V4 SameValue
        CFI V5 SameValue
        CFI V6 SameValue
        CFI V7 SameValue
        CFI V8 SameValue
        CFI V9 SameValue
        CFI V10 SameValue
        CFI V11 SameValue
        CFI V12 SameValue
        CFI V13 SameValue
        CFI V14 SameValue
        CFI V15 SameValue
        CFI PSPH Undefined
        CFI PSPL Undefined
        CFI XSPH Undefined
        CFI XSPL Undefined
        CFI ?RET Concat
        CFI ?BRET_EXT SameValue
        CFI ?RET_HIGH Frame(CFA_SP, 2)
        CFI ?RET_LOW Frame(CFA_SP, 1)
        CFI EndCommon cfiCommon1
        
strlen              SYMBOL "strlen"
HalUARTWrite        SYMBOL "HalUARTWrite"
NLME_GetShortAddr   SYMBOL "NLME_GetShortAddr"
actuator_led_state  SYMBOL "actuator_led_state"
actuator_buzzer_state SYMBOL "actuator_buzzer_state"
node_oled_view_set  SYMBOL "node_oled_view_set"
actuator_led_set    SYMBOL "actuator_led_set"
osal_start_timerEx  SYMBOL "osal_start_timerEx"
zcl_report_send     SYMBOL "zcl_report_send"
afRegister          SYMBOL "afRegister"
osal_memset         SYMBOL "osal_memset"
HalUARTOpen         SYMBOL "HalUARTOpen"
actuator_init       SYMBOL "actuator_init"
dht11_init          SYMBOL "dht11_init"
node_oled_view_init SYMBOL "node_oled_view_init"
node_oled_view_refresh SYMBOL "node_oled_view_refresh"
osal_start_reload_timer SYMBOL "osal_start_reload_timer"
dht11_read          SYMBOL "dht11_read"
sprintf             SYMBOL "sprintf"
actuator_buzzer_set SYMBOL "actuator_buzzer_set"
zcl_default_response SYMBOL "zcl_default_response"
osal_msg_deallocate SYMBOL "osal_msg_deallocate"
osal_msg_receive    SYMBOL "osal_msg_receive"
??HalUARTOpen?relay SYMBOL "?relay", HalUARTOpen
??HalUARTWrite?relay SYMBOL "?relay", HalUARTWrite
??NLME_GetShortAddr?relay SYMBOL "?relay", NLME_GetShortAddr
??actuator_buzzer_set?relay SYMBOL "?relay", actuator_buzzer_set
??actuator_buzzer_state?relay SYMBOL "?relay", actuator_buzzer_state
??actuator_init?relay SYMBOL "?relay", actuator_init
??actuator_led_set?relay SYMBOL "?relay", actuator_led_set
??actuator_led_state?relay SYMBOL "?relay", actuator_led_state
??afRegister?relay  SYMBOL "?relay", afRegister
??dht11_init?relay  SYMBOL "?relay", dht11_init
??dht11_read?relay  SYMBOL "?relay", dht11_read
??node_oled_view_init?relay SYMBOL "?relay", node_oled_view_init
??node_oled_view_refresh?relay SYMBOL "?relay", node_oled_view_refresh
??node_oled_view_set?relay SYMBOL "?relay", node_oled_view_set
??osal_memset?relay SYMBOL "?relay", osal_memset
??osal_msg_deallocate?relay SYMBOL "?relay", osal_msg_deallocate
??osal_msg_receive?relay SYMBOL "?relay", osal_msg_receive
??osal_start_reload_timer?relay SYMBOL "?relay", osal_start_reload_timer
??osal_start_timerEx?relay SYMBOL "?relay", osal_start_timerEx
??sprintf?relay     SYMBOL "?relay", sprintf
??strlen?relay      SYMBOL "?relay", strlen
??zcl_default_response?relay SYMBOL "?relay", zcl_default_response
??zcl_report_send?relay SYMBOL "?relay", zcl_report_send
ZbNode_Init         SYMBOL "ZbNode_Init"
??ZbNode_Init?relay SYMBOL "?relay", ZbNode_Init
ZbNode_PreInit      SYMBOL "ZbNode_PreInit"
??ZbNode_PreInit?relay SYMBOL "?relay", ZbNode_PreInit
ZbNode_ProcessEvent SYMBOL "ZbNode_ProcessEvent"
??ZbNode_ProcessEvent?relay SYMBOL "?relay", ZbNode_ProcessEvent

        EXTERN strlen
        FUNCTION strlen,010202H
        ARGFRAME ISTACK, 0, STACK
        ARGFRAME PSTACK, 0, STACK
        ARGFRAME XSTACK, 10, STACK
        ARGFRAME IOVERLAY, 0, STATIC
        ARGFRAME DOVERLAY, 0, STATIC
        EXTERN HalUARTWrite
        FUNCTION HalUARTWrite,0202H
        ARGFRAME ISTACK, 0, STACK
        ARGFRAME PSTACK, 0, STACK
        ARGFRAME XSTACK, 10, STACK
        ARGFRAME IOVERLAY, 0, STATIC
        ARGFRAME DOVERLAY, 0, STATIC
        EXTERN NLME_GetShortAddr
        FUNCTION NLME_GetShortAddr,0202H
        ARGFRAME ISTACK, 2, STACK
        ARGFRAME PSTACK, 0, STACK
        ARGFRAME XSTACK, 14, STACK
        ARGFRAME IOVERLAY, 0, STATIC
        ARGFRAME DOVERLAY, 0, STATIC
        EXTERN actuator_led_state
        FUNCTION actuator_led_state,0202H
        ARGFRAME ISTACK, 2, STACK
        ARGFRAME PSTACK, 0, STACK
        ARGFRAME XSTACK, 13, STACK
        ARGFRAME IOVERLAY, 0, STATIC
        ARGFRAME DOVERLAY, 0, STATIC
        EXTERN actuator_buzzer_state
        FUNCTION actuator_buzzer_state,0202H
        ARGFRAME ISTACK, 2, STACK
        ARGFRAME PSTACK, 0, STACK
        ARGFRAME XSTACK, 13, STACK
        ARGFRAME IOVERLAY, 0, STATIC
        ARGFRAME DOVERLAY, 0, STATIC
        EXTERN node_oled_view_set
        FUNCTION node_oled_view_set,0202H
        ARGFRAME ISTACK, 2, STACK
        ARGFRAME PSTACK, 0, STACK
        ARGFRAME XSTACK, 0, STACK
        ARGFRAME IOVERLAY, 0, STATIC
        ARGFRAME DOVERLAY, 0, STATIC
        EXTERN actuator_led_set
        FUNCTION actuator_led_set,0202H
        ARGFRAME ISTACK, 0, STACK
        ARGFRAME PSTACK, 0, STACK
        ARGFRAME XSTACK, 13, STACK
        ARGFRAME IOVERLAY, 0, STATIC
        ARGFRAME DOVERLAY, 0, STATIC
        EXTERN osal_start_timerEx
        FUNCTION osal_start_timerEx,0202H
        ARGFRAME ISTACK, 0, STACK
        ARGFRAME PSTACK, 0, STACK
        ARGFRAME XSTACK, 9, STACK
        ARGFRAME IOVERLAY, 0, STATIC
        ARGFRAME DOVERLAY, 0, STATIC
        EXTERN zcl_report_send
        FUNCTION zcl_report_send,0202H
        ARGFRAME ISTACK, 0, STACK
        ARGFRAME PSTACK, 0, STACK
        ARGFRAME XSTACK, 15, STACK
        ARGFRAME IOVERLAY, 0, STATIC
        ARGFRAME DOVERLAY, 0, STATIC
        EXTERN afRegister
        FUNCTION afRegister,0202H
        ARGFRAME ISTACK, 2, STACK
        ARGFRAME PSTACK, 0, STACK
        ARGFRAME XSTACK, 0, STACK
        ARGFRAME IOVERLAY, 0, STATIC
        ARGFRAME DOVERLAY, 0, STATIC
        EXTERN osal_memset
        FUNCTION osal_memset,0202H
        ARGFRAME ISTACK, 0, STACK
        ARGFRAME PSTACK, 0, STACK
        ARGFRAME XSTACK, 38, STACK
        ARGFRAME IOVERLAY, 0, STATIC
        ARGFRAME DOVERLAY, 0, STATIC
        EXTERN HalUARTOpen
        FUNCTION HalUARTOpen,0202H
        ARGFRAME ISTACK, 0, STACK
        ARGFRAME PSTACK, 0, STACK
        ARGFRAME XSTACK, 38, STACK
        ARGFRAME IOVERLAY, 0, STATIC
        ARGFRAME DOVERLAY, 0, STATIC
        EXTERN actuator_init
        FUNCTION actuator_init,0202H
        ARGFRAME ISTACK, 0, STACK
        ARGFRAME PSTACK, 0, STACK
        ARGFRAME XSTACK, 38, STACK
        ARGFRAME IOVERLAY, 0, STATIC
        ARGFRAME DOVERLAY, 0, STATIC
        EXTERN dht11_init
        FUNCTION dht11_init,0202H
        ARGFRAME ISTACK, 0, STACK
        ARGFRAME PSTACK, 0, STACK
        ARGFRAME XSTACK, 38, STACK
        ARGFRAME IOVERLAY, 0, STATIC
        ARGFRAME DOVERLAY, 0, STATIC
        EXTERN node_oled_view_init
        FUNCTION node_oled_view_init,0202H
        ARGFRAME ISTACK, 0, STACK
        ARGFRAME PSTACK, 0, STACK
        ARGFRAME XSTACK, 38, STACK
        ARGFRAME IOVERLAY, 0, STATIC
        ARGFRAME DOVERLAY, 0, STATIC
        EXTERN node_oled_view_refresh
        FUNCTION node_oled_view_refresh,0202H
        ARGFRAME ISTACK, 0, STACK
        ARGFRAME PSTACK, 0, STACK
        ARGFRAME XSTACK, 38, STACK
        ARGFRAME IOVERLAY, 0, STATIC
        ARGFRAME DOVERLAY, 0, STATIC
        EXTERN osal_start_reload_timer
        FUNCTION osal_start_reload_timer,0202H
        ARGFRAME ISTACK, 0, STACK
        ARGFRAME PSTACK, 0, STACK
        ARGFRAME XSTACK, 38, STACK
        ARGFRAME IOVERLAY, 0, STATIC
        ARGFRAME DOVERLAY, 0, STATIC
        EXTERN dht11_read
        FUNCTION dht11_read,0202H
        ARGFRAME ISTACK, 0, STACK
        ARGFRAME PSTACK, 0, STACK
        ARGFRAME XSTACK, 16, STACK
        ARGFRAME IOVERLAY, 0, STATIC
        ARGFRAME DOVERLAY, 0, STATIC
        EXTERN sprintf
        FUNCTION sprintf,0202H
        ARGFRAME ISTACK, 0, STACK
        ARGFRAME PSTACK, 0, STACK
        ARGFRAME XSTACK, 26, STACK
        ARGFRAME IOVERLAY, 0, STATIC
        ARGFRAME DOVERLAY, 0, STATIC
        EXTERN actuator_buzzer_set
        FUNCTION actuator_buzzer_set,0202H
        ARGFRAME ISTACK, 0, STACK
        ARGFRAME PSTACK, 0, STACK
        ARGFRAME XSTACK, 13, STACK
        ARGFRAME IOVERLAY, 0, STATIC
        ARGFRAME DOVERLAY, 0, STATIC
        EXTERN zcl_default_response
        FUNCTION zcl_default_response,0202H
        ARGFRAME ISTACK, 0, STACK
        ARGFRAME PSTACK, 0, STACK
        ARGFRAME XSTACK, 14, STACK
        ARGFRAME IOVERLAY, 0, STATIC
        ARGFRAME DOVERLAY, 0, STATIC
        EXTERN osal_msg_deallocate
        FUNCTION osal_msg_deallocate,0202H
        ARGFRAME ISTACK, 0, STACK
        ARGFRAME PSTACK, 0, STACK
        ARGFRAME XSTACK, 14, STACK
        ARGFRAME IOVERLAY, 0, STATIC
        ARGFRAME DOVERLAY, 0, STATIC
        EXTERN osal_msg_receive
        FUNCTION osal_msg_receive,0202H
        ARGFRAME ISTACK, 0, STACK
        ARGFRAME PSTACK, 0, STACK
        ARGFRAME XSTACK, 14, STACK
        ARGFRAME IOVERLAY, 0, STATIC
        ARGFRAME DOVERLAY, 0, STATIC
        EXTERN ??HalUARTOpen?relay
        FUNCTION ??HalUARTOpen?relay,00H
        EXTERN ??HalUARTWrite?relay
        FUNCTION ??HalUARTWrite?relay,00H
        EXTERN ??NLME_GetShortAddr?relay
        FUNCTION ??NLME_GetShortAddr?relay,00H
        EXTERN ??actuator_buzzer_set?relay
        FUNCTION ??actuator_buzzer_set?relay,00H
        EXTERN ??actuator_buzzer_state?relay
        FUNCTION ??actuator_buzzer_state?relay,00H
        EXTERN ??actuator_init?relay
        FUNCTION ??actuator_init?relay,00H
        EXTERN ??actuator_led_set?relay
        FUNCTION ??actuator_led_set?relay,00H
        EXTERN ??actuator_led_state?relay
        FUNCTION ??actuator_led_state?relay,00H
        EXTERN ??afRegister?relay
        FUNCTION ??afRegister?relay,00H
        EXTERN ??dht11_init?relay
        FUNCTION ??dht11_init?relay,00H
        EXTERN ??dht11_read?relay
        FUNCTION ??dht11_read?relay,00H
        EXTERN ??node_oled_view_init?relay
        FUNCTION ??node_oled_view_init?relay,00H
        EXTERN ??node_oled_view_refresh?relay
        FUNCTION ??node_oled_view_refresh?relay,00H
        EXTERN ??node_oled_view_set?relay
        FUNCTION ??node_oled_view_set?relay,00H
        EXTERN ??osal_memset?relay
        FUNCTION ??osal_memset?relay,00H
        EXTERN ??osal_msg_deallocate?relay
        FUNCTION ??osal_msg_deallocate?relay,00H
        EXTERN ??osal_msg_receive?relay
        FUNCTION ??osal_msg_receive?relay,00H
        EXTERN ??osal_start_reload_timer?relay
        FUNCTION ??osal_start_reload_timer?relay,00H
        EXTERN ??osal_start_timerEx?relay
        FUNCTION ??osal_start_timerEx?relay,00H
        EXTERN ??sprintf?relay
        FUNCTION ??sprintf?relay,00H
        EXTERN ??strlen?relay
        FUNCTION ??strlen?relay,00H
        EXTERN ??zcl_default_response?relay
        FUNCTION ??zcl_default_response?relay,00H
        EXTERN ??zcl_report_send?relay
        FUNCTION ??zcl_report_send?relay,00H
        EXTERN _NIB

// D:\ZNJJ\ZStack-CC2530-2.5.1a\Projects\zstack\Samples\ZbNode\Source\zb_node.c
//    1 /*
//    2  * ZbNode task: AF endpoint registration, periodic sensor reporting, and
//    3  * incoming OnOff command handling.
//    4  */
//    5 
//    6 #include "zb_node.h"
//    7 #include "actuator.h"
//    8 #include "zcl_report.h"
//    9 #include "node_oled_view.h"
//   10 #if NODE_ROLE == 1
//   11 #include "sensor_dht11.h"
//   12 #else
//   13 #include "sensor_ldr.h"
//   14 #endif
//   15 
//   16 #include "OSAL.h"
//   17 #include "OSAL_Timers.h"
//   18 #include "ZComDef.h"
//   19 #include "ZDApp.h"
//   20 #include "AF.h"
//   21 #include "ZGlobals.h"
//   22 #include "ioCC2530.h"

        ASEGN SFR_AN:DATA:NOROOT,090H
// union <unnamed> volatile __sfr _A_P1
_A_P1:
        DATA8
        DS 1

        ASEGN SFR_AN:DATA:NOROOT,0f4H
// unsigned char volatile __sfr P1SEL
P1SEL:
        DATA8
        DS 1

        ASEGN SFR_AN:DATA:NOROOT,0feH
// unsigned char volatile __sfr P1DIR
P1DIR:
        DATA8
        DS 1

        RSEG XDATA_Z:XDATA:NOROOT(0)
        DATA8
`?<Constant "">`:
        DS 1
        REQUIRE __INIT_XDATA_Z
//   23 #include "nwk.h"
//   24 #include "nwk_globals.h"
//   25 #include "hal_uart.h"
//   26 #include <stdio.h>
//   27 #include <string.h>
//   28 
//   29 /* ---- 节点侧串口调试：打到 UART0(P0.2/P0.3) → CH340G → Micro-USB → PC 串口助手 115200
//   30  * 参考 references/ZStack-CC2530-main/.../SampleApp.c 的 HalUARTWrite(0,...) 套路。
//   31  * 不用 OLED 就能知道节点是否在跑、是否入网、是否采到数据、是否 confirm 成功。 */

        RSEG XDATA_Z:XDATA:NOROOT(0)
        DATA8
//   32 static char s_dbg_buf[32];
s_dbg_buf:
        DS 32
        REQUIRE __INIT_XDATA_Z
//   33 

        RSEG BANKED_CODE:CODE:NOROOT(0)
//   34 static void dbg_puts(const char *s)
dbg_puts:
        CFI Block cfiBlock0 Using cfiCommon0
        CFI Function dbg_puts
        CODE
//   35 {
        FUNCALL dbg_puts, strlen
        LOCFRAME ISTACK, 0, STACK
        LOCFRAME PSTACK, 0, STACK
        LOCFRAME XSTACK, 10, STACK
        LOCFRAME IOVERLAY, 0, STATIC
        LOCFRAME DOVERLAY, 0, STATIC
        ARGFRAME ISTACK, 0, STACK
        ARGFRAME PSTACK, 0, STACK
        ARGFRAME XSTACK, 10, STACK
        ARGFRAME IOVERLAY, 0, STATIC
        ARGFRAME DOVERLAY, 0, STATIC
        FUNCALL dbg_puts, HalUARTWrite
        LOCFRAME ISTACK, 0, STACK
        LOCFRAME PSTACK, 0, STACK
        LOCFRAME XSTACK, 10, STACK
        LOCFRAME IOVERLAY, 0, STATIC
        LOCFRAME DOVERLAY, 0, STATIC
        ARGFRAME ISTACK, 0, STACK
        ARGFRAME PSTACK, 0, STACK
        ARGFRAME XSTACK, 10, STACK
        ARGFRAME IOVERLAY, 0, STATIC
        ARGFRAME DOVERLAY, 0, STATIC
        MOV     A,#-0xa
        LCALL   ?BANKED_ENTER_XDATA
        CFI DPH0 load(1, XDATA, add(CFA_XSP16, literal(-1)))
        CFI DPL0 load(1, XDATA, add(CFA_XSP16, literal(-2)))
        CFI ?BRET_EXT load(1, XDATA, add(CFA_XSP16, literal(-3)))
        CFI ?RET_HIGH load(1, XDATA, add(CFA_XSP16, literal(-4)))
        CFI ?RET_LOW load(1, XDATA, add(CFA_XSP16, literal(-5)))
        CFI R7 load(1, XDATA, add(CFA_XSP16, literal(-6)))
        CFI V1 load(1, XDATA, add(CFA_XSP16, literal(-7)))
        CFI V0 load(1, XDATA, add(CFA_XSP16, literal(-8)))
        CFI VB load(1, XDATA, add(CFA_XSP16, literal(-9)))
        CFI R6 load(1, XDATA, add(CFA_XSP16, literal(-10)))
        CFI CFA_SP SP+0
        CFI CFA_XSP16 add(XSP16, 10)
        ; Saved register size: 10
        ; Auto size: 0
        MOV     A,R2
        MOV     R6,A
        MOV     A,R3
        MOV     R7,A
//   36     uint16 n = (uint16)strlen(s);
        ; Setup parameters for call to function strlen
        LCALL   ??strlen?relay
        MOV     ?V0 + 0,R2
        MOV     ?V0 + 1,R3
        MOV     R4,?V0 + 0
        MOV     R5,?V0 + 1
//   37     if (n != 0u) {
        MOV     A,R4
        ORL     A,R5
        JZ      ??dbg_puts_0
//   38         (void)HalUARTWrite(HAL_UART_PORT_0, (uint8 *)s, n);
        ; Setup parameters for call to function HalUARTWrite
        MOV     A,R6
        MOV     R2,A
        MOV     A,R7
        MOV     R3,A
        MOV     R1,#0x0
        LCALL   ??HalUARTWrite?relay
        CFI EndBlock cfiBlock0
//   39     }
//   40 }
??dbg_puts_0:
        REQUIRE ?Subroutine0
        ; // Fall through to label ?Subroutine0

        RSEG BANKED_CODE:CODE:NOROOT(0)
?Subroutine0:
        CFI Block cfiBlock1 Using cfiCommon0
        CFI NoFunction
        CFI CFA_SP SP+0
        CFI CFA_XSP16 add(XSP16, 10)
        CFI VB load(1, XDATA, add(CFA_XSP16, literal(-9)))
        CFI DPL0 load(1, XDATA, add(CFA_XSP16, literal(-2)))
        CFI DPH0 load(1, XDATA, add(CFA_XSP16, literal(-1)))
        CFI R6 load(1, XDATA, add(CFA_XSP16, literal(-10)))
        CFI R7 load(1, XDATA, add(CFA_XSP16, literal(-6)))
        CFI V0 load(1, XDATA, add(CFA_XSP16, literal(-8)))
        CFI V1 load(1, XDATA, add(CFA_XSP16, literal(-7)))
        CFI ?BRET_EXT load(1, XDATA, add(CFA_XSP16, literal(-3)))
        CFI ?RET_HIGH load(1, XDATA, add(CFA_XSP16, literal(-4)))
        CFI ?RET_LOW load(1, XDATA, add(CFA_XSP16, literal(-5)))
        MOV     R7,#0x2
        LJMP    ?BANKED_LEAVE_XDATA
        CFI EndBlock cfiBlock1
//   41 

        RSEG BANKED_CODE:CODE:NOROOT(0)
//   42 static void dbg_line(const char *s)
dbg_line:
        CFI Block cfiBlock2 Using cfiCommon0
        CFI Function dbg_line
        CODE
//   43 {
        FUNCALL dbg_line, dbg_puts
        LOCFRAME ISTACK, 2, STACK
        LOCFRAME PSTACK, 0, STACK
        LOCFRAME XSTACK, 0, STACK
        LOCFRAME IOVERLAY, 0, STATIC
        LOCFRAME DOVERLAY, 0, STATIC
        ARGFRAME ISTACK, 2, STACK
        ARGFRAME PSTACK, 0, STACK
        ARGFRAME XSTACK, 0, STACK
        ARGFRAME IOVERLAY, 0, STATIC
        ARGFRAME DOVERLAY, 0, STATIC
        FUNCALL dbg_line, dbg_puts
        LOCFRAME ISTACK, 2, STACK
        LOCFRAME PSTACK, 0, STACK
        LOCFRAME XSTACK, 0, STACK
        LOCFRAME IOVERLAY, 0, STATIC
        LOCFRAME DOVERLAY, 0, STATIC
        ARGFRAME ISTACK, 2, STACK
        ARGFRAME PSTACK, 0, STACK
        ARGFRAME XSTACK, 0, STACK
        ARGFRAME IOVERLAY, 0, STATIC
        ARGFRAME DOVERLAY, 0, STATIC
        PUSH    DPL
        CFI DPL0 Frame(CFA_SP, 4)
        CFI CFA_SP SP+-4
        PUSH    DPH
        CFI DPH0 Frame(CFA_SP, 5)
        CFI CFA_SP SP+-5
        ; Saved register size: 2
        ; Auto size: 0
//   44     dbg_puts(s);
        ; Setup parameters for call to function dbg_puts
        LCALL   ??dbg_puts?relay
//   45     dbg_puts("\r\n");
        ; Setup parameters for call to function dbg_puts
        MOV     R2,#`?<Constant "\\r\\n">` & 0xff
        MOV     R3,#(`?<Constant "\\r\\n">` >> 8) & 0xff
        LCALL   ??dbg_puts?relay
//   46 }
        LJMP    ?Subroutine1 & 0xFFFF
        CFI EndBlock cfiBlock2

        RSEG XDATA_I:XDATA:NOROOT(0)
        DATA8
`?<Constant "\\r\\n">`:
        DS 3
        REQUIRE `?<Initializer for <Constant "\\r\\n">>`
        REQUIRE __INIT_XDATA_I

        RSEG XDATA_I:XDATA:NOROOT(0)
        DATA8
`?<Constant "[boot] keep NV networ...">`:
        DS 55
        REQUIRE `?<Initializer for <Constant "[boot] keep NV ne`
        REQUIRE __INIT_XDATA_I

        RSEG XDATA_I:XDATA:NOROOT(0)
        DATA8
`?<Constant "\\r\\n==== Node1 (DHT11) ...">`:
        DS 47
        REQUIRE `?<Initializer for <Constant "\\r\\n==== Node1 (D`
        REQUIRE __INIT_XDATA_I

        RSEG XDATA_I:XDATA:NOROOT(0)
        DATA8
`?<Constant "[n1] T=%s%d.%02d H=%u...">`:
        DS 29
        REQUIRE `?<Initializer for <Constant "[n1] T=%s%d.%02d `
        REQUIRE __INIT_XDATA_I

        RSEG XDATA_I:XDATA:NOROOT(0)
        DATA16
`?<Constant "-">`:
        DS 2
        REQUIRE `?<Initializer for <Constant "-">>`
        REQUIRE __INIT_XDATA_I

        RSEG XDATA_I:XDATA:NOROOT(0)
        DATA8
`?<Constant "[n1] DHT rc=%d\\r\\n">`:
        DS 17
        REQUIRE `?<Initializer for <Constant "[n1] DHT rc=%d\\r\\`
        REQUIRE __INIT_XDATA_I

        RSEG XDATA_I:XDATA:NOROOT(0)
        DATA8
`?<Constant "[cfm] first report CO...">`:
        DS 41
        REQUIRE `?<Initializer for <Constant "[cfm] first repor`
        REQUIRE __INIT_XDATA_I

        RSEG XDATA_I:XDATA:NOROOT(0)
        DATA8
`?<Constant "[cfm] OK">`:
        DS 9
        REQUIRE `?<Initializer for <Constant "[cfm] OK">>`
        REQUIRE __INIT_XDATA_I

        RSEG XDATA_I:XDATA:NOROOT(0)
        DATA8
`?<Constant "[cfm] fail=0x%02X\\r\\n">`:
        DS 20
        REQUIRE `?<Initializer for <Constant "[cfm] fail=0x%02X`
        REQUIRE __INIT_XDATA_I

        RSEG XDATA_I:XDATA:NOROOT(0)
        DATA8
`?<Constant "[zdo] st=%u\\r\\n">`:
        DS 14
        REQUIRE `?<Initializer for <Constant "[zdo] st=%u\\r\\n">`
        REQUIRE __INIT_XDATA_I

        RSEG XDATA_I:XDATA:NOROOT(0)
        DATA8
`?<Constant "[boot] restore unavai...">`:
        DS 51
        REQUIRE `?<Initializer for <Constant "[boot] restore un`
        REQUIRE __INIT_XDATA_I

        RSEG XDATA_I:XDATA:NOROOT(0)
        DATA8
`?<Constant "[zdo] FRESH-JOIN">`:
        DS 17
        REQUIRE `?<Initializer for <Constant "[zdo] FRESH-JOIN"`
        REQUIRE __INIT_XDATA_I

        RSEG XDATA_I:XDATA:NOROOT(0)
        DATA8
`?<Constant "[zdo] RESTORED">`:
        DS 15
        REQUIRE `?<Initializer for <Constant "[zdo] RESTORED">>`
        REQUIRE __INIT_XDATA_I

        RSEG XDATA_I:XDATA:NOROOT(0)
        DATA8
`?<Constant "[zdo] pan=%04X sa=%04...">`:
        DS 30
        REQUIRE `?<Initializer for <Constant "[zdo] pan=%04X sa`
        REQUIRE __INIT_XDATA_I
//   47 

        RSEG XDATA_I:XDATA:NOROOT(0)
//   48 uint8 ZbNode_TaskID = 0xFF;
ZbNode_TaskID:
        DATA8
        DS 1
        REQUIRE `?<Initializer for ZbNode_TaskID>`
        REQUIRE __INIT_XDATA_I
//   49 
//   50 typedef struct {
//   51     int8  last_result;
//   52     uint8 last_status;
//   53     uint8 last_transid;
//   54     uint8 pending_reports;
//   55     uint8 fail_count;
//   56     uint8 consecutive_fail;
//   57 } report_diag_t;
//   58 

        RSEG XDATA_Z:XDATA:NOROOT(0)
        DATA8
//   59 static endPointDesc_t s_ep1, s_ep2;
s_ep1:
        DS 6
        REQUIRE __INIT_XDATA_Z

        RSEG XDATA_Z:XDATA:NOROOT(0)
        DATA8
s_ep2:
        DS 6
        REQUIRE __INIT_XDATA_Z

        RSEG XDATA_Z:XDATA:NOROOT(0)
        DATA8
//   60 static SimpleDescriptionFormat_t s_sd1, s_sd2;
s_sd1:
        DS 12
        REQUIRE __INIT_XDATA_Z

        RSEG XDATA_Z:XDATA:NOROOT(0)
        DATA8
s_sd2:
        DS 12
        REQUIRE __INIT_XDATA_Z

        RSEG XDATA_I:XDATA:NOROOT(0)
//   61 static cId_t s_in_sensor[1] = { 0x0006u };
s_in_sensor:
        DATA16
        DS 2
        REQUIRE `?<Initializer for s_in_sensor>`
        REQUIRE __INIT_XDATA_I
//   62 #if NODE_ROLE == 1

        RSEG XDATA_I:XDATA:NOROOT(0)
//   63 static cId_t s_out_sensor[3] = { 0x0402u, 0x0405u, 0x0006u };
s_out_sensor:
        DATA8
        DS 6
        REQUIRE `?<Initializer for s_out_sensor>`
        REQUIRE __INIT_XDATA_I
//   64 #else
//   65 static cId_t s_out_sensor[2] = { 0x0400u, 0x0006u };
//   66 #endif

        RSEG XDATA_I:XDATA:NOROOT(0)
//   67 static cId_t s_in_buzzer[1] = { 0x0006u };
s_in_buzzer:
        DATA16
        DS 2
        REQUIRE `?<Initializer for s_in_buzzer>`
        REQUIRE __INIT_XDATA_I

        RSEG XDATA_I:XDATA:NOROOT(0)
//   68 static cId_t s_out_buzzer[1] = { 0x0006u };
s_out_buzzer:
        DATA16
        DS 2
        REQUIRE `?<Initializer for s_out_buzzer>`
        REQUIRE __INIT_XDATA_I

        RSEG XDATA_Z:XDATA:NOROOT(0)
        DATA8
//   69 static uint8 s_nwk_joined = 0;
s_nwk_joined:
        DS 1
        REQUIRE __INIT_XDATA_Z

        RSEG XDATA_Z:XDATA:NOROOT(0)
        DATA8
//   70 static uint8 s_link_ready = 0;
s_link_ready:
        DS 1
        REQUIRE __INIT_XDATA_Z

        RSEG XDATA_Z:XDATA:NOROOT(0)
        DATA8
//   71 static uint8 s_wait_first_report_cfm = 0;
s_wait_first_report_cfm:
        DS 1
        REQUIRE __INIT_XDATA_Z

        RSEG XDATA_I:XDATA:NOROOT(0)
//   72 static devStates_t s_nwk_state = DEV_INIT;
s_nwk_state:
        DATA8
        DS 1
        REQUIRE `?<Initializer for s_nwk_state>`
        REQUIRE __INIT_XDATA_I

        RSEG XDATA_Z:XDATA:NOROOT(0)
        DATA8
//   73 static report_diag_t s_report_diag;
s_report_diag:
        DS 6
        REQUIRE __INIT_XDATA_Z

        RSEG XDATA_Z:XDATA:NOROOT(0)
        DATA8
//   74 static uint8 s_status_led_phase = 0;
s_status_led_phase:
        DS 1
        REQUIRE __INIT_XDATA_Z

        RSEG XDATA_I:XDATA:NOROOT(0)
//   75 static uint8 s_startup_leds_owned = 1;
s_startup_leds_owned:
        DATA8
        DS 1
        REQUIRE `?<Initializer for s_startup_leds_owned>`
        REQUIRE __INIT_XDATA_I
//   76 
//   77 #define CLU_ONOFF         0x0006u
//   78 #define CLU_TEMP          0x0402u
//   79 #define CLU_HUM           0x0405u
//   80 #define CLU_LUX           0x0400u
//   81 #define REPORT_RETRY_MS   200u
//   82 #define STATUS_LED_TICK_MS 100u
//   83 #define STATUS_LED_SLOW_TICKS 10u
//   84 #define STATUS_LED_FAST_TICKS 4u
//   85 
//   86 /* OLED 模型缓存：刷新由 ZN_EVT_STATUS_LED 滴答（100ms）触发 model_changed 才写屏。 */

        RSEG XDATA_Z:XDATA:NOROOT(0)
        DATA8
//   87 static node_oled_model_t s_oled_model;
s_oled_model:
        DS 14
        REQUIRE __INIT_XDATA_Z
//   88 
//   89 /* 前置声明：oled_publish() 引用了下方 network_ready()。 */
//   90 static uint8 network_joined(void);
//   91 static uint8 network_ready(void);
//   92 

        RSEG BANKED_CODE:CODE:NOROOT(0)
//   93 static void oled_publish(void)
oled_publish:
        CFI Block cfiBlock3 Using cfiCommon0
        CFI Function oled_publish
        CODE
//   94 {
        FUNCALL oled_publish, network_ready
        LOCFRAME ISTACK, 2, STACK
        LOCFRAME PSTACK, 0, STACK
        LOCFRAME XSTACK, 0, STACK
        LOCFRAME IOVERLAY, 0, STATIC
        LOCFRAME DOVERLAY, 0, STATIC
        ARGFRAME ISTACK, 2, STACK
        ARGFRAME PSTACK, 0, STACK
        ARGFRAME XSTACK, 0, STACK
        ARGFRAME IOVERLAY, 0, STATIC
        ARGFRAME DOVERLAY, 0, STATIC
        FUNCALL oled_publish, NLME_GetShortAddr
        LOCFRAME ISTACK, 2, STACK
        LOCFRAME PSTACK, 0, STACK
        LOCFRAME XSTACK, 0, STACK
        LOCFRAME IOVERLAY, 0, STATIC
        LOCFRAME DOVERLAY, 0, STATIC
        ARGFRAME ISTACK, 2, STACK
        ARGFRAME PSTACK, 0, STACK
        ARGFRAME XSTACK, 0, STACK
        ARGFRAME IOVERLAY, 0, STATIC
        ARGFRAME DOVERLAY, 0, STATIC
        FUNCALL oled_publish, actuator_led_state
        LOCFRAME ISTACK, 2, STACK
        LOCFRAME PSTACK, 0, STACK
        LOCFRAME XSTACK, 0, STACK
        LOCFRAME IOVERLAY, 0, STATIC
        LOCFRAME DOVERLAY, 0, STATIC
        ARGFRAME ISTACK, 2, STACK
        ARGFRAME PSTACK, 0, STACK
        ARGFRAME XSTACK, 0, STACK
        ARGFRAME IOVERLAY, 0, STATIC
        ARGFRAME DOVERLAY, 0, STATIC
        FUNCALL oled_publish, actuator_buzzer_state
        LOCFRAME ISTACK, 2, STACK
        LOCFRAME PSTACK, 0, STACK
        LOCFRAME XSTACK, 0, STACK
        LOCFRAME IOVERLAY, 0, STATIC
        LOCFRAME DOVERLAY, 0, STATIC
        ARGFRAME ISTACK, 2, STACK
        ARGFRAME PSTACK, 0, STACK
        ARGFRAME XSTACK, 0, STACK
        ARGFRAME IOVERLAY, 0, STATIC
        ARGFRAME DOVERLAY, 0, STATIC
        FUNCALL oled_publish, node_oled_view_set
        LOCFRAME ISTACK, 2, STACK
        LOCFRAME PSTACK, 0, STACK
        LOCFRAME XSTACK, 0, STACK
        LOCFRAME IOVERLAY, 0, STATIC
        LOCFRAME DOVERLAY, 0, STATIC
        ARGFRAME ISTACK, 2, STACK
        ARGFRAME PSTACK, 0, STACK
        ARGFRAME XSTACK, 0, STACK
        ARGFRAME IOVERLAY, 0, STATIC
        ARGFRAME DOVERLAY, 0, STATIC
        PUSH    DPL
        CFI DPL0 Frame(CFA_SP, 4)
        CFI CFA_SP SP+-4
        PUSH    DPH
        CFI DPH0 Frame(CFA_SP, 5)
        CFI CFA_SP SP+-5
        ; Saved register size: 2
        ; Auto size: 0
//   95     s_oled_model.online    = network_ready() ? 1u : 0u;
        ; Setup parameters for call to function network_ready
        LCALL   ??network_ready?relay
        MOV     A,R1
        MOV     DPTR,#s_oled_model + 1
        JZ      ??oled_publish_0
        MOV     A,#0x1
        SJMP    ??oled_publish_1
??oled_publish_0:
        CLR     A
??oled_publish_1:
        MOVX    @DPTR,A
//   96     s_oled_model.short_addr= NLME_GetShortAddr();
        ; Setup parameters for call to function NLME_GetShortAddr
        LCALL   ??NLME_GetShortAddr?relay
        MOV     DPTR,#s_oled_model + 2
        MOV     A,R2
        MOVX    @DPTR,A
        INC     DPTR
        MOV     A,R3
        MOVX    @DPTR,A
//   97     s_oled_model.channel   = _NIB.nwkLogicalChannel;
        MOV     DPTR,#_NIB + 22
        MOVX    A,@DPTR
        MOV     DPTR,#s_oled_model + 4
        MOVX    @DPTR,A
//   98     s_oled_model.led_on    = actuator_led_state();
        ; Setup parameters for call to function actuator_led_state
        LCALL   ??actuator_led_state?relay
        MOV     A,R1
        MOV     DPTR,#s_oled_model + 11
        MOVX    @DPTR,A
//   99     s_oled_model.buzzer_on = actuator_buzzer_state();
        ; Setup parameters for call to function actuator_buzzer_state
        LCALL   ??actuator_buzzer_state?relay
        MOV     A,R1
        MOV     DPTR,#s_oled_model + 12
        MOVX    @DPTR,A
//  100     node_oled_view_set(&s_oled_model);
        ; Setup parameters for call to function node_oled_view_set
        MOV     R2,#s_oled_model & 0xff
        MOV     R3,#(s_oled_model >> 8) & 0xff
        LCALL   ??node_oled_view_set?relay
//  101 }
        LJMP    ?Subroutine1 & 0xFFFF
        CFI EndBlock cfiBlock3
//  102 

        RSEG BANKED_CODE:CODE:NOROOT(0)
//  103 static void indicator_pin_init(uint8 pin)
indicator_pin_init:
        CFI Block cfiBlock4 Using cfiCommon0
        CFI Function indicator_pin_init
        CODE
//  104 {
        PUSH    ?V0 + 0
        CFI V0 Frame(CFA_SP, 4)
        CFI CFA_SP SP+-4
        PUSH    ?V0 + 1
        CFI V1 Frame(CFA_SP, 5)
        CFI CFA_SP SP+-5
        ; Saved register size: 2
        ; Auto size: 0
        MOV     ?V0 + 0,#0x1
        MOV     ?V0 + 1,#0x0
        MOV     A,R1
        MOV     R0,#?V0 + 0
        LCALL   ?S_SHL
        MOV     R0,?V0 + 0
        MOV     A,R0
        CPL     A
        ANL     0xf4,A
//  105     P1SEL &= (uint8)~(1u << pin);
//  106     P1DIR |= (uint8)(1u << pin);
        MOV     A,R0
        ORL     0xfe,A
        CFI EndBlock cfiBlock4
//  107 }
        REQUIRE ?Subroutine2
        REQUIRE P1SEL
        REQUIRE P1DIR
        ; // Fall through to label ?Subroutine2

        RSEG BANKED_CODE:CODE:NOROOT(0)
?Subroutine2:
        CFI Block cfiBlock5 Using cfiCommon0
        CFI NoFunction
        CFI CFA_SP SP+-5
        CFI V0 Frame(CFA_SP, 4)
        CFI V1 Frame(CFA_SP, 5)
        POP     ?V0 + 1
        CFI CFA_SP SP+-4
        CFI V1 SameValue
        POP     ?V0 + 0
        CFI CFA_SP SP+-3
        CFI V0 SameValue
        LJMP    ?BRET
        CFI EndBlock cfiBlock5
//  108 

        RSEG BANKED_CODE:CODE:NOROOT(0)
//  109 static void indicator_pin_set(uint8 pin, uint8 on)
indicator_pin_set:
        CFI Block cfiBlock6 Using cfiCommon0
        CFI Function indicator_pin_set
        CODE
//  110 {
        PUSH    ?V0 + 0
        CFI V0 Frame(CFA_SP, 4)
        CFI CFA_SP SP+-4
        PUSH    ?V0 + 1
        CFI V1 Frame(CFA_SP, 5)
        CFI CFA_SP SP+-5
        ; Saved register size: 2
        ; Auto size: 0
//  111     uint8 mask = (uint8)(1u << pin);
        MOV     ?V0 + 0,#0x1
        MOV     ?V0 + 1,#0x0
        MOV     A,R1
        MOV     R0,#?V0 + 0
        LCALL   ?S_SHL
        MOV     R0,?V0 + 0
//  112     uint8 level = on ? NODE_STATUS_LED_ACTIVE_HIGH : (uint8)(!NODE_STATUS_LED_ACTIVE_HIGH);
        MOV     A,R2
        JZ      ??indicator_pin_set_0
//  113 
//  114     if (level) {
//  115         P1 |= mask;
//  116     } else {
//  117         P1 &= (uint8)~mask;
        MOV     A,R0
        CPL     A
        ANL     0x90,A
        SJMP    ??indicator_pin_set_1
//  118     }
??indicator_pin_set_0:
        MOV     A,R0
        ORL     0x90,A
//  119 }
??indicator_pin_set_1:
        SJMP    ?Subroutine2
        CFI EndBlock cfiBlock6
        REQUIRE _A_P1
//  120 
//  121 static void indicator_pin_init_all(void)
//  122 {
//  123     indicator_pin_init(NODE_LED_PIN);
//  124     indicator_pin_init(NODE_START_LED_PIN);
//  125     indicator_pin_init(NODE_ALIVE_LED_PIN);
//  126 }
//  127 
//  128 static void startup_led_set(uint8 on)
//  129 {
//  130     indicator_pin_set(NODE_START_LED_PIN, on);
//  131 }
//  132 
//  133 static void alive_led_set(uint8 on)
//  134 {
//  135     indicator_pin_set(NODE_ALIVE_LED_PIN, on);
//  136 }
//  137 
//  138 static void startup_pattern_set(uint8 on)
//  139 {
//  140     startup_led_set(on);
//  141 }
//  142 

        RSEG BANKED_CODE:CODE:NOROOT(0)
//  143 static uint8 network_joined(void)
network_joined:
        CFI Block cfiBlock7 Using cfiCommon0
        CFI Function network_joined
        CODE
//  144 {
        PUSH    DPL
        CFI DPL0 Frame(CFA_SP, 4)
        CFI CFA_SP SP+-4
        PUSH    DPH
        CFI DPH0 Frame(CFA_SP, 5)
        CFI CFA_SP SP+-5
        ; Saved register size: 2
        ; Auto size: 0
//  145     return (s_nwk_state == DEV_END_DEVICE) ||
//  146            (s_nwk_state == DEV_ROUTER) ||
//  147            (s_nwk_state == DEV_ZB_COORD);
        MOV     DPTR,#s_nwk_state
        MOVX    A,@DPTR
        XRL     A,#0x6
        JZ      ??network_joined_0
        MOVX    A,@DPTR
        XRL     A,#0x7
        JZ      ??network_joined_0
        MOVX    A,@DPTR
        XRL     A,#0x9
        JNZ     ??network_joined_1
??network_joined_0:
        MOV     R1,#0x1
        SJMP    ??network_joined_2
??network_joined_1:
        MOV     R1,#0x0
??network_joined_2:
        LJMP    ?Subroutine1 & 0xFFFF
        CFI EndBlock cfiBlock7
//  148 }
//  149 
//  150 static uint8 network_joining(void)
//  151 {
//  152     return (s_nwk_state == DEV_NWK_DISC) ||
//  153            (s_nwk_state == DEV_NWK_JOINING) ||
//  154            (s_nwk_state == DEV_NWK_REJOIN) ||
//  155            (s_nwk_state == DEV_NWK_ORPHAN) ||
//  156            (s_nwk_state == DEV_END_DEVICE_UNAUTH);
//  157 }
//  158 

        RSEG BANKED_CODE:CODE:NOROOT(0)
//  159 static void status_led_refresh(void)
status_led_refresh:
        CFI Block cfiBlock8 Using cfiCommon0
        CFI Function status_led_refresh
        CODE
//  160 {
        FUNCALL status_led_refresh, indicator_pin_set
        LOCFRAME ISTACK, 0, STACK
        LOCFRAME PSTACK, 0, STACK
        LOCFRAME XSTACK, 9, STACK
        LOCFRAME IOVERLAY, 0, STATIC
        LOCFRAME DOVERLAY, 0, STATIC
        ARGFRAME ISTACK, 0, STACK
        ARGFRAME PSTACK, 0, STACK
        ARGFRAME XSTACK, 9, STACK
        ARGFRAME IOVERLAY, 0, STATIC
        ARGFRAME DOVERLAY, 0, STATIC
        FUNCALL status_led_refresh, indicator_pin_set
        LOCFRAME ISTACK, 0, STACK
        LOCFRAME PSTACK, 0, STACK
        LOCFRAME XSTACK, 9, STACK
        LOCFRAME IOVERLAY, 0, STATIC
        LOCFRAME DOVERLAY, 0, STATIC
        ARGFRAME ISTACK, 0, STACK
        ARGFRAME PSTACK, 0, STACK
        ARGFRAME XSTACK, 9, STACK
        ARGFRAME IOVERLAY, 0, STATIC
        ARGFRAME DOVERLAY, 0, STATIC
        FUNCALL status_led_refresh, actuator_led_set
        LOCFRAME ISTACK, 0, STACK
        LOCFRAME PSTACK, 0, STACK
        LOCFRAME XSTACK, 9, STACK
        LOCFRAME IOVERLAY, 0, STATIC
        LOCFRAME DOVERLAY, 0, STATIC
        ARGFRAME ISTACK, 0, STACK
        ARGFRAME PSTACK, 0, STACK
        ARGFRAME XSTACK, 9, STACK
        ARGFRAME IOVERLAY, 0, STATIC
        ARGFRAME DOVERLAY, 0, STATIC
        FUNCALL status_led_refresh, indicator_pin_set
        LOCFRAME ISTACK, 0, STACK
        LOCFRAME PSTACK, 0, STACK
        LOCFRAME XSTACK, 9, STACK
        LOCFRAME IOVERLAY, 0, STATIC
        LOCFRAME DOVERLAY, 0, STATIC
        ARGFRAME ISTACK, 0, STACK
        ARGFRAME PSTACK, 0, STACK
        ARGFRAME XSTACK, 9, STACK
        ARGFRAME IOVERLAY, 0, STATIC
        ARGFRAME DOVERLAY, 0, STATIC
        FUNCALL status_led_refresh, network_joined
        LOCFRAME ISTACK, 0, STACK
        LOCFRAME PSTACK, 0, STACK
        LOCFRAME XSTACK, 9, STACK
        LOCFRAME IOVERLAY, 0, STATIC
        LOCFRAME DOVERLAY, 0, STATIC
        ARGFRAME ISTACK, 0, STACK
        ARGFRAME PSTACK, 0, STACK
        ARGFRAME XSTACK, 9, STACK
        ARGFRAME IOVERLAY, 0, STATIC
        ARGFRAME DOVERLAY, 0, STATIC
        FUNCALL status_led_refresh, actuator_led_set
        LOCFRAME ISTACK, 0, STACK
        LOCFRAME PSTACK, 0, STACK
        LOCFRAME XSTACK, 9, STACK
        LOCFRAME IOVERLAY, 0, STATIC
        LOCFRAME DOVERLAY, 0, STATIC
        ARGFRAME ISTACK, 0, STACK
        ARGFRAME PSTACK, 0, STACK
        ARGFRAME XSTACK, 9, STACK
        ARGFRAME IOVERLAY, 0, STATIC
        ARGFRAME DOVERLAY, 0, STATIC
        FUNCALL status_led_refresh, indicator_pin_set
        LOCFRAME ISTACK, 0, STACK
        LOCFRAME PSTACK, 0, STACK
        LOCFRAME XSTACK, 9, STACK
        LOCFRAME IOVERLAY, 0, STATIC
        LOCFRAME DOVERLAY, 0, STATIC
        ARGFRAME ISTACK, 0, STACK
        ARGFRAME PSTACK, 0, STACK
        ARGFRAME XSTACK, 9, STACK
        ARGFRAME IOVERLAY, 0, STATIC
        ARGFRAME DOVERLAY, 0, STATIC
        FUNCALL status_led_refresh, actuator_led_set
        LOCFRAME ISTACK, 0, STACK
        LOCFRAME PSTACK, 0, STACK
        LOCFRAME XSTACK, 9, STACK
        LOCFRAME IOVERLAY, 0, STATIC
        LOCFRAME DOVERLAY, 0, STATIC
        ARGFRAME ISTACK, 0, STACK
        ARGFRAME PSTACK, 0, STACK
        ARGFRAME XSTACK, 9, STACK
        ARGFRAME IOVERLAY, 0, STATIC
        ARGFRAME DOVERLAY, 0, STATIC
        FUNCALL status_led_refresh, indicator_pin_set
        LOCFRAME ISTACK, 0, STACK
        LOCFRAME PSTACK, 0, STACK
        LOCFRAME XSTACK, 9, STACK
        LOCFRAME IOVERLAY, 0, STATIC
        LOCFRAME DOVERLAY, 0, STATIC
        ARGFRAME ISTACK, 0, STACK
        ARGFRAME PSTACK, 0, STACK
        ARGFRAME XSTACK, 9, STACK
        ARGFRAME IOVERLAY, 0, STATIC
        ARGFRAME DOVERLAY, 0, STATIC
        FUNCALL status_led_refresh, actuator_led_set
        LOCFRAME ISTACK, 0, STACK
        LOCFRAME PSTACK, 0, STACK
        LOCFRAME XSTACK, 9, STACK
        LOCFRAME IOVERLAY, 0, STATIC
        LOCFRAME DOVERLAY, 0, STATIC
        ARGFRAME ISTACK, 0, STACK
        ARGFRAME PSTACK, 0, STACK
        ARGFRAME XSTACK, 9, STACK
        ARGFRAME IOVERLAY, 0, STATIC
        ARGFRAME DOVERLAY, 0, STATIC
        FUNCALL status_led_refresh, indicator_pin_set
        LOCFRAME ISTACK, 0, STACK
        LOCFRAME PSTACK, 0, STACK
        LOCFRAME XSTACK, 9, STACK
        LOCFRAME IOVERLAY, 0, STATIC
        LOCFRAME DOVERLAY, 0, STATIC
        ARGFRAME ISTACK, 0, STACK
        ARGFRAME PSTACK, 0, STACK
        ARGFRAME XSTACK, 9, STACK
        ARGFRAME IOVERLAY, 0, STATIC
        ARGFRAME DOVERLAY, 0, STATIC
        MOV     A,#-0x9
        LCALL   ?BANKED_ENTER_XDATA
        CFI DPH0 load(1, XDATA, add(CFA_XSP16, literal(-1)))
        CFI DPL0 load(1, XDATA, add(CFA_XSP16, literal(-2)))
        CFI ?BRET_EXT load(1, XDATA, add(CFA_XSP16, literal(-3)))
        CFI ?RET_HIGH load(1, XDATA, add(CFA_XSP16, literal(-4)))
        CFI ?RET_LOW load(1, XDATA, add(CFA_XSP16, literal(-5)))
        CFI R7 load(1, XDATA, add(CFA_XSP16, literal(-6)))
        CFI V0 load(1, XDATA, add(CFA_XSP16, literal(-7)))
        CFI VB load(1, XDATA, add(CFA_XSP16, literal(-8)))
        CFI R6 load(1, XDATA, add(CFA_XSP16, literal(-9)))
        CFI CFA_SP SP+0
        CFI CFA_XSP16 add(XSP16, 9)
        ; Saved register size: 9
        ; Auto size: 0
//  161     uint8 blink_on;
//  162 
//  163     alive_led_set(1u);
        ; Setup parameters for call to function indicator_pin_set
        MOV     R2,#0x1
        MOV     R1,#0x1
        LCALL   ??indicator_pin_set?relay
//  164 
//  165     if (s_link_ready) {
        MOV     DPTR,#s_link_ready
        MOVX    A,@DPTR
        JZ      ??status_led_refresh_0
//  166         if (s_startup_leds_owned) {
        MOV     DPTR,#s_startup_leds_owned
        MOVX    A,@DPTR
        MOV     R2,#0x0
        JZ      ??status_led_refresh_1
//  167             startup_led_set(0u);
        ; Setup parameters for call to function indicator_pin_set
        MOV     R1,#0x0
        LCALL   ??indicator_pin_set?relay
//  168             actuator_led_set(0u);
        ; Setup parameters for call to function actuator_led_set
        MOV     R1,#0x0
        LCALL   ??actuator_led_set?relay
//  169             s_startup_leds_owned = 0u;
        MOV     DPTR,#s_startup_leds_owned
        CLR     A
        MOVX    @DPTR,A
        SJMP    ??status_led_refresh_2
//  170         } else {
//  171             startup_led_set(0u);
//  172         }
//  173     } else if (network_joining()) {
??status_led_refresh_0:
        MOV     DPTR,#s_nwk_state
        MOVX    A,@DPTR
        XRL     A,#0x2
        JZ      ??status_led_refresh_3
        MOVX    A,@DPTR
        XRL     A,#0x3
        JZ      ??status_led_refresh_3
        MOVX    A,@DPTR
        XRL     A,#0x4
        JZ      ??status_led_refresh_3
        MOVX    A,@DPTR
        XRL     A,#0xa
        JZ      ??status_led_refresh_3
        MOVX    A,@DPTR
        XRL     A,#0x5
        JZ      ??status_led_refresh_3
//  174         s_startup_leds_owned = 1u;
//  175         blink_on = (uint8)((s_status_led_phase % STATUS_LED_FAST_TICKS) <
//  176                            (STATUS_LED_FAST_TICKS / 2u));
//  177         actuator_led_set(0u);
//  178         startup_pattern_set(blink_on);
//  179     } else if (network_joined()) {
        ; Setup parameters for call to function network_joined
        LCALL   ??network_joined?relay
        MOV     A,R1
        MOV     DPTR,#s_startup_leds_owned
        JNZ     ??status_led_refresh_4
//  180         s_startup_leds_owned = 1u;
//  181         actuator_led_set(0u);
//  182         startup_led_set(1u);
//  183     } else {
//  184         s_startup_leds_owned = 1u;
        MOV     A,#0x1
        MOVX    @DPTR,A
//  185         blink_on = (uint8)((s_status_led_phase % STATUS_LED_SLOW_TICKS) <
//  186                            (STATUS_LED_SLOW_TICKS / 2u));
        MOV     DPTR,#s_status_led_phase
        MOVX    A,@DPTR
        MOV     B,#0xa
        DIV     AB
        MOV     A,B
        SUBB    A,#0x5
        JNC     ??status_led_refresh_5
??status_led_refresh_6:
        MOV     R6,#0x1
        SJMP    ??status_led_refresh_7
??status_led_refresh_3:
        MOV     DPTR,#s_startup_leds_owned
        MOV     A,#0x1
        MOVX    @DPTR,A
        MOV     DPTR,#s_status_led_phase
        MOVX    A,@DPTR
        ANL     A,#0x3
        CLR     C
        SUBB    A,#0x2
        JNC     ??status_led_refresh_5
        SJMP    ??status_led_refresh_6
        ; Setup parameters for call to function actuator_led_set
??status_led_refresh_4:
        MOV     A,#0x1
        MOVX    @DPTR,A
        ; Setup parameters for call to function actuator_led_set
        MOV     R1,#0x0
        LCALL   ??actuator_led_set?relay
        ; Setup parameters for call to function indicator_pin_set
        MOV     R2,#0x1
        SJMP    ??status_led_refresh_1
??status_led_refresh_5:
        MOV     R6,#0x0
//  187         actuator_led_set(0u);
??status_led_refresh_7:
        ; Setup parameters for call to function actuator_led_set
        MOV     R1,#0x0
        LCALL   ??actuator_led_set?relay
//  188         startup_pattern_set(blink_on);
        ; Setup parameters for call to function indicator_pin_set
        MOV     A,R6
        MOV     R2,A
??status_led_refresh_1:
        MOV     R1,#0x0
        LCALL   ??indicator_pin_set?relay
        CFI EndBlock cfiBlock8
//  189     }
//  190 }
??status_led_refresh_2:
        REQUIRE ?Subroutine3
        ; // Fall through to label ?Subroutine3

        RSEG BANKED_CODE:CODE:NOROOT(0)
?Subroutine3:
        CFI Block cfiBlock9 Using cfiCommon0
        CFI NoFunction
        CFI CFA_SP SP+0
        CFI CFA_XSP16 add(XSP16, 9)
        CFI VB load(1, XDATA, add(CFA_XSP16, literal(-8)))
        CFI DPL0 load(1, XDATA, add(CFA_XSP16, literal(-2)))
        CFI DPH0 load(1, XDATA, add(CFA_XSP16, literal(-1)))
        CFI R6 load(1, XDATA, add(CFA_XSP16, literal(-9)))
        CFI R7 load(1, XDATA, add(CFA_XSP16, literal(-6)))
        CFI V0 load(1, XDATA, add(CFA_XSP16, literal(-7)))
        CFI ?BRET_EXT load(1, XDATA, add(CFA_XSP16, literal(-3)))
        CFI ?RET_HIGH load(1, XDATA, add(CFA_XSP16, literal(-4)))
        CFI ?RET_LOW load(1, XDATA, add(CFA_XSP16, literal(-5)))
        MOV     R7,#0x1
        LJMP    ?BANKED_LEAVE_XDATA
        CFI EndBlock cfiBlock9
//  191 

        RSEG BANKED_CODE:CODE:NOROOT(0)
//  192 void ZbNode_PreInit(void)
ZbNode_PreInit:
        CFI Block cfiBlock10 Using cfiCommon0
        CFI Function ZbNode_PreInit
        CODE
//  193 {
        FUNCALL ZbNode_PreInit, indicator_pin_init
        LOCFRAME ISTACK, 2, STACK
        LOCFRAME PSTACK, 0, STACK
        LOCFRAME XSTACK, 0, STACK
        LOCFRAME IOVERLAY, 0, STATIC
        LOCFRAME DOVERLAY, 0, STATIC
        ARGFRAME ISTACK, 2, STACK
        ARGFRAME PSTACK, 0, STACK
        ARGFRAME XSTACK, 0, STACK
        ARGFRAME IOVERLAY, 0, STATIC
        ARGFRAME DOVERLAY, 0, STATIC
        FUNCALL ZbNode_PreInit, indicator_pin_init
        LOCFRAME ISTACK, 2, STACK
        LOCFRAME PSTACK, 0, STACK
        LOCFRAME XSTACK, 0, STACK
        LOCFRAME IOVERLAY, 0, STATIC
        LOCFRAME DOVERLAY, 0, STATIC
        ARGFRAME ISTACK, 2, STACK
        ARGFRAME PSTACK, 0, STACK
        ARGFRAME XSTACK, 0, STACK
        ARGFRAME IOVERLAY, 0, STATIC
        ARGFRAME DOVERLAY, 0, STATIC
        FUNCALL ZbNode_PreInit, indicator_pin_init
        LOCFRAME ISTACK, 2, STACK
        LOCFRAME PSTACK, 0, STACK
        LOCFRAME XSTACK, 0, STACK
        LOCFRAME IOVERLAY, 0, STATIC
        LOCFRAME DOVERLAY, 0, STATIC
        ARGFRAME ISTACK, 2, STACK
        ARGFRAME PSTACK, 0, STACK
        ARGFRAME XSTACK, 0, STACK
        ARGFRAME IOVERLAY, 0, STATIC
        ARGFRAME DOVERLAY, 0, STATIC
        FUNCALL ZbNode_PreInit, status_led_refresh
        LOCFRAME ISTACK, 2, STACK
        LOCFRAME PSTACK, 0, STACK
        LOCFRAME XSTACK, 0, STACK
        LOCFRAME IOVERLAY, 0, STATIC
        LOCFRAME DOVERLAY, 0, STATIC
        ARGFRAME ISTACK, 2, STACK
        ARGFRAME PSTACK, 0, STACK
        ARGFRAME XSTACK, 0, STACK
        ARGFRAME IOVERLAY, 0, STATIC
        ARGFRAME DOVERLAY, 0, STATIC
        FUNCALL ZbNode_PreInit, dbg_line
        LOCFRAME ISTACK, 2, STACK
        LOCFRAME PSTACK, 0, STACK
        LOCFRAME XSTACK, 0, STACK
        LOCFRAME IOVERLAY, 0, STATIC
        LOCFRAME DOVERLAY, 0, STATIC
        ARGFRAME ISTACK, 2, STACK
        ARGFRAME PSTACK, 0, STACK
        ARGFRAME XSTACK, 0, STACK
        ARGFRAME IOVERLAY, 0, STATIC
        ARGFRAME DOVERLAY, 0, STATIC
        PUSH    DPL
        CFI DPL0 Frame(CFA_SP, 4)
        CFI CFA_SP SP+-4
        PUSH    DPH
        CFI DPH0 Frame(CFA_SP, 5)
        CFI CFA_SP SP+-5
        ; Saved register size: 2
        ; Auto size: 0
//  194     indicator_pin_init_all();
        ; Setup parameters for call to function indicator_pin_init
        MOV     R1,#0x4
        LCALL   ??indicator_pin_init?relay
        ; Setup parameters for call to function indicator_pin_init
        MOV     R1,#0x0
        LCALL   ??indicator_pin_init?relay
        ; Setup parameters for call to function indicator_pin_init
        MOV     R1,#0x1
        LCALL   ??indicator_pin_init?relay
//  195     s_status_led_phase = 0;
        MOV     DPTR,#s_status_led_phase
        CLR     A
        MOVX    @DPTR,A
//  196     s_startup_leds_owned = 1u;
        MOV     DPTR,#s_startup_leds_owned
        INC     A
        LCALL   ?Subroutine6 & 0xFFFF
//  197     s_nwk_joined = 0;
//  198     s_link_ready = 0;
//  199     s_wait_first_report_cfm = 0;
//  200     s_nwk_state = DEV_INIT;
//  201     status_led_refresh();
??CrossCallReturnLabel_2:
        ; Setup parameters for call to function status_led_refresh
        LCALL   ??status_led_refresh?relay
//  202     dbg_line("[boot] keep NV network state, try restore existing PAN");
        ; Setup parameters for call to function dbg_line
        MOV     R2,#`?<Constant "[boot] keep NV networ...">` & 0xff
        MOV     R3,#(`?<Constant "[boot] keep NV networ...">` >> 8) & 0xff
        LCALL   ??dbg_line?relay
        CFI EndBlock cfiBlock10
//  203 }
        REQUIRE ?Subroutine1
        ; // Fall through to label ?Subroutine1

        RSEG BANKED_CODE:CODE:NOROOT(0)
?Subroutine1:
        CFI Block cfiBlock11 Using cfiCommon0
        CFI NoFunction
        CFI CFA_SP SP+-5
        CFI DPL0 Frame(CFA_SP, 4)
        CFI DPH0 Frame(CFA_SP, 5)
        POP     DPH
        CFI CFA_SP SP+-4
        CFI DPH0 SameValue
        POP     DPL
        CFI CFA_SP SP+-3
        CFI DPL0 SameValue
        LJMP    ?BRET
        CFI EndBlock cfiBlock11
//  204 

        RSEG BANKED_CODE:CODE:NOROOT(0)
//  205 static uint8 network_ready(void)
network_ready:
        CFI Block cfiBlock12 Using cfiCommon0
        CFI Function network_ready
        CODE
//  206 {
        FUNCALL network_ready, network_joined
        LOCFRAME ISTACK, 2, STACK
        LOCFRAME PSTACK, 0, STACK
        LOCFRAME XSTACK, 0, STACK
        LOCFRAME IOVERLAY, 0, STATIC
        LOCFRAME DOVERLAY, 0, STATIC
        ARGFRAME ISTACK, 2, STACK
        ARGFRAME PSTACK, 0, STACK
        ARGFRAME XSTACK, 0, STACK
        ARGFRAME IOVERLAY, 0, STATIC
        ARGFRAME DOVERLAY, 0, STATIC
        PUSH    DPL
        CFI DPL0 Frame(CFA_SP, 4)
        CFI CFA_SP SP+-4
        PUSH    DPH
        CFI DPH0 Frame(CFA_SP, 5)
        CFI CFA_SP SP+-5
        ; Saved register size: 2
        ; Auto size: 0
//  207     return s_nwk_joined &&
//  208            network_joined();
        MOV     DPTR,#s_nwk_joined
        MOVX    A,@DPTR
        JZ      ??network_ready_0
        ; Setup parameters for call to function network_joined
        LCALL   ??network_joined?relay
        MOV     A,R1
        JZ      ??network_ready_0
        MOV     R1,#0x1
        SJMP    ??network_ready_1
??network_ready_0:
        MOV     R1,#0x0
??network_ready_1:
        SJMP    ?Subroutine1
        CFI EndBlock cfiBlock12
//  209 }
//  210 

        RSEG BANKED_CODE:CODE:NOROOT(0)
//  211 static void note_local_sample_failure(int8 rc)
note_local_sample_failure:
        CFI Block cfiBlock13 Using cfiCommon0
        CFI Function note_local_sample_failure
        CODE
//  212 {
        PUSH    DPL
        CFI DPL0 Frame(CFA_SP, 4)
        CFI CFA_SP SP+-4
        PUSH    DPH
        CFI DPH0 Frame(CFA_SP, 5)
        CFI CFA_SP SP+-5
        ; Saved register size: 2
        ; Auto size: 0
//  213     s_report_diag.last_result = rc;
        MOV     A,R1
        MOV     DPTR,#s_report_diag
        MOVX    @DPTR,A
//  214     s_report_diag.fail_count++;
        MOV     DPTR,#s_report_diag + 4
        MOVX    A,@DPTR
        INC     A
        MOVX    @DPTR,A
//  215     s_report_diag.consecutive_fail++;
        INC     DPTR
        MOVX    A,@DPTR
        INC     A
        MOVX    @DPTR,A
//  216 }
        SJMP    ?Subroutine1
        CFI EndBlock cfiBlock13
//  217 

        RSEG BANKED_CODE:CODE:NOROOT(0)
//  218 static void note_transport_failure(int8 rc)
note_transport_failure:
        CFI Block cfiBlock14 Using cfiCommon0
        CFI Function note_transport_failure
        CODE
//  219 {
        FUNCALL note_transport_failure, note_local_sample_failure
        LOCFRAME ISTACK, 0, STACK
        LOCFRAME PSTACK, 0, STACK
        LOCFRAME XSTACK, 9, STACK
        LOCFRAME IOVERLAY, 0, STATIC
        LOCFRAME DOVERLAY, 0, STATIC
        ARGFRAME ISTACK, 0, STACK
        ARGFRAME PSTACK, 0, STACK
        ARGFRAME XSTACK, 9, STACK
        ARGFRAME IOVERLAY, 0, STATIC
        ARGFRAME DOVERLAY, 0, STATIC
        FUNCALL note_transport_failure, network_ready
        LOCFRAME ISTACK, 0, STACK
        LOCFRAME PSTACK, 0, STACK
        LOCFRAME XSTACK, 9, STACK
        LOCFRAME IOVERLAY, 0, STATIC
        LOCFRAME DOVERLAY, 0, STATIC
        ARGFRAME ISTACK, 0, STACK
        ARGFRAME PSTACK, 0, STACK
        ARGFRAME XSTACK, 9, STACK
        ARGFRAME IOVERLAY, 0, STATIC
        ARGFRAME DOVERLAY, 0, STATIC
        FUNCALL note_transport_failure, osal_start_timerEx
        LOCFRAME ISTACK, 0, STACK
        LOCFRAME PSTACK, 0, STACK
        LOCFRAME XSTACK, 9, STACK
        LOCFRAME IOVERLAY, 0, STATIC
        LOCFRAME DOVERLAY, 0, STATIC
        ARGFRAME ISTACK, 0, STACK
        ARGFRAME PSTACK, 0, STACK
        ARGFRAME XSTACK, 9, STACK
        ARGFRAME IOVERLAY, 0, STATIC
        ARGFRAME DOVERLAY, 0, STATIC
        MOV     A,#-0x9
        LCALL   ?BANKED_ENTER_XDATA
        CFI DPH0 load(1, XDATA, add(CFA_XSP16, literal(-1)))
        CFI DPL0 load(1, XDATA, add(CFA_XSP16, literal(-2)))
        CFI ?BRET_EXT load(1, XDATA, add(CFA_XSP16, literal(-3)))
        CFI ?RET_HIGH load(1, XDATA, add(CFA_XSP16, literal(-4)))
        CFI ?RET_LOW load(1, XDATA, add(CFA_XSP16, literal(-5)))
        CFI R7 load(1, XDATA, add(CFA_XSP16, literal(-6)))
        CFI V0 load(1, XDATA, add(CFA_XSP16, literal(-7)))
        CFI VB load(1, XDATA, add(CFA_XSP16, literal(-8)))
        CFI R6 load(1, XDATA, add(CFA_XSP16, literal(-9)))
        CFI CFA_SP SP+0
        CFI CFA_XSP16 add(XSP16, 9)
        ; Saved register size: 9
        ; Auto size: 0
//  220     note_local_sample_failure(rc);
        ; Setup parameters for call to function note_local_sample_failure
        LCALL   ??note_local_sample_failure?relay
//  221 
//  222     if (network_ready()) {
        ; Setup parameters for call to function network_ready
        LCALL   ??network_ready?relay
        MOV     A,R1
        JZ      ??note_transport_failure_0
//  223         (void)osal_start_timerEx(ZbNode_TaskID, ZN_EVT_REPORT_RETRY, REPORT_RETRY_MS);
        ; Setup parameters for call to function osal_start_timerEx
        MOV     R4,#-0x38
        MOV     R5,#0x0
        MOV     R2,#0x2
        MOV     R3,#0x0
        MOV     DPTR,#ZbNode_TaskID
        MOVX    A,@DPTR
        MOV     R1,A
        LCALL   ??osal_start_timerEx?relay
//  224     }
//  225 }
??note_transport_failure_0:
        LJMP    ?Subroutine3 & 0xFFFF
        CFI EndBlock cfiBlock14
//  226 

        RSEG BANKED_CODE:CODE:NOROOT(0)
//  227 static int8 send_attr_report(uint8 src_ep, uint16 cluster, uint16 attrId,
send_attr_report:
        CFI Block cfiBlock15 Using cfiCommon0
        CFI Function send_attr_report
        CODE
//  228                              uint8 dtype, const void *val, uint8 vlen)
//  229 {
        FUNCALL send_attr_report, zcl_report_send
        LOCFRAME ISTACK, 0, STACK
        LOCFRAME PSTACK, 0, STACK
        LOCFRAME XSTACK, 15, STACK
        LOCFRAME IOVERLAY, 0, STATIC
        LOCFRAME DOVERLAY, 0, STATIC
        ARGFRAME ISTACK, 0, STACK
        ARGFRAME PSTACK, 0, STACK
        ARGFRAME XSTACK, 15, STACK
        ARGFRAME IOVERLAY, 0, STATIC
        ARGFRAME DOVERLAY, 0, STATIC
        FUNCALL send_attr_report, note_transport_failure
        LOCFRAME ISTACK, 0, STACK
        LOCFRAME PSTACK, 0, STACK
        LOCFRAME XSTACK, 11, STACK
        LOCFRAME IOVERLAY, 0, STATIC
        LOCFRAME DOVERLAY, 0, STATIC
        ARGFRAME ISTACK, 0, STACK
        ARGFRAME PSTACK, 0, STACK
        ARGFRAME XSTACK, 11, STACK
        ARGFRAME IOVERLAY, 0, STATIC
        ARGFRAME DOVERLAY, 0, STATIC
        MOV     A,#-0xb
        LCALL   ?BANKED_ENTER_XDATA
        CFI DPH0 load(1, XDATA, add(CFA_XSP16, literal(-1)))
        CFI DPL0 load(1, XDATA, add(CFA_XSP16, literal(-2)))
        CFI ?BRET_EXT load(1, XDATA, add(CFA_XSP16, literal(-3)))
        CFI ?RET_HIGH load(1, XDATA, add(CFA_XSP16, literal(-4)))
        CFI ?RET_LOW load(1, XDATA, add(CFA_XSP16, literal(-5)))
        CFI R7 load(1, XDATA, add(CFA_XSP16, literal(-6)))
        CFI V2 load(1, XDATA, add(CFA_XSP16, literal(-7)))
        CFI V1 load(1, XDATA, add(CFA_XSP16, literal(-8)))
        CFI V0 load(1, XDATA, add(CFA_XSP16, literal(-9)))
        CFI VB load(1, XDATA, add(CFA_XSP16, literal(-10)))
        CFI R6 load(1, XDATA, add(CFA_XSP16, literal(-11)))
        CFI CFA_SP SP+0
        CFI CFA_XSP16 add(XSP16, 11)
        ; Saved register size: 11
        ; Auto size: 0
        MOV     A,R1
        MOV     R7,A
        MOV     A,#0xb
        LCALL   ?XSTACK_DISP0_8
        MOVX    A,@DPTR
        MOV     R1,A
        MOV     A,#0xc
        LCALL   ?XSTACK_DISP0_8
        MOVX    A,@DPTR
        MOV     ?V0 + 0,A
        INC     DPTR
        MOVX    A,@DPTR
        MOV     ?V0 + 1,A
        MOV     A,#0xe
        LCALL   ?XSTACK_DISP0_8
        MOVX    A,@DPTR
//  230     int8 rc;
//  231 
//  232     rc = zcl_report_send(src_ep, cluster, attrId, dtype, val, vlen);
        ; Setup parameters for call to function zcl_report_send
        MOV     ?V0 + 2,A
        MOV     R0,#?V0 + 2
        LCALL   ?PUSH_XSTACK_I_ONE
        CFI CFA_XSP16 add(XSP16, 12)
        MOV     R0,#?V0 + 0
        LCALL   ?PUSH_XSTACK_I_TWO
        CFI CFA_XSP16 add(XSP16, 14)
        MOV     A,R1
        MOV     ?V0 + 0,A
        MOV     R0,#?V0 + 0
        LCALL   ?PUSH_XSTACK_I_ONE
        CFI CFA_XSP16 add(XSP16, 15)
        MOV     A,R7
        MOV     R1,A
        LCALL   ??zcl_report_send?relay
        MOV     A,#0x4
        LCALL   ?DEALLOC_XSTACK8
        CFI CFA_XSP16 add(XSP16, 11)
        MOV     A,R1
        MOV     R6,A
//  233     s_report_diag.last_result = rc;
        MOV     DPTR,#s_report_diag
        MOVX    @DPTR,A
//  234     if (rc == 0) {
        JNZ     ??send_attr_report_0
//  235         s_report_diag.pending_reports++;
        MOV     DPTR,#s_report_diag + 3
        MOVX    A,@DPTR
        INC     A
        MOVX    @DPTR,A
        SJMP    ??send_attr_report_1
//  236     } else {
//  237         note_transport_failure(rc);
??send_attr_report_0:
        ; Setup parameters for call to function note_transport_failure
        LCALL   ??note_transport_failure?relay
//  238     }
//  239     return rc;
??send_attr_report_1:
        MOV     A,R6
        MOV     R1,A
        MOV     R7,#0x3
        LJMP    ?BANKED_LEAVE_XDATA
        CFI EndBlock cfiBlock15
//  240 }
//  241 

        RSEG BANKED_CODE:CODE:NOROOT(0)
//  242 static void register_endpoints(void)
register_endpoints:
        CFI Block cfiBlock16 Using cfiCommon0
        CFI Function register_endpoints
        CODE
//  243 {
        FUNCALL register_endpoints, afRegister
        LOCFRAME ISTACK, 2, STACK
        LOCFRAME PSTACK, 0, STACK
        LOCFRAME XSTACK, 0, STACK
        LOCFRAME IOVERLAY, 0, STATIC
        LOCFRAME DOVERLAY, 0, STATIC
        ARGFRAME ISTACK, 2, STACK
        ARGFRAME PSTACK, 0, STACK
        ARGFRAME XSTACK, 0, STACK
        ARGFRAME IOVERLAY, 0, STATIC
        ARGFRAME DOVERLAY, 0, STATIC
        FUNCALL register_endpoints, afRegister
        LOCFRAME ISTACK, 2, STACK
        LOCFRAME PSTACK, 0, STACK
        LOCFRAME XSTACK, 0, STACK
        LOCFRAME IOVERLAY, 0, STATIC
        LOCFRAME DOVERLAY, 0, STATIC
        ARGFRAME ISTACK, 2, STACK
        ARGFRAME PSTACK, 0, STACK
        ARGFRAME XSTACK, 0, STACK
        ARGFRAME IOVERLAY, 0, STATIC
        ARGFRAME DOVERLAY, 0, STATIC
        PUSH    DPL
        CFI DPL0 Frame(CFA_SP, 4)
        CFI CFA_SP SP+-4
        PUSH    DPH
        CFI DPH0 Frame(CFA_SP, 5)
        CFI CFA_SP SP+-5
        ; Saved register size: 2
        ; Auto size: 0
//  244     s_sd1.EndPoint           = ZBNODE_EP_SENSOR;
        MOV     DPTR,#s_sd1
        MOV     A,#0x1
        LCALL   ?Subroutine5 & 0xFFFF
//  245     s_sd1.AppProfId          = ZBNODE_PROFILE_ID;
//  246     s_sd1.AppDeviceId        = ZBNODE_DEVICE_ID;
//  247     s_sd1.AppDevVer          = ZBNODE_DEVICE_VER;
//  248     s_sd1.Reserved           = 0;
//  249     s_sd1.AppNumInClusters   = sizeof(s_in_sensor) / sizeof(s_in_sensor[0]);
//  250     s_sd1.pAppInClusterList  = s_in_sensor;
??CrossCallReturnLabel_0:
        MOV     A,#s_in_sensor & 0xff
        MOVX    @DPTR,A
        INC     DPTR
        MOV     A,#(s_in_sensor >> 8) & 0xff
        MOVX    @DPTR,A
//  251     s_sd1.AppNumOutClusters  = sizeof(s_out_sensor) / sizeof(s_out_sensor[0]);
        INC     DPTR
        MOV     A,#0x3
        MOVX    @DPTR,A
//  252     s_sd1.pAppOutClusterList = s_out_sensor;
        INC     DPTR
        MOV     A,#s_out_sensor & 0xff
        MOVX    @DPTR,A
        INC     DPTR
        MOV     A,#(s_out_sensor >> 8) & 0xff
        MOVX    @DPTR,A
//  253 
//  254     s_ep1.endPoint   = ZBNODE_EP_SENSOR;
        MOV     DPTR,#s_ep1
        MOV     A,#0x1
        LCALL   ?Subroutine7 & 0xFFFF
//  255     s_ep1.task_id    = &ZbNode_TaskID;
//  256     s_ep1.simpleDesc = &s_sd1;
??CrossCallReturnLabel_4:
        MOV     A,#s_sd1 & 0xff
        MOVX    @DPTR,A
        INC     DPTR
        MOV     A,#(s_sd1 >> 8) & 0xff
        MOVX    @DPTR,A
//  257     s_ep1.latencyReq = noLatencyReqs;
        INC     DPTR
        CLR     A
        MOVX    @DPTR,A
//  258     afRegister(&s_ep1);
        ; Setup parameters for call to function afRegister
        MOV     R2,#s_ep1 & 0xff
        MOV     R3,#(s_ep1 >> 8) & 0xff
        LCALL   ??afRegister?relay
//  259 
//  260     s_sd2.EndPoint           = ZBNODE_EP_BUZZER;
        MOV     DPTR,#s_sd2
        MOV     A,#0x2
        LCALL   ?Subroutine5 & 0xFFFF
//  261     s_sd2.AppProfId          = ZBNODE_PROFILE_ID;
//  262     s_sd2.AppDeviceId        = ZBNODE_DEVICE_ID;
//  263     s_sd2.AppDevVer          = ZBNODE_DEVICE_VER;
//  264     s_sd2.Reserved           = 0;
//  265     s_sd2.AppNumInClusters   = sizeof(s_in_buzzer) / sizeof(s_in_buzzer[0]);
//  266     s_sd2.pAppInClusterList  = s_in_buzzer;
??CrossCallReturnLabel_1:
        MOV     A,#s_in_buzzer & 0xff
        MOVX    @DPTR,A
        INC     DPTR
        MOV     A,#(s_in_buzzer >> 8) & 0xff
        MOVX    @DPTR,A
//  267     s_sd2.AppNumOutClusters  = sizeof(s_out_buzzer) / sizeof(s_out_buzzer[0]);
        INC     DPTR
        MOV     A,#0x1
        MOVX    @DPTR,A
//  268     s_sd2.pAppOutClusterList = s_out_buzzer;
        INC     DPTR
        MOV     A,#s_out_buzzer & 0xff
        MOVX    @DPTR,A
        INC     DPTR
        MOV     A,#(s_out_buzzer >> 8) & 0xff
        MOVX    @DPTR,A
//  269 
//  270     s_ep2.endPoint   = ZBNODE_EP_BUZZER;
        MOV     DPTR,#s_ep2
        MOV     A,#0x2
        LCALL   ?Subroutine7 & 0xFFFF
//  271     s_ep2.task_id    = &ZbNode_TaskID;
//  272     s_ep2.simpleDesc = &s_sd2;
??CrossCallReturnLabel_5:
        MOV     A,#s_sd2 & 0xff
        MOVX    @DPTR,A
        INC     DPTR
        MOV     A,#(s_sd2 >> 8) & 0xff
        MOVX    @DPTR,A
//  273     s_ep2.latencyReq = noLatencyReqs;
        INC     DPTR
        CLR     A
        MOVX    @DPTR,A
//  274     afRegister(&s_ep2);
        ; Setup parameters for call to function afRegister
        MOV     R2,#s_ep2 & 0xff
        MOV     R3,#(s_ep2 >> 8) & 0xff
        LCALL   ??afRegister?relay
//  275 }
        LJMP    ?Subroutine1 & 0xFFFF
        CFI EndBlock cfiBlock16

        RSEG BANKED_CODE:CODE:NOROOT(0)
?Subroutine7:
        CFI Block cfiCond17 Using cfiCommon0
        CFI NoFunction
        CFI Conditional ??CrossCallReturnLabel_4
        CFI DPL0 Frame(CFA_SP, 4)
        CFI DPH0 Frame(CFA_SP, 5)
        CFI CFA_SP SP+-5
        CFI Block cfiCond18 Using cfiCommon0
        CFI (cfiCond18) NoFunction
        CFI (cfiCond18) Conditional ??CrossCallReturnLabel_5
        CFI (cfiCond18) DPL0 Frame(CFA_SP, 4)
        CFI (cfiCond18) DPH0 Frame(CFA_SP, 5)
        CFI (cfiCond18) CFA_SP SP+-5
        CFI Block cfiPicker19 Using cfiCommon1
        CFI (cfiPicker19) NoFunction
        CFI (cfiPicker19) Picker
        MOVX    @DPTR,A
        INC     DPTR
        MOV     A,#ZbNode_TaskID & 0xff
        MOVX    @DPTR,A
        INC     DPTR
        MOV     A,#(ZbNode_TaskID >> 8) & 0xff
        MOVX    @DPTR,A
        INC     DPTR
        RET
        CFI EndBlock cfiCond17
        CFI EndBlock cfiCond18
        CFI EndBlock cfiPicker19

        RSEG BANKED_CODE:CODE:NOROOT(0)
?Subroutine5:
        CFI Block cfiCond20 Using cfiCommon0
        CFI NoFunction
        CFI Conditional ??CrossCallReturnLabel_0
        CFI DPL0 Frame(CFA_SP, 4)
        CFI DPH0 Frame(CFA_SP, 5)
        CFI CFA_SP SP+-5
        CFI Block cfiCond21 Using cfiCommon0
        CFI (cfiCond21) NoFunction
        CFI (cfiCond21) Conditional ??CrossCallReturnLabel_1
        CFI (cfiCond21) DPL0 Frame(CFA_SP, 4)
        CFI (cfiCond21) DPH0 Frame(CFA_SP, 5)
        CFI (cfiCond21) CFA_SP SP+-5
        CFI Block cfiPicker22 Using cfiCommon1
        CFI (cfiPicker22) NoFunction
        CFI (cfiPicker22) Picker
        MOVX    @DPTR,A
        INC     DPTR
        MOV     A,#0x4
        MOVX    @DPTR,A
        INC     DPTR
        MOV     A,#0x1
        MOVX    @DPTR,A
        INC     DPTR
        CLR     A
        MOVX    @DPTR,A
        INC     DPTR
        MOVX    @DPTR,A
        INC     DPTR
        INC     A
        MOVX    @DPTR,A
        INC     DPTR
        MOVX    @DPTR,A
        INC     DPTR
        RET
        CFI EndBlock cfiCond20
        CFI EndBlock cfiCond21
        CFI EndBlock cfiPicker22
//  276 

        RSEG BANKED_CODE:CODE:NOROOT(0)
//  277 void ZbNode_Init(uint8 task_id)
ZbNode_Init:
        CFI Block cfiBlock23 Using cfiCommon0
        CFI Function ZbNode_Init
        CODE
//  278 {
        FUNCALL ZbNode_Init, osal_memset
        LOCFRAME ISTACK, 0, STACK
        LOCFRAME PSTACK, 0, STACK
        LOCFRAME XSTACK, 38, STACK
        LOCFRAME IOVERLAY, 0, STATIC
        LOCFRAME DOVERLAY, 0, STATIC
        ARGFRAME ISTACK, 0, STACK
        ARGFRAME PSTACK, 0, STACK
        ARGFRAME XSTACK, 38, STACK
        ARGFRAME IOVERLAY, 0, STATIC
        ARGFRAME DOVERLAY, 0, STATIC
        FUNCALL ZbNode_Init, osal_memset
        LOCFRAME ISTACK, 0, STACK
        LOCFRAME PSTACK, 0, STACK
        LOCFRAME XSTACK, 38, STACK
        LOCFRAME IOVERLAY, 0, STATIC
        LOCFRAME DOVERLAY, 0, STATIC
        ARGFRAME ISTACK, 0, STACK
        ARGFRAME PSTACK, 0, STACK
        ARGFRAME XSTACK, 38, STACK
        ARGFRAME IOVERLAY, 0, STATIC
        ARGFRAME DOVERLAY, 0, STATIC
        FUNCALL ZbNode_Init, HalUARTOpen
        LOCFRAME ISTACK, 0, STACK
        LOCFRAME PSTACK, 0, STACK
        LOCFRAME XSTACK, 38, STACK
        LOCFRAME IOVERLAY, 0, STATIC
        LOCFRAME DOVERLAY, 0, STATIC
        ARGFRAME ISTACK, 0, STACK
        ARGFRAME PSTACK, 0, STACK
        ARGFRAME XSTACK, 38, STACK
        ARGFRAME IOVERLAY, 0, STATIC
        ARGFRAME DOVERLAY, 0, STATIC
        FUNCALL ZbNode_Init, actuator_init
        LOCFRAME ISTACK, 0, STACK
        LOCFRAME PSTACK, 0, STACK
        LOCFRAME XSTACK, 38, STACK
        LOCFRAME IOVERLAY, 0, STATIC
        LOCFRAME DOVERLAY, 0, STATIC
        ARGFRAME ISTACK, 0, STACK
        ARGFRAME PSTACK, 0, STACK
        ARGFRAME XSTACK, 38, STACK
        ARGFRAME IOVERLAY, 0, STATIC
        ARGFRAME DOVERLAY, 0, STATIC
        FUNCALL ZbNode_Init, dht11_init
        LOCFRAME ISTACK, 0, STACK
        LOCFRAME PSTACK, 0, STACK
        LOCFRAME XSTACK, 38, STACK
        LOCFRAME IOVERLAY, 0, STATIC
        LOCFRAME DOVERLAY, 0, STATIC
        ARGFRAME ISTACK, 0, STACK
        ARGFRAME PSTACK, 0, STACK
        ARGFRAME XSTACK, 38, STACK
        ARGFRAME IOVERLAY, 0, STATIC
        ARGFRAME DOVERLAY, 0, STATIC
        FUNCALL ZbNode_Init, register_endpoints
        LOCFRAME ISTACK, 0, STACK
        LOCFRAME PSTACK, 0, STACK
        LOCFRAME XSTACK, 38, STACK
        LOCFRAME IOVERLAY, 0, STATIC
        LOCFRAME DOVERLAY, 0, STATIC
        ARGFRAME ISTACK, 0, STACK
        ARGFRAME PSTACK, 0, STACK
        ARGFRAME XSTACK, 38, STACK
        ARGFRAME IOVERLAY, 0, STATIC
        ARGFRAME DOVERLAY, 0, STATIC
        FUNCALL ZbNode_Init, node_oled_view_init
        LOCFRAME ISTACK, 0, STACK
        LOCFRAME PSTACK, 0, STACK
        LOCFRAME XSTACK, 38, STACK
        LOCFRAME IOVERLAY, 0, STATIC
        LOCFRAME DOVERLAY, 0, STATIC
        ARGFRAME ISTACK, 0, STACK
        ARGFRAME PSTACK, 0, STACK
        ARGFRAME XSTACK, 38, STACK
        ARGFRAME IOVERLAY, 0, STATIC
        ARGFRAME DOVERLAY, 0, STATIC
        FUNCALL ZbNode_Init, oled_publish
        LOCFRAME ISTACK, 0, STACK
        LOCFRAME PSTACK, 0, STACK
        LOCFRAME XSTACK, 38, STACK
        LOCFRAME IOVERLAY, 0, STATIC
        LOCFRAME DOVERLAY, 0, STATIC
        ARGFRAME ISTACK, 0, STACK
        ARGFRAME PSTACK, 0, STACK
        ARGFRAME XSTACK, 38, STACK
        ARGFRAME IOVERLAY, 0, STATIC
        ARGFRAME DOVERLAY, 0, STATIC
        FUNCALL ZbNode_Init, node_oled_view_refresh
        LOCFRAME ISTACK, 0, STACK
        LOCFRAME PSTACK, 0, STACK
        LOCFRAME XSTACK, 38, STACK
        LOCFRAME IOVERLAY, 0, STATIC
        LOCFRAME DOVERLAY, 0, STATIC
        ARGFRAME ISTACK, 0, STACK
        ARGFRAME PSTACK, 0, STACK
        ARGFRAME XSTACK, 38, STACK
        ARGFRAME IOVERLAY, 0, STATIC
        ARGFRAME DOVERLAY, 0, STATIC
        FUNCALL ZbNode_Init, osal_start_reload_timer
        LOCFRAME ISTACK, 0, STACK
        LOCFRAME PSTACK, 0, STACK
        LOCFRAME XSTACK, 38, STACK
        LOCFRAME IOVERLAY, 0, STATIC
        LOCFRAME DOVERLAY, 0, STATIC
        ARGFRAME ISTACK, 0, STACK
        ARGFRAME PSTACK, 0, STACK
        ARGFRAME XSTACK, 38, STACK
        ARGFRAME IOVERLAY, 0, STATIC
        ARGFRAME DOVERLAY, 0, STATIC
        FUNCALL ZbNode_Init, osal_start_reload_timer
        LOCFRAME ISTACK, 0, STACK
        LOCFRAME PSTACK, 0, STACK
        LOCFRAME XSTACK, 38, STACK
        LOCFRAME IOVERLAY, 0, STATIC
        LOCFRAME DOVERLAY, 0, STATIC
        ARGFRAME ISTACK, 0, STACK
        ARGFRAME PSTACK, 0, STACK
        ARGFRAME XSTACK, 38, STACK
        ARGFRAME IOVERLAY, 0, STATIC
        ARGFRAME DOVERLAY, 0, STATIC
        FUNCALL ZbNode_Init, status_led_refresh
        LOCFRAME ISTACK, 0, STACK
        LOCFRAME PSTACK, 0, STACK
        LOCFRAME XSTACK, 38, STACK
        LOCFRAME IOVERLAY, 0, STATIC
        LOCFRAME DOVERLAY, 0, STATIC
        ARGFRAME ISTACK, 0, STACK
        ARGFRAME PSTACK, 0, STACK
        ARGFRAME XSTACK, 38, STACK
        ARGFRAME IOVERLAY, 0, STATIC
        ARGFRAME DOVERLAY, 0, STATIC
        FUNCALL ZbNode_Init, dbg_line
        LOCFRAME ISTACK, 0, STACK
        LOCFRAME PSTACK, 0, STACK
        LOCFRAME XSTACK, 38, STACK
        LOCFRAME IOVERLAY, 0, STATIC
        LOCFRAME DOVERLAY, 0, STATIC
        ARGFRAME ISTACK, 0, STACK
        ARGFRAME PSTACK, 0, STACK
        ARGFRAME XSTACK, 38, STACK
        ARGFRAME IOVERLAY, 0, STATIC
        ARGFRAME DOVERLAY, 0, STATIC
        MOV     A,#-0x9
        LCALL   ?BANKED_ENTER_XDATA
        CFI DPH0 load(1, XDATA, add(CFA_XSP16, literal(-1)))
        CFI DPL0 load(1, XDATA, add(CFA_XSP16, literal(-2)))
        CFI ?BRET_EXT load(1, XDATA, add(CFA_XSP16, literal(-3)))
        CFI ?RET_HIGH load(1, XDATA, add(CFA_XSP16, literal(-4)))
        CFI ?RET_LOW load(1, XDATA, add(CFA_XSP16, literal(-5)))
        CFI R7 load(1, XDATA, add(CFA_XSP16, literal(-6)))
        CFI V0 load(1, XDATA, add(CFA_XSP16, literal(-7)))
        CFI VB load(1, XDATA, add(CFA_XSP16, literal(-8)))
        CFI R6 load(1, XDATA, add(CFA_XSP16, literal(-9)))
        CFI CFA_SP SP+0
        CFI CFA_XSP16 add(XSP16, 9)
        ; Saved register size: 9
        ; Auto size: 29
        MOV     A,#-0x1d
        LCALL   ?ALLOC_XSTACK8
        CFI CFA_XSP16 add(XSP16, 38)
        MOV     A,R1
//  279     ZbNode_TaskID = task_id;
        MOV     DPTR,#ZbNode_TaskID
        LCALL   ?Subroutine6 & 0xFFFF
//  280     s_nwk_joined = 0;
//  281     s_link_ready = 0;
//  282     s_wait_first_report_cfm = 0;
//  283     s_nwk_state = DEV_INIT;
//  284     s_status_led_phase = 0;
??CrossCallReturnLabel_3:
        MOV     DPTR,#s_status_led_phase
        CLR     A
        MOVX    @DPTR,A
//  285     s_startup_leds_owned = 1u;
        MOV     DPTR,#s_startup_leds_owned
        INC     A
        MOVX    @DPTR,A
//  286     osal_memset(&s_report_diag, 0, sizeof(s_report_diag));
        ; Setup parameters for call to function osal_memset
        MOV     R4,#0x6
        MOV     R5,#0x0
        MOV     R1,#0x0
        MOV     R2,#s_report_diag & 0xff
        MOV     R3,#(s_report_diag >> 8) & 0xff
        LCALL   ??osal_memset?relay
//  287 
//  288     /* 打开 UART0 (P0.2/P0.3 → CH340G → USB) 115200 用于节点侧日志输出。
//  289      * 直接调 HalUARTOpen 而不用 MT_UartInit：Node1/Node2 build 里没有
//  290      * ZTOOL_P1 / ZAPP_P1 宏 → MT_UART_DEFAULT_PORT 未定义 → MT_UartInit
//  291      * 会静默跳过 HalUARTOpen（见 Components/mt/MT_UART.c:124 的条件编译）。 */
//  292     {
//  293         halUARTCfg_t cfg;
//  294         osal_memset(&cfg, 0, sizeof(cfg));
        ; Setup parameters for call to function osal_memset
        MOV     R4,#0x1d
        MOV     R5,#0x0
        MOV     R1,#0x0
        MOV     DPL,?XSP + 0
        MOV     DPH,?XSP + 1
        MOV     R2,DPL
        MOV     R3,DPH
        LCALL   ??osal_memset?relay
//  295         cfg.configured           = TRUE;
        MOV     DPL,?XSP + 0
        MOV     DPH,?XSP + 1
        MOV     A,#0x1
        MOVX    @DPTR,A
//  296         cfg.baudRate             = HAL_UART_BR_115200;
        LCALL   ?XSTACK_DISP0_8
        MOV     A,#0x4
        MOVX    @DPTR,A
//  297         cfg.flowControl          = FALSE;
        MOV     A,#0x2
        LCALL   ?XSTACK_DISP0_8
        CLR     A
        MOVX    @DPTR,A
//  298         cfg.flowControlThreshold = 0;
        MOV     A,#0x3
        LCALL   ?XSTACK_DISP0_8
        CLR     A
        MOVX    @DPTR,A
        INC     DPTR
        MOVX    @DPTR,A
//  299         cfg.rx.maxBufSize        = 64;
        MOV     A,#0xa
        LCALL   ?XSTACK_DISP0_8
        MOV     A,#0x40
        MOVX    @DPTR,A
        INC     DPTR
        CLR     A
        MOVX    @DPTR,A
//  300         cfg.tx.maxBufSize        = 128;
        MOV     A,#0x12
        LCALL   ?XSTACK_DISP0_8
        MOV     A,#-0x80
        MOVX    @DPTR,A
        INC     DPTR
        CLR     A
        MOVX    @DPTR,A
//  301         cfg.idleTimeout          = 6;
        MOV     A,#0x5
        LCALL   ?XSTACK_DISP0_8
        MOV     A,#0x6
        MOVX    @DPTR,A
//  302         cfg.intEnable            = TRUE;
        MOV     A,#0x16
        LCALL   ?XSTACK_DISP0_8
        MOV     A,#0x1
        MOVX    @DPTR,A
//  303         cfg.callBackFunc         = NULL;   /* 节点只 TX 不 RX */
        MOV     A,#0x1b
        LCALL   ?XSTACK_DISP0_8
        CLR     A
        MOVX    @DPTR,A
        INC     DPTR
        MOVX    @DPTR,A
//  304         (void)HalUARTOpen(HAL_UART_PORT_0, &cfg);
        ; Setup parameters for call to function HalUARTOpen
        MOV     DPL,?XSP + 0
        MOV     DPH,?XSP + 1
        MOV     R2,DPL
        MOV     R3,DPH
        MOV     R1,A
        LCALL   ??HalUARTOpen?relay
//  305     }
//  306 
//  307     actuator_init();
        ; Setup parameters for call to function actuator_init
        LCALL   ??actuator_init?relay
//  308 #if NODE_ROLE == 1
//  309     dht11_init();
        ; Setup parameters for call to function dht11_init
        LCALL   ??dht11_init?relay
//  310 #else
//  311     ldr_init();
//  312 #endif
//  313     register_endpoints();
        ; Setup parameters for call to function register_endpoints
        LCALL   ??register_endpoints?relay
//  314 
//  315     /* OLED 视图：初始化（含 ~120ms 上电稳定延时）+ 渲染首帧 "尚未入网" 画面 */
//  316     node_oled_view_init((uint8)NODE_ROLE);
        ; Setup parameters for call to function node_oled_view_init
        MOV     R1,#0x1
        LCALL   ??node_oled_view_init?relay
//  317     oled_publish();
        ; Setup parameters for call to function oled_publish
        LCALL   ??oled_publish?relay
//  318     node_oled_view_refresh();
        ; Setup parameters for call to function node_oled_view_refresh
        LCALL   ??node_oled_view_refresh?relay
//  319 
//  320     (void)osal_start_reload_timer(ZbNode_TaskID, ZN_EVT_REPORT, NODE_REPORT_PERIOD_MS);
        ; Setup parameters for call to function osal_start_reload_timer
        MOV     R4,#-0x30
        MOV     R5,#0x7
        MOV     R2,#0x1
        MOV     R3,#0x0
        MOV     DPTR,#ZbNode_TaskID
        MOVX    A,@DPTR
        MOV     R1,A
        LCALL   ??osal_start_reload_timer?relay
//  321     (void)osal_start_reload_timer(ZbNode_TaskID, ZN_EVT_STATUS_LED, STATUS_LED_TICK_MS);
        ; Setup parameters for call to function osal_start_reload_timer
        MOV     R4,#0x64
        MOV     R5,#0x0
        MOV     R2,#0x4
        MOV     R3,#0x0
        MOV     DPTR,#ZbNode_TaskID
        MOVX    A,@DPTR
        MOV     R1,A
        LCALL   ??osal_start_reload_timer?relay
//  322     status_led_refresh();
        ; Setup parameters for call to function status_led_refresh
        LCALL   ??status_led_refresh?relay
//  323 
//  324 #if NODE_ROLE == 1
//  325     dbg_line("\r\n==== Node1 (DHT11) ready, period=2000ms ====");
        ; Setup parameters for call to function dbg_line
        MOV     R2,#`?<Constant "\\r\\n==== Node1 (DHT11) ...">` & 0xff
        MOV     R3,#(`?<Constant "\\r\\n==== Node1 (DHT11) ...">` >> 8) & 0xff
        LCALL   ??dbg_line?relay
//  326 #else
//  327     dbg_line("\r\n==== Node2 (LDR)  ready, period=500ms  ====");
//  328 #endif
//  329 }
        MOV     A,#0x1d
        LCALL   ?DEALLOC_XSTACK8
        CFI CFA_XSP16 add(XSP16, 9)
        LJMP    ?Subroutine3 & 0xFFFF
        CFI EndBlock cfiBlock23

        RSEG BANKED_CODE:CODE:NOROOT(0)
?Subroutine6:
        CFI Block cfiCond24 Using cfiCommon0
        CFI NoFunction
        CFI Conditional ??CrossCallReturnLabel_2
        CFI DPL0 Frame(CFA_SP, 4)
        CFI DPH0 Frame(CFA_SP, 5)
        CFI CFA_SP SP+-5
        CFI Block cfiCond25 Using cfiCommon0
        CFI (cfiCond25) NoFunction
        CFI (cfiCond25) Conditional ??CrossCallReturnLabel_3
        CFI (cfiCond25) R6 load(1, XDATA, add(CFA_XSP16, literal(-9)))
        CFI (cfiCond25) VB load(1, XDATA, add(CFA_XSP16, literal(-8)))
        CFI (cfiCond25) V0 load(1, XDATA, add(CFA_XSP16, literal(-7)))
        CFI (cfiCond25) R7 load(1, XDATA, add(CFA_XSP16, literal(-6)))
        CFI (cfiCond25) ?RET_LOW load(1, XDATA, add(CFA_XSP16, literal(-5)))
        CFI (cfiCond25) ?RET_HIGH load(1, XDATA, add(CFA_XSP16, literal(-4)))
        CFI (cfiCond25) ?BRET_EXT load(1, XDATA, add(CFA_XSP16, literal(-3)))
        CFI (cfiCond25) DPL0 load(1, XDATA, add(CFA_XSP16, literal(-2)))
        CFI (cfiCond25) DPH0 load(1, XDATA, add(CFA_XSP16, literal(-1)))
        CFI (cfiCond25) CFA_SP SP+0
        CFI (cfiCond25) CFA_XSP16 add(XSP16, 38)
        CFI Block cfiPicker26 Using cfiCommon1
        CFI (cfiPicker26) NoFunction
        CFI (cfiPicker26) Picker
        MOVX    @DPTR,A
        MOV     DPTR,#s_nwk_joined
        LCALL   ?Subroutine11 & 0xFFFF
??CrossCallReturnLabel_12:
        MOV     DPTR,#s_nwk_state
        INC     A
        MOVX    @DPTR,A
        RET
        CFI EndBlock cfiCond24
        CFI EndBlock cfiCond25
        CFI EndBlock cfiPicker26
//  330 

        RSEG BANKED_CODE:CODE:NOROOT(0)
//  331 static void do_report(void)
do_report:
        CFI Block cfiBlock27 Using cfiCommon0
        CFI Function do_report
        CODE
//  332 {
        FUNCALL do_report, network_ready
        LOCFRAME ISTACK, 0, STACK
        LOCFRAME PSTACK, 0, STACK
        LOCFRAME XSTACK, 16, STACK
        LOCFRAME IOVERLAY, 0, STATIC
        LOCFRAME DOVERLAY, 0, STATIC
        ARGFRAME ISTACK, 0, STACK
        ARGFRAME PSTACK, 0, STACK
        ARGFRAME XSTACK, 16, STACK
        ARGFRAME IOVERLAY, 0, STATIC
        ARGFRAME DOVERLAY, 0, STATIC
        FUNCALL do_report, dht11_read
        LOCFRAME ISTACK, 0, STACK
        LOCFRAME PSTACK, 0, STACK
        LOCFRAME XSTACK, 16, STACK
        LOCFRAME IOVERLAY, 0, STATIC
        LOCFRAME DOVERLAY, 0, STATIC
        ARGFRAME ISTACK, 0, STACK
        ARGFRAME PSTACK, 0, STACK
        ARGFRAME XSTACK, 16, STACK
        ARGFRAME IOVERLAY, 0, STATIC
        ARGFRAME DOVERLAY, 0, STATIC
        FUNCALL do_report, sprintf
        LOCFRAME ISTACK, 0, STACK
        LOCFRAME PSTACK, 0, STACK
        LOCFRAME XSTACK, 26, STACK
        LOCFRAME IOVERLAY, 0, STATIC
        LOCFRAME DOVERLAY, 0, STATIC
        ARGFRAME ISTACK, 0, STACK
        ARGFRAME PSTACK, 0, STACK
        ARGFRAME XSTACK, 26, STACK
        ARGFRAME IOVERLAY, 0, STATIC
        ARGFRAME DOVERLAY, 0, STATIC
        FUNCALL do_report, dbg_puts
        LOCFRAME ISTACK, 0, STACK
        LOCFRAME PSTACK, 0, STACK
        LOCFRAME XSTACK, 16, STACK
        LOCFRAME IOVERLAY, 0, STATIC
        LOCFRAME DOVERLAY, 0, STATIC
        ARGFRAME ISTACK, 0, STACK
        ARGFRAME PSTACK, 0, STACK
        ARGFRAME XSTACK, 16, STACK
        ARGFRAME IOVERLAY, 0, STATIC
        ARGFRAME DOVERLAY, 0, STATIC
        FUNCALL do_report, send_attr_report
        LOCFRAME ISTACK, 0, STACK
        LOCFRAME PSTACK, 0, STACK
        LOCFRAME XSTACK, 20, STACK
        LOCFRAME IOVERLAY, 0, STATIC
        LOCFRAME DOVERLAY, 0, STATIC
        ARGFRAME ISTACK, 0, STACK
        ARGFRAME PSTACK, 0, STACK
        ARGFRAME XSTACK, 20, STACK
        ARGFRAME IOVERLAY, 0, STATIC
        ARGFRAME DOVERLAY, 0, STATIC
        FUNCALL do_report, send_attr_report
        LOCFRAME ISTACK, 0, STACK
        LOCFRAME PSTACK, 0, STACK
        LOCFRAME XSTACK, 20, STACK
        LOCFRAME IOVERLAY, 0, STATIC
        LOCFRAME DOVERLAY, 0, STATIC
        ARGFRAME ISTACK, 0, STACK
        ARGFRAME PSTACK, 0, STACK
        ARGFRAME XSTACK, 20, STACK
        ARGFRAME IOVERLAY, 0, STATIC
        ARGFRAME DOVERLAY, 0, STATIC
        FUNCALL do_report, sprintf
        LOCFRAME ISTACK, 0, STACK
        LOCFRAME PSTACK, 0, STACK
        LOCFRAME XSTACK, 18, STACK
        LOCFRAME IOVERLAY, 0, STATIC
        LOCFRAME DOVERLAY, 0, STATIC
        ARGFRAME ISTACK, 0, STACK
        ARGFRAME PSTACK, 0, STACK
        ARGFRAME XSTACK, 18, STACK
        ARGFRAME IOVERLAY, 0, STATIC
        ARGFRAME DOVERLAY, 0, STATIC
        FUNCALL do_report, dbg_puts
        LOCFRAME ISTACK, 0, STACK
        LOCFRAME PSTACK, 0, STACK
        LOCFRAME XSTACK, 16, STACK
        LOCFRAME IOVERLAY, 0, STATIC
        LOCFRAME DOVERLAY, 0, STATIC
        ARGFRAME ISTACK, 0, STACK
        ARGFRAME PSTACK, 0, STACK
        ARGFRAME XSTACK, 16, STACK
        ARGFRAME IOVERLAY, 0, STATIC
        ARGFRAME DOVERLAY, 0, STATIC
        FUNCALL do_report, note_local_sample_failure
        LOCFRAME ISTACK, 0, STACK
        LOCFRAME PSTACK, 0, STACK
        LOCFRAME XSTACK, 16, STACK
        LOCFRAME IOVERLAY, 0, STATIC
        LOCFRAME DOVERLAY, 0, STATIC
        ARGFRAME ISTACK, 0, STACK
        ARGFRAME PSTACK, 0, STACK
        ARGFRAME XSTACK, 16, STACK
        ARGFRAME IOVERLAY, 0, STATIC
        ARGFRAME DOVERLAY, 0, STATIC
        FUNCALL do_report, oled_publish
        LOCFRAME ISTACK, 0, STACK
        LOCFRAME PSTACK, 0, STACK
        LOCFRAME XSTACK, 16, STACK
        LOCFRAME IOVERLAY, 0, STATIC
        LOCFRAME DOVERLAY, 0, STATIC
        ARGFRAME ISTACK, 0, STACK
        ARGFRAME PSTACK, 0, STACK
        ARGFRAME XSTACK, 16, STACK
        ARGFRAME IOVERLAY, 0, STATIC
        ARGFRAME DOVERLAY, 0, STATIC
        MOV     A,#-0xc
        LCALL   ?BANKED_ENTER_XDATA
        CFI DPH0 load(1, XDATA, add(CFA_XSP16, literal(-1)))
        CFI DPL0 load(1, XDATA, add(CFA_XSP16, literal(-2)))
        CFI ?BRET_EXT load(1, XDATA, add(CFA_XSP16, literal(-3)))
        CFI ?RET_HIGH load(1, XDATA, add(CFA_XSP16, literal(-4)))
        CFI ?RET_LOW load(1, XDATA, add(CFA_XSP16, literal(-5)))
        CFI R7 load(1, XDATA, add(CFA_XSP16, literal(-6)))
        CFI V3 load(1, XDATA, add(CFA_XSP16, literal(-7)))
        CFI V2 load(1, XDATA, add(CFA_XSP16, literal(-8)))
        CFI V1 load(1, XDATA, add(CFA_XSP16, literal(-9)))
        CFI V0 load(1, XDATA, add(CFA_XSP16, literal(-10)))
        CFI VB load(1, XDATA, add(CFA_XSP16, literal(-11)))
        CFI R6 load(1, XDATA, add(CFA_XSP16, literal(-12)))
        CFI CFA_SP SP+0
        CFI CFA_XSP16 add(XSP16, 12)
        ; Saved register size: 12
        ; Auto size: 4
        MOV     A,#-0x4
        LCALL   ?ALLOC_XSTACK8
        CFI CFA_XSP16 add(XSP16, 16)
//  333     if (!network_ready()) {
        ; Setup parameters for call to function network_ready
        LCALL   ??network_ready?relay
        MOV     A,R1
        JNZ     $+5
        LJMP    ??do_report_0 & 0xFFFF
//  334         return;
//  335     }
//  336 
//  337 #if NODE_ROLE == 1
//  338     {
//  339         int16 t = 0;
        MOV     DPL,?XSP + 0
        MOV     DPH,?XSP + 1
        CLR     A
        MOVX    @DPTR,A
        INC     DPTR
        MOVX    @DPTR,A
//  340         uint16 h = 0;
        MOV     A,#0x2
        LCALL   ?XSTACK_DISP0_8
        CLR     A
        MOVX    @DPTR,A
        INC     DPTR
        MOVX    @DPTR,A
//  341         int8 rc = dht11_read(&t, &h);
        ; Setup parameters for call to function dht11_read
        MOV     A,#0x2
        LCALL   ?XSTACK_DISP0_8
        MOV     R4,DPL
        MOV     R5,DPH
        MOV     DPL,?XSP + 0
        MOV     DPH,?XSP + 1
        MOV     R2,DPL
        MOV     R3,DPH
        LCALL   ??dht11_read?relay
        MOV     A,R1
        MOV     R6,A
//  342 
//  343         if (rc == 0) {
        JZ      $+5
        LJMP    ??do_report_1 & 0xFFFF
//  344             int16 tabs = (t < 0) ? (int16)(-t) : t;
        LCALL   ?Subroutine9 & 0xFFFF
??CrossCallReturnLabel_8:
        MOV     DPL,?XSP + 0
        MOV     DPH,?XSP + 1
        MOVX    A,@DPTR
        JNC     ??do_report_2
        MOV     R0,A
        INC     DPTR
        MOVX    A,@DPTR
        MOV     R1,A
        CLR     C
        CLR     A
        SUBB    A,R0
        MOV     R4,A
        CLR     A
        SUBB    A,R1
        SJMP    ??do_report_3
??do_report_2:
        MOV     R4,A
        INC     DPTR
        MOVX    A,@DPTR
??do_report_3:
        MOV     R5,A
//  345             s_oled_model.temp_x100 = t;
        MOV     DPL,?XSP + 0
        MOV     DPH,?XSP + 1
        LCALL   ?Subroutine12 & 0xFFFF
??CrossCallReturnLabel_14:
        MOV     DPTR,#s_oled_model + 5
        MOV     A,R0
        MOVX    @DPTR,A
        INC     DPTR
        MOV     A,R1
        MOVX    @DPTR,A
//  346             s_oled_model.hum_x100  = h;
        MOV     A,#0x2
        LCALL   ?XSTACK_DISP0_8
        LCALL   ?Subroutine12 & 0xFFFF
??CrossCallReturnLabel_15:
        MOV     DPTR,#s_oled_model + 7
        MOV     A,R0
        MOVX    @DPTR,A
        INC     DPTR
        MOV     A,R1
        MOVX    @DPTR,A
//  347             s_oled_model.has_sample = 1u;
        MOV     DPTR,#s_oled_model + 13
        MOV     A,#0x1
        MOVX    @DPTR,A
//  348             (void)sprintf(s_dbg_buf, "[n1] T=%s%d.%02d H=%u.%02u\r\n",
//  349                           (t < 0) ? "-" : "", (int)(tabs / 100), (int)(tabs % 100),
//  350                           (unsigned)(h / 100u), (unsigned)(h % 100u));
        LCALL   ?Subroutine9 & 0xFFFF
??CrossCallReturnLabel_9:
        JNC     ??do_report_4
        MOV     ?V0 + 0,#`?<Constant "-">` & 0xff
        MOV     ?V0 + 1,#(`?<Constant "-">` >> 8) & 0xff
        SJMP    ??do_report_5
??do_report_4:
        MOV     ?V0 + 0,#`?<Constant "">` & 0xff
        MOV     ?V0 + 1,#(`?<Constant "">` >> 8) & 0xff
??do_report_5:
        ; Setup parameters for call to function sprintf
        MOV     A,#0x2
        LCALL   ?XSTACK_DISP0_8
        LCALL   ?Subroutine8 & 0xFFFF
??CrossCallReturnLabel_6:
        LCALL   ?US_DIV_MOD
        MOV     ?V0 + 2,R2
        MOV     ?V0 + 3,R3
        MOV     R0,#?V0 + 2
        LCALL   ?PUSH_XSTACK_I_TWO
        CFI CFA_XSP16 add(XSP16, 18)
        MOV     A,#0x4
        LCALL   ?XSTACK_DISP0_8
        LCALL   ?Subroutine8 & 0xFFFF
??CrossCallReturnLabel_7:
        LCALL   ?US_DIV_MOD
        MOV     ?V0 + 2,R0
        MOV     ?V0 + 3,R1
        MOV     R0,#?V0 + 2
        LCALL   ?PUSH_XSTACK_I_TWO
        CFI CFA_XSP16 add(XSP16, 20)
        MOV     A,R4
        MOV     R0,A
        MOV     A,R5
        MOV     R1,A
        MOV     R2,#0x64
        MOV     R3,#0x0
        LCALL   ?S_DIV_MOD
        MOV     ?V0 + 2,R2
        MOV     ?V0 + 3,R3
        MOV     R0,#?V0 + 2
        LCALL   ?PUSH_XSTACK_I_TWO
        CFI CFA_XSP16 add(XSP16, 22)
        MOV     A,R4
        MOV     R0,A
        MOV     A,R5
        MOV     R1,A
        MOV     R2,#0x64
        MOV     R3,#0x0
        LCALL   ?S_DIV_MOD
        MOV     ?V0 + 2,R0
        MOV     ?V0 + 3,R1
        MOV     R0,#?V0 + 2
        LCALL   ?PUSH_XSTACK_I_TWO
        CFI CFA_XSP16 add(XSP16, 24)
        MOV     R0,#?V0 + 0
        LCALL   ?PUSH_XSTACK_I_TWO
        CFI CFA_XSP16 add(XSP16, 26)
        MOV     R4,#`?<Constant "[n1] T=%s%d.%02d H=%u...">` & 0xff
        MOV     R5,#(`?<Constant "[n1] T=%s%d.%02d H=%u...">` >> 8) & 0xff
        MOV     R2,#s_dbg_buf & 0xff
        MOV     R3,#(s_dbg_buf >> 8) & 0xff
        LCALL   ??sprintf?relay
        MOV     A,#0xa
        LCALL   ?DEALLOC_XSTACK8
        CFI CFA_XSP16 add(XSP16, 16)
//  351             dbg_puts(s_dbg_buf);
        ; Setup parameters for call to function dbg_puts
        MOV     R2,#s_dbg_buf & 0xff
        MOV     R3,#(s_dbg_buf >> 8) & 0xff
        LCALL   ??dbg_puts?relay
//  352             (void)send_attr_report(ZBNODE_EP_SENSOR, CLU_TEMP, 0x0000, 0x10, &t, 2);
        ; Setup parameters for call to function send_attr_report
        MOV     ?V0 + 0,#0x2
        MOV     R0,#?V0 + 0
        LCALL   ?PUSH_XSTACK_I_ONE
        CFI CFA_XSP16 add(XSP16, 17)
        MOV     A,#0x1
        LCALL   ?XSTACK_DISP0_8
        MOV     ?V0 + 0,DPL
        MOV     ?V0 + 1,DPH
        MOV     R0,#?V0 + 0
        LCALL   ?PUSH_XSTACK_I_TWO
        CFI CFA_XSP16 add(XSP16, 19)
        MOV     ?V0 + 0,#0x10
        MOV     R0,#?V0 + 0
        LCALL   ?PUSH_XSTACK_I_ONE
        CFI CFA_XSP16 add(XSP16, 20)
        MOV     R4,#0x0
        MOV     R5,#0x0
        MOV     R2,#0x2
        MOV     R3,#0x4
        MOV     R1,#0x1
        LCALL   ??send_attr_report?relay
        MOV     A,#0x4
        LCALL   ?DEALLOC_XSTACK8
        CFI CFA_XSP16 add(XSP16, 16)
//  353             (void)send_attr_report(ZBNODE_EP_SENSOR, CLU_HUM,  0x0000, 0x11, &h, 2);
        ; Setup parameters for call to function send_attr_report
        MOV     ?V0 + 0,#0x2
        MOV     R0,#?V0 + 0
        LCALL   ?PUSH_XSTACK_I_ONE
        CFI CFA_XSP16 add(XSP16, 17)
        MOV     A,#0x3
        LCALL   ?XSTACK_DISP0_8
        MOV     ?V0 + 0,DPL
        MOV     ?V0 + 1,DPH
        MOV     R0,#?V0 + 0
        LCALL   ?PUSH_XSTACK_I_TWO
        CFI CFA_XSP16 add(XSP16, 19)
        MOV     ?V0 + 0,#0x11
        MOV     R0,#?V0 + 0
        LCALL   ?PUSH_XSTACK_I_ONE
        CFI CFA_XSP16 add(XSP16, 20)
        MOV     R4,#0x0
        MOV     R5,#0x0
        MOV     R2,#0x5
        MOV     R3,#0x4
        MOV     R1,#0x1
        LCALL   ??send_attr_report?relay
        MOV     A,#0x4
        LCALL   ?DEALLOC_XSTACK8
        CFI CFA_XSP16 add(XSP16, 16)
        SJMP    ??do_report_6
//  354         } else {
//  355             (void)sprintf(s_dbg_buf, "[n1] DHT rc=%d\r\n", (int)rc);
??do_report_1:
        ; Setup parameters for call to function sprintf
        MOV     ?V0 + 0,A
        RLC     A
        SUBB    A,0xE0 /* A   */
        MOV     ?V0 + 1,A
        MOV     R0,#?V0 + 0
        LCALL   ?PUSH_XSTACK_I_TWO
        CFI CFA_XSP16 add(XSP16, 18)
        MOV     R4,#`?<Constant "[n1] DHT rc=%d\\r\\n">` & 0xff
        MOV     R5,#(`?<Constant "[n1] DHT rc=%d\\r\\n">` >> 8) & 0xff
        MOV     R2,#s_dbg_buf & 0xff
        MOV     R3,#(s_dbg_buf >> 8) & 0xff
        LCALL   ??sprintf?relay
        MOV     A,#0x2
        LCALL   ?DEALLOC_XSTACK8
        CFI CFA_XSP16 add(XSP16, 16)
//  356             dbg_puts(s_dbg_buf);
        ; Setup parameters for call to function dbg_puts
        MOV     R2,#s_dbg_buf & 0xff
        MOV     R3,#(s_dbg_buf >> 8) & 0xff
        LCALL   ??dbg_puts?relay
//  357             note_local_sample_failure(rc);
        ; Setup parameters for call to function note_local_sample_failure
        MOV     A,R6
        MOV     R1,A
        LCALL   ??note_local_sample_failure?relay
//  358         }
//  359     }
//  360 #else
//  361     {
//  362         uint16 lux = ldr_read_lux();
//  363 
//  364         s_oled_model.lux = lux;
//  365         s_oled_model.has_sample = 1u;
//  366         (void)sprintf(s_dbg_buf, "[n2] lux=%u\r\n", (unsigned)lux);
//  367         dbg_puts(s_dbg_buf);
//  368         (void)send_attr_report(ZBNODE_EP_SENSOR, CLU_LUX, 0x0000, 0x11, &lux, 2);
//  369     }
//  370 #endif
//  371     oled_publish();
??do_report_6:
        ; Setup parameters for call to function oled_publish
        LCALL   ??oled_publish?relay
//  372 }
??do_report_0:
        MOV     A,#0x4
        CFI EndBlock cfiBlock27
        REQUIRE ?Subroutine4
        ; // Fall through to label ?Subroutine4

        RSEG BANKED_CODE:CODE:NOROOT(0)
?Subroutine4:
        CFI Block cfiBlock28 Using cfiCommon0
        CFI NoFunction
        CFI CFA_SP SP+0
        CFI CFA_XSP16 add(XSP16, 16)
        CFI VB load(1, XDATA, add(CFA_XSP16, literal(-11)))
        CFI DPL0 load(1, XDATA, add(CFA_XSP16, literal(-2)))
        CFI DPH0 load(1, XDATA, add(CFA_XSP16, literal(-1)))
        CFI R6 load(1, XDATA, add(CFA_XSP16, literal(-12)))
        CFI R7 load(1, XDATA, add(CFA_XSP16, literal(-6)))
        CFI V0 load(1, XDATA, add(CFA_XSP16, literal(-10)))
        CFI V1 load(1, XDATA, add(CFA_XSP16, literal(-9)))
        CFI V2 load(1, XDATA, add(CFA_XSP16, literal(-8)))
        CFI V3 load(1, XDATA, add(CFA_XSP16, literal(-7)))
        CFI ?BRET_EXT load(1, XDATA, add(CFA_XSP16, literal(-3)))
        CFI ?RET_HIGH load(1, XDATA, add(CFA_XSP16, literal(-4)))
        CFI ?RET_LOW load(1, XDATA, add(CFA_XSP16, literal(-5)))
        CFI Invalid
        LCALL   ?DEALLOC_XSTACK8
        CFI CFA_XSP16 add(XSP16, 12)
        CFI Valid
        MOV     R7,#0x4
        LJMP    ?BANKED_LEAVE_XDATA
        CFI EndBlock cfiBlock28

        RSEG BANKED_CODE:CODE:NOROOT(0)
?Subroutine9:
        CFI Block cfiCond29 Using cfiCommon0
        CFI NoFunction
        CFI Conditional ??CrossCallReturnLabel_8
        CFI R6 load(1, XDATA, add(CFA_XSP16, literal(-12)))
        CFI VB load(1, XDATA, add(CFA_XSP16, literal(-11)))
        CFI V0 load(1, XDATA, add(CFA_XSP16, literal(-10)))
        CFI V1 load(1, XDATA, add(CFA_XSP16, literal(-9)))
        CFI V2 load(1, XDATA, add(CFA_XSP16, literal(-8)))
        CFI V3 load(1, XDATA, add(CFA_XSP16, literal(-7)))
        CFI R7 load(1, XDATA, add(CFA_XSP16, literal(-6)))
        CFI ?RET_LOW load(1, XDATA, add(CFA_XSP16, literal(-5)))
        CFI ?RET_HIGH load(1, XDATA, add(CFA_XSP16, literal(-4)))
        CFI ?BRET_EXT load(1, XDATA, add(CFA_XSP16, literal(-3)))
        CFI DPL0 load(1, XDATA, add(CFA_XSP16, literal(-2)))
        CFI DPH0 load(1, XDATA, add(CFA_XSP16, literal(-1)))
        CFI CFA_SP SP+0
        CFI CFA_XSP16 add(XSP16, 16)
        CFI Block cfiCond30 Using cfiCommon0
        CFI (cfiCond30) NoFunction
        CFI (cfiCond30) Conditional ??CrossCallReturnLabel_9
        CFI (cfiCond30) R6 load(1, XDATA, add(CFA_XSP16, literal(-12)))
        CFI (cfiCond30) VB load(1, XDATA, add(CFA_XSP16, literal(-11)))
        CFI (cfiCond30) V0 load(1, XDATA, add(CFA_XSP16, literal(-10)))
        CFI (cfiCond30) V1 load(1, XDATA, add(CFA_XSP16, literal(-9)))
        CFI (cfiCond30) V2 load(1, XDATA, add(CFA_XSP16, literal(-8)))
        CFI (cfiCond30) V3 load(1, XDATA, add(CFA_XSP16, literal(-7)))
        CFI (cfiCond30) R7 load(1, XDATA, add(CFA_XSP16, literal(-6)))
        CFI (cfiCond30) ?RET_LOW load(1, XDATA, add(CFA_XSP16, literal(-5)))
        CFI (cfiCond30) ?RET_HIGH load(1, XDATA, add(CFA_XSP16, literal(-4)))
        CFI (cfiCond30) ?BRET_EXT load(1, XDATA, add(CFA_XSP16, literal(-3)))
        CFI (cfiCond30) DPL0 load(1, XDATA, add(CFA_XSP16, literal(-2)))
        CFI (cfiCond30) DPH0 load(1, XDATA, add(CFA_XSP16, literal(-1)))
        CFI (cfiCond30) CFA_SP SP+0
        CFI (cfiCond30) CFA_XSP16 add(XSP16, 16)
        CFI Block cfiPicker31 Using cfiCommon1
        CFI (cfiPicker31) NoFunction
        CFI (cfiPicker31) Picker
        MOV     DPL,?XSP + 0
        MOV     DPH,?XSP + 1
        CLR     C
        INC     DPTR
        MOVX    A,@DPTR
        SUBB    A,#0x0
        MOV     C,0xD0 /* PSW */.2
        XRL     A,PSW
        RLC     A
        RET
        CFI EndBlock cfiCond29
        CFI EndBlock cfiCond30
        CFI EndBlock cfiPicker31

        RSEG BANKED_CODE:CODE:NOROOT(0)
?Subroutine8:
        CFI Block cfiCond32 Using cfiCommon0
        CFI NoFunction
        CFI Conditional ??CrossCallReturnLabel_6
        CFI R6 load(1, XDATA, add(CFA_XSP16, literal(-12)))
        CFI VB load(1, XDATA, add(CFA_XSP16, literal(-11)))
        CFI V0 load(1, XDATA, add(CFA_XSP16, literal(-10)))
        CFI V1 load(1, XDATA, add(CFA_XSP16, literal(-9)))
        CFI V2 load(1, XDATA, add(CFA_XSP16, literal(-8)))
        CFI V3 load(1, XDATA, add(CFA_XSP16, literal(-7)))
        CFI R7 load(1, XDATA, add(CFA_XSP16, literal(-6)))
        CFI ?RET_LOW load(1, XDATA, add(CFA_XSP16, literal(-5)))
        CFI ?RET_HIGH load(1, XDATA, add(CFA_XSP16, literal(-4)))
        CFI ?BRET_EXT load(1, XDATA, add(CFA_XSP16, literal(-3)))
        CFI DPL0 load(1, XDATA, add(CFA_XSP16, literal(-2)))
        CFI DPH0 load(1, XDATA, add(CFA_XSP16, literal(-1)))
        CFI CFA_SP SP+0
        CFI CFA_XSP16 add(XSP16, 16)
        CFI Block cfiCond33 Using cfiCommon0
        CFI (cfiCond33) NoFunction
        CFI (cfiCond33) Conditional ??CrossCallReturnLabel_7
        CFI (cfiCond33) R6 load(1, XDATA, add(CFA_XSP16, literal(-12)))
        CFI (cfiCond33) VB load(1, XDATA, add(CFA_XSP16, literal(-11)))
        CFI (cfiCond33) V0 load(1, XDATA, add(CFA_XSP16, literal(-10)))
        CFI (cfiCond33) V1 load(1, XDATA, add(CFA_XSP16, literal(-9)))
        CFI (cfiCond33) V2 load(1, XDATA, add(CFA_XSP16, literal(-8)))
        CFI (cfiCond33) V3 load(1, XDATA, add(CFA_XSP16, literal(-7)))
        CFI (cfiCond33) R7 load(1, XDATA, add(CFA_XSP16, literal(-6)))
        CFI (cfiCond33) ?RET_LOW load(1, XDATA, add(CFA_XSP16, literal(-5)))
        CFI (cfiCond33) ?RET_HIGH load(1, XDATA, add(CFA_XSP16, literal(-4)))
        CFI (cfiCond33) ?BRET_EXT load(1, XDATA, add(CFA_XSP16, literal(-3)))
        CFI (cfiCond33) DPL0 load(1, XDATA, add(CFA_XSP16, literal(-2)))
        CFI (cfiCond33) DPH0 load(1, XDATA, add(CFA_XSP16, literal(-1)))
        CFI (cfiCond33) CFA_SP SP+0
        CFI (cfiCond33) CFA_XSP16 add(XSP16, 18)
        CFI Block cfiPicker34 Using cfiCommon1
        CFI (cfiPicker34) NoFunction
        CFI (cfiPicker34) Picker
        LCALL   ?Subroutine12 & 0xFFFF
??CrossCallReturnLabel_17:
        MOV     R2,#0x64
        MOV     R3,#0x0
        RET
        CFI EndBlock cfiCond32
        CFI EndBlock cfiCond33
        CFI EndBlock cfiPicker34

        RSEG BANKED_CODE:CODE:NOROOT(0)
?Subroutine12:
        CFI Block cfiCond35 Using cfiCommon0
        CFI NoFunction
        CFI Conditional ??CrossCallReturnLabel_14
        CFI R6 load(1, XDATA, add(CFA_XSP16, literal(-12)))
        CFI VB load(1, XDATA, add(CFA_XSP16, literal(-11)))
        CFI V0 load(1, XDATA, add(CFA_XSP16, literal(-10)))
        CFI V1 load(1, XDATA, add(CFA_XSP16, literal(-9)))
        CFI V2 load(1, XDATA, add(CFA_XSP16, literal(-8)))
        CFI V3 load(1, XDATA, add(CFA_XSP16, literal(-7)))
        CFI R7 load(1, XDATA, add(CFA_XSP16, literal(-6)))
        CFI ?RET_LOW load(1, XDATA, add(CFA_XSP16, literal(-5)))
        CFI ?RET_HIGH load(1, XDATA, add(CFA_XSP16, literal(-4)))
        CFI ?BRET_EXT load(1, XDATA, add(CFA_XSP16, literal(-3)))
        CFI DPL0 load(1, XDATA, add(CFA_XSP16, literal(-2)))
        CFI DPH0 load(1, XDATA, add(CFA_XSP16, literal(-1)))
        CFI CFA_SP SP+0
        CFI CFA_XSP16 add(XSP16, 16)
        CFI Block cfiCond36 Using cfiCommon0
        CFI (cfiCond36) NoFunction
        CFI (cfiCond36) Conditional ??CrossCallReturnLabel_15
        CFI (cfiCond36) R6 load(1, XDATA, add(CFA_XSP16, literal(-12)))
        CFI (cfiCond36) VB load(1, XDATA, add(CFA_XSP16, literal(-11)))
        CFI (cfiCond36) V0 load(1, XDATA, add(CFA_XSP16, literal(-10)))
        CFI (cfiCond36) V1 load(1, XDATA, add(CFA_XSP16, literal(-9)))
        CFI (cfiCond36) V2 load(1, XDATA, add(CFA_XSP16, literal(-8)))
        CFI (cfiCond36) V3 load(1, XDATA, add(CFA_XSP16, literal(-7)))
        CFI (cfiCond36) R7 load(1, XDATA, add(CFA_XSP16, literal(-6)))
        CFI (cfiCond36) ?RET_LOW load(1, XDATA, add(CFA_XSP16, literal(-5)))
        CFI (cfiCond36) ?RET_HIGH load(1, XDATA, add(CFA_XSP16, literal(-4)))
        CFI (cfiCond36) ?BRET_EXT load(1, XDATA, add(CFA_XSP16, literal(-3)))
        CFI (cfiCond36) DPL0 load(1, XDATA, add(CFA_XSP16, literal(-2)))
        CFI (cfiCond36) DPH0 load(1, XDATA, add(CFA_XSP16, literal(-1)))
        CFI (cfiCond36) CFA_SP SP+0
        CFI (cfiCond36) CFA_XSP16 add(XSP16, 16)
        CFI Block cfiCond37 Using cfiCommon0
        CFI (cfiCond37) NoFunction
        CFI (cfiCond37) Conditional ??CrossCallReturnLabel_17, ??CrossCallReturnLabel_6
        CFI (cfiCond37) R6 load(1, XDATA, add(CFA_XSP16, literal(-12)))
        CFI (cfiCond37) VB load(1, XDATA, add(CFA_XSP16, literal(-11)))
        CFI (cfiCond37) V0 load(1, XDATA, add(CFA_XSP16, literal(-10)))
        CFI (cfiCond37) V1 load(1, XDATA, add(CFA_XSP16, literal(-9)))
        CFI (cfiCond37) V2 load(1, XDATA, add(CFA_XSP16, literal(-8)))
        CFI (cfiCond37) V3 load(1, XDATA, add(CFA_XSP16, literal(-7)))
        CFI (cfiCond37) R7 load(1, XDATA, add(CFA_XSP16, literal(-6)))
        CFI (cfiCond37) ?RET_LOW load(1, XDATA, add(CFA_XSP16, literal(-5)))
        CFI (cfiCond37) ?RET_HIGH load(1, XDATA, add(CFA_XSP16, literal(-4)))
        CFI (cfiCond37) ?BRET_EXT load(1, XDATA, add(CFA_XSP16, literal(-3)))
        CFI (cfiCond37) DPL0 load(1, XDATA, add(CFA_XSP16, literal(-2)))
        CFI (cfiCond37) DPH0 load(1, XDATA, add(CFA_XSP16, literal(-1)))
        CFI (cfiCond37) CFA_SP SP+0
        CFI (cfiCond37) CFA_XSP16 add(XSP16, 16)
        CFI Block cfiCond38 Using cfiCommon0
        CFI (cfiCond38) NoFunction
        CFI (cfiCond38) Conditional ??CrossCallReturnLabel_17, ??CrossCallReturnLabel_7
        CFI (cfiCond38) R6 load(1, XDATA, add(CFA_XSP16, literal(-12)))
        CFI (cfiCond38) VB load(1, XDATA, add(CFA_XSP16, literal(-11)))
        CFI (cfiCond38) V0 load(1, XDATA, add(CFA_XSP16, literal(-10)))
        CFI (cfiCond38) V1 load(1, XDATA, add(CFA_XSP16, literal(-9)))
        CFI (cfiCond38) V2 load(1, XDATA, add(CFA_XSP16, literal(-8)))
        CFI (cfiCond38) V3 load(1, XDATA, add(CFA_XSP16, literal(-7)))
        CFI (cfiCond38) R7 load(1, XDATA, add(CFA_XSP16, literal(-6)))
        CFI (cfiCond38) ?RET_LOW load(1, XDATA, add(CFA_XSP16, literal(-5)))
        CFI (cfiCond38) ?RET_HIGH load(1, XDATA, add(CFA_XSP16, literal(-4)))
        CFI (cfiCond38) ?BRET_EXT load(1, XDATA, add(CFA_XSP16, literal(-3)))
        CFI (cfiCond38) DPL0 load(1, XDATA, add(CFA_XSP16, literal(-2)))
        CFI (cfiCond38) DPH0 load(1, XDATA, add(CFA_XSP16, literal(-1)))
        CFI (cfiCond38) CFA_SP SP+0
        CFI (cfiCond38) CFA_XSP16 add(XSP16, 18)
        CFI Block cfiCond39 Using cfiCommon0
        CFI (cfiCond39) NoFunction
        CFI (cfiCond39) Conditional ??CrossCallReturnLabel_16
        CFI (cfiCond39) R6 load(1, XDATA, add(CFA_XSP16, literal(-12)))
        CFI (cfiCond39) VB load(1, XDATA, add(CFA_XSP16, literal(-11)))
        CFI (cfiCond39) V0 load(1, XDATA, add(CFA_XSP16, literal(-10)))
        CFI (cfiCond39) V1 load(1, XDATA, add(CFA_XSP16, literal(-9)))
        CFI (cfiCond39) V2 load(1, XDATA, add(CFA_XSP16, literal(-8)))
        CFI (cfiCond39) V3 load(1, XDATA, add(CFA_XSP16, literal(-7)))
        CFI (cfiCond39) R7 load(1, XDATA, add(CFA_XSP16, literal(-6)))
        CFI (cfiCond39) ?RET_LOW load(1, XDATA, add(CFA_XSP16, literal(-5)))
        CFI (cfiCond39) ?RET_HIGH load(1, XDATA, add(CFA_XSP16, literal(-4)))
        CFI (cfiCond39) ?BRET_EXT load(1, XDATA, add(CFA_XSP16, literal(-3)))
        CFI (cfiCond39) DPL0 load(1, XDATA, add(CFA_XSP16, literal(-2)))
        CFI (cfiCond39) DPH0 load(1, XDATA, add(CFA_XSP16, literal(-1)))
        CFI (cfiCond39) CFA_SP SP+0
        CFI (cfiCond39) CFA_XSP16 add(XSP16, 13)
        CFI Block cfiPicker40 Using cfiCommon1
        CFI (cfiPicker40) NoFunction
        CFI (cfiPicker40) Picker
        MOVX    A,@DPTR
        MOV     R0,A
        INC     DPTR
        MOVX    A,@DPTR
        MOV     R1,A
        RET
        CFI EndBlock cfiCond35
        CFI EndBlock cfiCond36
        CFI EndBlock cfiCond37
        CFI EndBlock cfiCond38
        CFI EndBlock cfiCond39
        CFI EndBlock cfiPicker40
//  373 

        RSEG BANKED_CODE:CODE:NOROOT(0)
//  374 static void on_incoming(afIncomingMSGPacket_t *pkt)
on_incoming:
        CFI Block cfiBlock41 Using cfiCommon0
        CFI Function on_incoming
        CODE
//  375 {
        FUNCALL on_incoming, actuator_led_set
        LOCFRAME ISTACK, 0, STACK
        LOCFRAME PSTACK, 0, STACK
        LOCFRAME XSTACK, 13, STACK
        LOCFRAME IOVERLAY, 0, STATIC
        LOCFRAME DOVERLAY, 0, STATIC
        ARGFRAME ISTACK, 0, STACK
        ARGFRAME PSTACK, 0, STACK
        ARGFRAME XSTACK, 13, STACK
        ARGFRAME IOVERLAY, 0, STATIC
        ARGFRAME DOVERLAY, 0, STATIC
        FUNCALL on_incoming, actuator_led_state
        LOCFRAME ISTACK, 0, STACK
        LOCFRAME PSTACK, 0, STACK
        LOCFRAME XSTACK, 13, STACK
        LOCFRAME IOVERLAY, 0, STATIC
        LOCFRAME DOVERLAY, 0, STATIC
        ARGFRAME ISTACK, 0, STACK
        ARGFRAME PSTACK, 0, STACK
        ARGFRAME XSTACK, 13, STACK
        ARGFRAME IOVERLAY, 0, STATIC
        ARGFRAME DOVERLAY, 0, STATIC
        FUNCALL on_incoming, actuator_buzzer_state
        LOCFRAME ISTACK, 0, STACK
        LOCFRAME PSTACK, 0, STACK
        LOCFRAME XSTACK, 13, STACK
        LOCFRAME IOVERLAY, 0, STATIC
        LOCFRAME DOVERLAY, 0, STATIC
        ARGFRAME ISTACK, 0, STACK
        ARGFRAME PSTACK, 0, STACK
        ARGFRAME XSTACK, 13, STACK
        ARGFRAME IOVERLAY, 0, STATIC
        ARGFRAME DOVERLAY, 0, STATIC
        FUNCALL on_incoming, actuator_buzzer_set
        LOCFRAME ISTACK, 0, STACK
        LOCFRAME PSTACK, 0, STACK
        LOCFRAME XSTACK, 13, STACK
        LOCFRAME IOVERLAY, 0, STATIC
        LOCFRAME DOVERLAY, 0, STATIC
        ARGFRAME ISTACK, 0, STACK
        ARGFRAME PSTACK, 0, STACK
        ARGFRAME XSTACK, 13, STACK
        ARGFRAME IOVERLAY, 0, STATIC
        ARGFRAME DOVERLAY, 0, STATIC
        FUNCALL on_incoming, zcl_default_response
        LOCFRAME ISTACK, 0, STACK
        LOCFRAME PSTACK, 0, STACK
        LOCFRAME XSTACK, 14, STACK
        LOCFRAME IOVERLAY, 0, STATIC
        LOCFRAME DOVERLAY, 0, STATIC
        ARGFRAME ISTACK, 0, STACK
        ARGFRAME PSTACK, 0, STACK
        ARGFRAME XSTACK, 14, STACK
        ARGFRAME IOVERLAY, 0, STATIC
        ARGFRAME DOVERLAY, 0, STATIC
        FUNCALL on_incoming, send_attr_report
        LOCFRAME ISTACK, 0, STACK
        LOCFRAME PSTACK, 0, STACK
        LOCFRAME XSTACK, 17, STACK
        LOCFRAME IOVERLAY, 0, STATIC
        LOCFRAME DOVERLAY, 0, STATIC
        ARGFRAME ISTACK, 0, STACK
        ARGFRAME PSTACK, 0, STACK
        ARGFRAME XSTACK, 17, STACK
        ARGFRAME IOVERLAY, 0, STATIC
        ARGFRAME DOVERLAY, 0, STATIC
        FUNCALL on_incoming, oled_publish
        LOCFRAME ISTACK, 0, STACK
        LOCFRAME PSTACK, 0, STACK
        LOCFRAME XSTACK, 13, STACK
        LOCFRAME IOVERLAY, 0, STATIC
        LOCFRAME DOVERLAY, 0, STATIC
        ARGFRAME ISTACK, 0, STACK
        ARGFRAME PSTACK, 0, STACK
        ARGFRAME XSTACK, 13, STACK
        ARGFRAME IOVERLAY, 0, STATIC
        ARGFRAME DOVERLAY, 0, STATIC
        MOV     A,#-0xc
        LCALL   ?BANKED_ENTER_XDATA
        CFI DPH0 load(1, XDATA, add(CFA_XSP16, literal(-1)))
        CFI DPL0 load(1, XDATA, add(CFA_XSP16, literal(-2)))
        CFI ?BRET_EXT load(1, XDATA, add(CFA_XSP16, literal(-3)))
        CFI ?RET_HIGH load(1, XDATA, add(CFA_XSP16, literal(-4)))
        CFI ?RET_LOW load(1, XDATA, add(CFA_XSP16, literal(-5)))
        CFI R7 load(1, XDATA, add(CFA_XSP16, literal(-6)))
        CFI V3 load(1, XDATA, add(CFA_XSP16, literal(-7)))
        CFI V2 load(1, XDATA, add(CFA_XSP16, literal(-8)))
        CFI V1 load(1, XDATA, add(CFA_XSP16, literal(-9)))
        CFI V0 load(1, XDATA, add(CFA_XSP16, literal(-10)))
        CFI VB load(1, XDATA, add(CFA_XSP16, literal(-11)))
        CFI R6 load(1, XDATA, add(CFA_XSP16, literal(-12)))
        CFI CFA_SP SP+0
        CFI CFA_XSP16 add(XSP16, 12)
        ; Saved register size: 12
        ; Auto size: 1
        MOV     A,#-0x1
        LCALL   ?ALLOC_XSTACK8
        CFI CFA_XSP16 add(XSP16, 13)
        MOV     A,R2
        MOV     R6,A
        MOV     A,R3
        MOV     R7,A
//  376     uint8 *zcl;
//  377     uint8 zlen;
//  378     uint8 cmd;
//  379     uint8 seq;
//  380     uint8 onoff;
//  381     uint8 vstate;
//  382 
//  383     if (pkt->clusterId != CLU_ONOFF) {
        MOV     DPL,R6
        MOV     DPH,R7
        INC     DPTR
        INC     DPTR
        INC     DPTR
        INC     DPTR
        MOVX    A,@DPTR
        XRL     A,#0x6
        JNZ     ??on_incoming_0
        INC     DPTR
        MOVX    A,@DPTR
??on_incoming_0:
        JZ      $+5
        LJMP    ??on_incoming_1 & 0xFFFF
//  384         return;
//  385     }
//  386 
//  387     zcl = pkt->cmd.Data;
        MOV     A,R6
        ADD     A,#0x22
        MOV     DPL,A
        MOV     A,R7
        ADDC    A,#0x0
        MOV     DPH,A
        LCALL   ?Subroutine12 & 0xFFFF
//  388     zlen = pkt->cmd.DataLength;
//  389     if (zlen < 3) {
??CrossCallReturnLabel_16:
        MOV     A,R6
        ADD     A,#0x20
        MOV     DPL,A
        MOV     A,R7
        ADDC    A,#0x0
        MOV     DPH,A
        MOVX    A,@DPTR
        CLR     C
        SUBB    A,#0x3
        JNC     $+5
        LJMP    ??on_incoming_1 & 0xFFFF
//  390         return;
//  391     }
//  392 
//  393     seq = zcl[1];
        MOV     DPL,R0
        MOV     DPH,R1
        INC     DPTR
        MOVX    A,@DPTR
        MOV     ?V0 + 0,A
//  394     cmd = zcl[2];
        MOV     DPL,R0
        MOV     DPH,R1
        INC     DPTR
        INC     DPTR
        MOVX    A,@DPTR
        MOV     ?V0 + 1,A
//  395     switch (cmd) {
        JZ      ??on_incoming_2
        DEC     A
        JZ      ??on_incoming_3
        DEC     A
        JZ      ??on_incoming_4
        LJMP    ??on_incoming_1 & 0xFFFF
//  396     case 0x00:
//  397         onoff = 0;
??on_incoming_2:
        MOV     ?V0 + 2,#0x0
//  398         break;
//  399     case 0x01:
//  400         onoff = 1;
//  401         break;
//  402     case 0x02:
//  403         if (pkt->endPoint == ZBNODE_EP_SENSOR) {
//  404             onoff = (uint8)(!actuator_led_state());
//  405         } else {
//  406             onoff = (uint8)(!actuator_buzzer_state());
//  407         }
//  408         break;
//  409     default:
//  410         return;
//  411     }
//  412 
//  413     if (pkt->endPoint == ZBNODE_EP_SENSOR) {
??on_incoming_5:
        LCALL   ?Subroutine10 & 0xFFFF
??CrossCallReturnLabel_10:
        JNZ     ??on_incoming_6
//  414         actuator_led_set(onoff);
        ; Setup parameters for call to function actuator_led_set
        MOV     R1,?V0 + 2
        LCALL   ??actuator_led_set?relay
        SJMP    ??on_incoming_7
//  415     } else if (pkt->endPoint == ZBNODE_EP_BUZZER) {
??on_incoming_4:
        LCALL   ?Subroutine10 & 0xFFFF
??CrossCallReturnLabel_11:
        JNZ     ??on_incoming_8
        ; Setup parameters for call to function actuator_led_state
        LCALL   ??actuator_led_state?relay
        MOV     A,R1
        JNZ     ??on_incoming_2
??on_incoming_3:
        MOV     ?V0 + 2,#0x1
        SJMP    ??on_incoming_5
??on_incoming_8:
        ; Setup parameters for call to function actuator_buzzer_state
        LCALL   ??actuator_buzzer_state?relay
        MOV     A,R1
        JNZ     ??on_incoming_2
        SJMP    ??on_incoming_3
??on_incoming_6:
        MOVX    A,@DPTR
        XRL     A,#0x2
        JNZ     ??on_incoming_7
//  416         actuator_buzzer_set(onoff);
        ; Setup parameters for call to function actuator_buzzer_set
        MOV     R1,?V0 + 2
        LCALL   ??actuator_buzzer_set?relay
//  417     }
//  418 
//  419     (void)zcl_default_response(pkt->endPoint, CLU_ONOFF, seq, cmd, 0x00);
??on_incoming_7:
        MOV     A,R6
        ADD     A,#0x14
        MOV     R6,A
        MOV     A,R7
        ADDC    A,#0x0
        MOV     R7,A
        ; Setup parameters for call to function zcl_default_response
        MOV     ?V0 + 3,#0x0
        MOV     R0,#?V0 + 3
        LCALL   ?PUSH_XSTACK_I_ONE
        CFI CFA_XSP16 add(XSP16, 14)
        MOV     R5,?V0 + 1
        MOV     R4,?V0 + 0
        MOV     R2,#0x6
        MOV     R3,#0x0
        MOV     DPL,R6
        MOV     DPH,R7
        MOVX    A,@DPTR
        MOV     R1,A
        LCALL   ??zcl_default_response?relay
        MOV     A,#0x1
        LCALL   ?DEALLOC_XSTACK8
        CFI CFA_XSP16 add(XSP16, 13)
//  420     vstate = onoff;
        MOV     DPL,?XSP + 0
        MOV     DPH,?XSP + 1
        MOV     A,?V0 + 2
        MOVX    @DPTR,A
//  421     (void)send_attr_report(pkt->endPoint, CLU_ONOFF, 0x0000, 0x01, &vstate, 1);
        ; Setup parameters for call to function send_attr_report
        MOV     ?V0 + 0,#0x1
        MOV     R0,#?V0 + 0
        LCALL   ?PUSH_XSTACK_I_ONE
        CFI CFA_XSP16 add(XSP16, 14)
        MOV     A,#0x1
        LCALL   ?XSTACK_DISP0_8
        MOV     ?V0 + 0,DPL
        MOV     ?V0 + 1,DPH
        MOV     R0,#?V0 + 0
        LCALL   ?PUSH_XSTACK_I_TWO
        CFI CFA_XSP16 add(XSP16, 16)
        MOV     ?V0 + 0,#0x1
        MOV     R0,#?V0 + 0
        LCALL   ?PUSH_XSTACK_I_ONE
        CFI CFA_XSP16 add(XSP16, 17)
        MOV     R4,#0x0
        MOV     R5,#0x0
        MOV     R2,#0x6
        MOV     R3,#0x0
        MOV     DPL,R6
        MOV     DPH,R7
        MOVX    A,@DPTR
        MOV     R1,A
        LCALL   ??send_attr_report?relay
        MOV     A,#0x4
        LCALL   ?DEALLOC_XSTACK8
        CFI CFA_XSP16 add(XSP16, 13)
//  422     oled_publish();
        ; Setup parameters for call to function oled_publish
        LCALL   ??oled_publish?relay
//  423 }
??on_incoming_1:
        MOV     A,#0x1
        LJMP    ?Subroutine4 & 0xFFFF
        CFI EndBlock cfiBlock41

        RSEG BANKED_CODE:CODE:NOROOT(0)
?Subroutine10:
        CFI Block cfiCond42 Using cfiCommon0
        CFI NoFunction
        CFI Conditional ??CrossCallReturnLabel_10
        CFI R6 load(1, XDATA, add(CFA_XSP16, literal(-12)))
        CFI VB load(1, XDATA, add(CFA_XSP16, literal(-11)))
        CFI V0 load(1, XDATA, add(CFA_XSP16, literal(-10)))
        CFI V1 load(1, XDATA, add(CFA_XSP16, literal(-9)))
        CFI V2 load(1, XDATA, add(CFA_XSP16, literal(-8)))
        CFI V3 load(1, XDATA, add(CFA_XSP16, literal(-7)))
        CFI R7 load(1, XDATA, add(CFA_XSP16, literal(-6)))
        CFI ?RET_LOW load(1, XDATA, add(CFA_XSP16, literal(-5)))
        CFI ?RET_HIGH load(1, XDATA, add(CFA_XSP16, literal(-4)))
        CFI ?BRET_EXT load(1, XDATA, add(CFA_XSP16, literal(-3)))
        CFI DPL0 load(1, XDATA, add(CFA_XSP16, literal(-2)))
        CFI DPH0 load(1, XDATA, add(CFA_XSP16, literal(-1)))
        CFI CFA_SP SP+0
        CFI CFA_XSP16 add(XSP16, 13)
        CFI Block cfiCond43 Using cfiCommon0
        CFI (cfiCond43) NoFunction
        CFI (cfiCond43) Conditional ??CrossCallReturnLabel_11
        CFI (cfiCond43) R6 load(1, XDATA, add(CFA_XSP16, literal(-12)))
        CFI (cfiCond43) VB load(1, XDATA, add(CFA_XSP16, literal(-11)))
        CFI (cfiCond43) V0 load(1, XDATA, add(CFA_XSP16, literal(-10)))
        CFI (cfiCond43) V1 load(1, XDATA, add(CFA_XSP16, literal(-9)))
        CFI (cfiCond43) V2 load(1, XDATA, add(CFA_XSP16, literal(-8)))
        CFI (cfiCond43) V3 load(1, XDATA, add(CFA_XSP16, literal(-7)))
        CFI (cfiCond43) R7 load(1, XDATA, add(CFA_XSP16, literal(-6)))
        CFI (cfiCond43) ?RET_LOW load(1, XDATA, add(CFA_XSP16, literal(-5)))
        CFI (cfiCond43) ?RET_HIGH load(1, XDATA, add(CFA_XSP16, literal(-4)))
        CFI (cfiCond43) ?BRET_EXT load(1, XDATA, add(CFA_XSP16, literal(-3)))
        CFI (cfiCond43) DPL0 load(1, XDATA, add(CFA_XSP16, literal(-2)))
        CFI (cfiCond43) DPH0 load(1, XDATA, add(CFA_XSP16, literal(-1)))
        CFI (cfiCond43) CFA_SP SP+0
        CFI (cfiCond43) CFA_XSP16 add(XSP16, 13)
        CFI Block cfiPicker44 Using cfiCommon1
        CFI (cfiPicker44) NoFunction
        CFI (cfiPicker44) Picker
        MOV     A,R6
        ADD     A,#0x14
        MOV     DPL,A
        MOV     A,R7
        ADDC    A,#0x0
        MOV     DPH,A
        MOVX    A,@DPTR
        XRL     A,#0x1
        RET
        CFI EndBlock cfiCond42
        CFI EndBlock cfiCond43
        CFI EndBlock cfiPicker44
//  424 

        RSEG BANKED_CODE:CODE:NOROOT(0)
//  425 static void on_data_confirm(afDataConfirm_t *cfm)
on_data_confirm:
        CFI Block cfiBlock45 Using cfiCommon0
        CFI Function on_data_confirm
        CODE
//  426 {
        FUNCALL on_data_confirm, dbg_line
        LOCFRAME ISTACK, 0, STACK
        LOCFRAME PSTACK, 0, STACK
        LOCFRAME XSTACK, 10, STACK
        LOCFRAME IOVERLAY, 0, STATIC
        LOCFRAME DOVERLAY, 0, STATIC
        ARGFRAME ISTACK, 0, STACK
        ARGFRAME PSTACK, 0, STACK
        ARGFRAME XSTACK, 10, STACK
        ARGFRAME IOVERLAY, 0, STATIC
        ARGFRAME DOVERLAY, 0, STATIC
        FUNCALL on_data_confirm, status_led_refresh
        LOCFRAME ISTACK, 0, STACK
        LOCFRAME PSTACK, 0, STACK
        LOCFRAME XSTACK, 10, STACK
        LOCFRAME IOVERLAY, 0, STATIC
        LOCFRAME DOVERLAY, 0, STATIC
        ARGFRAME ISTACK, 0, STACK
        ARGFRAME PSTACK, 0, STACK
        ARGFRAME XSTACK, 10, STACK
        ARGFRAME IOVERLAY, 0, STATIC
        ARGFRAME DOVERLAY, 0, STATIC
        FUNCALL on_data_confirm, dbg_line
        LOCFRAME ISTACK, 0, STACK
        LOCFRAME PSTACK, 0, STACK
        LOCFRAME XSTACK, 10, STACK
        LOCFRAME IOVERLAY, 0, STATIC
        LOCFRAME DOVERLAY, 0, STATIC
        ARGFRAME ISTACK, 0, STACK
        ARGFRAME PSTACK, 0, STACK
        ARGFRAME XSTACK, 10, STACK
        ARGFRAME IOVERLAY, 0, STATIC
        ARGFRAME DOVERLAY, 0, STATIC
        FUNCALL on_data_confirm, sprintf
        LOCFRAME ISTACK, 0, STACK
        LOCFRAME PSTACK, 0, STACK
        LOCFRAME XSTACK, 12, STACK
        LOCFRAME IOVERLAY, 0, STATIC
        LOCFRAME DOVERLAY, 0, STATIC
        ARGFRAME ISTACK, 0, STACK
        ARGFRAME PSTACK, 0, STACK
        ARGFRAME XSTACK, 12, STACK
        ARGFRAME IOVERLAY, 0, STATIC
        ARGFRAME DOVERLAY, 0, STATIC
        FUNCALL on_data_confirm, dbg_puts
        LOCFRAME ISTACK, 0, STACK
        LOCFRAME PSTACK, 0, STACK
        LOCFRAME XSTACK, 10, STACK
        LOCFRAME IOVERLAY, 0, STATIC
        LOCFRAME DOVERLAY, 0, STATIC
        ARGFRAME ISTACK, 0, STACK
        ARGFRAME PSTACK, 0, STACK
        ARGFRAME XSTACK, 10, STACK
        ARGFRAME IOVERLAY, 0, STATIC
        ARGFRAME DOVERLAY, 0, STATIC
        FUNCALL on_data_confirm, note_transport_failure
        LOCFRAME ISTACK, 0, STACK
        LOCFRAME PSTACK, 0, STACK
        LOCFRAME XSTACK, 10, STACK
        LOCFRAME IOVERLAY, 0, STATIC
        LOCFRAME DOVERLAY, 0, STATIC
        ARGFRAME ISTACK, 0, STACK
        ARGFRAME PSTACK, 0, STACK
        ARGFRAME XSTACK, 10, STACK
        ARGFRAME IOVERLAY, 0, STATIC
        ARGFRAME DOVERLAY, 0, STATIC
        MOV     A,#-0xa
        LCALL   ?BANKED_ENTER_XDATA
        CFI DPH0 load(1, XDATA, add(CFA_XSP16, literal(-1)))
        CFI DPL0 load(1, XDATA, add(CFA_XSP16, literal(-2)))
        CFI ?BRET_EXT load(1, XDATA, add(CFA_XSP16, literal(-3)))
        CFI ?RET_HIGH load(1, XDATA, add(CFA_XSP16, literal(-4)))
        CFI ?RET_LOW load(1, XDATA, add(CFA_XSP16, literal(-5)))
        CFI R7 load(1, XDATA, add(CFA_XSP16, literal(-6)))
        CFI V1 load(1, XDATA, add(CFA_XSP16, literal(-7)))
        CFI V0 load(1, XDATA, add(CFA_XSP16, literal(-8)))
        CFI VB load(1, XDATA, add(CFA_XSP16, literal(-9)))
        CFI R6 load(1, XDATA, add(CFA_XSP16, literal(-10)))
        CFI CFA_SP SP+0
        CFI CFA_XSP16 add(XSP16, 10)
        ; Saved register size: 10
        ; Auto size: 0
//  427     if (s_report_diag.pending_reports > 0) {
        MOV     DPTR,#s_report_diag + 3
        MOVX    A,@DPTR
        JZ      ??on_data_confirm_0
//  428         s_report_diag.pending_reports--;
        DEC     A
        MOVX    @DPTR,A
//  429     }
//  430 
//  431     s_report_diag.last_status = cfm->hdr.status;
??on_data_confirm_0:
        MOV     DPL,R2
        MOV     DPH,R3
        INC     DPTR
        MOV     R6,DPL
        MOV     R7,DPH
        MOVX    A,@DPTR
        MOV     DPTR,#s_report_diag + 1
        MOVX    @DPTR,A
//  432     s_report_diag.last_transid = cfm->transID;
        MOV     DPL,R2
        MOV     DPH,R3
        INC     DPTR
        INC     DPTR
        INC     DPTR
        MOVX    A,@DPTR
        MOV     DPTR,#s_report_diag + 2
        MOVX    @DPTR,A
//  433     if (cfm->hdr.status == ZSuccess) {
        MOV     DPL,R6
        MOV     DPH,R7
        MOVX    A,@DPTR
        JNZ     ??on_data_confirm_1
//  434         s_report_diag.last_result = 0;
        MOV     DPTR,#s_report_diag
        CLR     A
        MOVX    @DPTR,A
//  435         s_report_diag.consecutive_fail = 0;
        MOV     DPTR,#s_report_diag + 5
        MOVX    @DPTR,A
//  436         if (s_wait_first_report_cfm && s_nwk_joined) {
        MOV     DPTR,#s_wait_first_report_cfm
        MOVX    A,@DPTR
        JZ      ??on_data_confirm_2
        MOV     DPTR,#s_nwk_joined
        MOVX    A,@DPTR
        JZ      ??on_data_confirm_2
//  437             s_wait_first_report_cfm = 0u;
        MOV     DPTR,#s_wait_first_report_cfm
        CLR     A
        MOVX    @DPTR,A
//  438             s_link_ready = 1u;
        MOV     DPTR,#s_link_ready
        INC     A
        MOVX    @DPTR,A
//  439             dbg_line("[cfm] first report CONFIRMED, link READY");
        ; Setup parameters for call to function dbg_line
        MOV     R2,#`?<Constant "[cfm] first report CO...">` & 0xff
        MOV     R3,#(`?<Constant "[cfm] first report CO...">` >> 8) & 0xff
        LCALL   ??dbg_line?relay
//  440             status_led_refresh();
        ; Setup parameters for call to function status_led_refresh
        LCALL   ??status_led_refresh?relay
        SJMP    ??on_data_confirm_3
//  441         } else {
//  442             dbg_line("[cfm] OK");
??on_data_confirm_2:
        ; Setup parameters for call to function dbg_line
        MOV     R2,#`?<Constant "[cfm] OK">` & 0xff
        MOV     R3,#(`?<Constant "[cfm] OK">` >> 8) & 0xff
        LCALL   ??dbg_line?relay
        SJMP    ??on_data_confirm_3
//  443         }
//  444     } else {
//  445         (void)sprintf(s_dbg_buf, "[cfm] fail=0x%02X\r\n", (unsigned)cfm->hdr.status);
??on_data_confirm_1:
        ; Setup parameters for call to function sprintf
        MOV     ?V0 + 0,A
        MOV     ?V0 + 1,#0x0
        MOV     R0,#?V0 + 0
        LCALL   ?PUSH_XSTACK_I_TWO
        CFI CFA_XSP16 add(XSP16, 12)
        MOV     R4,#`?<Constant "[cfm] fail=0x%02X\\r\\n">` & 0xff
        MOV     R5,#(`?<Constant "[cfm] fail=0x%02X\\r\\n">` >> 8) & 0xff
        MOV     R2,#s_dbg_buf & 0xff
        MOV     R3,#(s_dbg_buf >> 8) & 0xff
        LCALL   ??sprintf?relay
        MOV     A,#0x2
        LCALL   ?DEALLOC_XSTACK8
        CFI CFA_XSP16 add(XSP16, 10)
//  446         dbg_puts(s_dbg_buf);
        ; Setup parameters for call to function dbg_puts
        MOV     R2,#s_dbg_buf & 0xff
        MOV     R3,#(s_dbg_buf >> 8) & 0xff
        LCALL   ??dbg_puts?relay
//  447         note_transport_failure((int8)cfm->hdr.status);
        ; Setup parameters for call to function note_transport_failure
        MOV     DPL,R6
        MOV     DPH,R7
        MOVX    A,@DPTR
        MOV     R1,A
        LCALL   ??note_transport_failure?relay
//  448     }
//  449 }
??on_data_confirm_3:
        LJMP    ?Subroutine0 & 0xFFFF
        CFI EndBlock cfiBlock45
//  450 

        RSEG BANKED_CODE:CODE:NOROOT(0)
//  451 UINT16 ZbNode_ProcessEvent(uint8 task_id, uint16 events)
ZbNode_ProcessEvent:
        CFI Block cfiBlock46 Using cfiCommon0
        CFI Function ZbNode_ProcessEvent
        CODE
//  452 {
        FUNCALL ZbNode_ProcessEvent, do_report
        LOCFRAME ISTACK, 0, STACK
        LOCFRAME PSTACK, 0, STACK
        LOCFRAME XSTACK, 14, STACK
        LOCFRAME IOVERLAY, 0, STATIC
        LOCFRAME DOVERLAY, 0, STATIC
        ARGFRAME ISTACK, 0, STACK
        ARGFRAME PSTACK, 0, STACK
        ARGFRAME XSTACK, 14, STACK
        ARGFRAME IOVERLAY, 0, STATIC
        ARGFRAME DOVERLAY, 0, STATIC
        FUNCALL ZbNode_ProcessEvent, status_led_refresh
        LOCFRAME ISTACK, 0, STACK
        LOCFRAME PSTACK, 0, STACK
        LOCFRAME XSTACK, 14, STACK
        LOCFRAME IOVERLAY, 0, STATIC
        LOCFRAME DOVERLAY, 0, STATIC
        ARGFRAME ISTACK, 0, STACK
        ARGFRAME PSTACK, 0, STACK
        ARGFRAME XSTACK, 14, STACK
        ARGFRAME IOVERLAY, 0, STATIC
        ARGFRAME DOVERLAY, 0, STATIC
        FUNCALL ZbNode_ProcessEvent, oled_publish
        LOCFRAME ISTACK, 0, STACK
        LOCFRAME PSTACK, 0, STACK
        LOCFRAME XSTACK, 14, STACK
        LOCFRAME IOVERLAY, 0, STATIC
        LOCFRAME DOVERLAY, 0, STATIC
        ARGFRAME ISTACK, 0, STACK
        ARGFRAME PSTACK, 0, STACK
        ARGFRAME XSTACK, 14, STACK
        ARGFRAME IOVERLAY, 0, STATIC
        ARGFRAME DOVERLAY, 0, STATIC
        FUNCALL ZbNode_ProcessEvent, osal_msg_deallocate
        LOCFRAME ISTACK, 0, STACK
        LOCFRAME PSTACK, 0, STACK
        LOCFRAME XSTACK, 14, STACK
        LOCFRAME IOVERLAY, 0, STATIC
        LOCFRAME DOVERLAY, 0, STATIC
        ARGFRAME ISTACK, 0, STACK
        ARGFRAME PSTACK, 0, STACK
        ARGFRAME XSTACK, 14, STACK
        ARGFRAME IOVERLAY, 0, STATIC
        ARGFRAME DOVERLAY, 0, STATIC
        FUNCALL ZbNode_ProcessEvent, osal_msg_receive
        LOCFRAME ISTACK, 0, STACK
        LOCFRAME PSTACK, 0, STACK
        LOCFRAME XSTACK, 14, STACK
        LOCFRAME IOVERLAY, 0, STATIC
        LOCFRAME DOVERLAY, 0, STATIC
        ARGFRAME ISTACK, 0, STACK
        ARGFRAME PSTACK, 0, STACK
        ARGFRAME XSTACK, 14, STACK
        ARGFRAME IOVERLAY, 0, STATIC
        ARGFRAME DOVERLAY, 0, STATIC
        FUNCALL ZbNode_ProcessEvent, on_incoming
        LOCFRAME ISTACK, 0, STACK
        LOCFRAME PSTACK, 0, STACK
        LOCFRAME XSTACK, 14, STACK
        LOCFRAME IOVERLAY, 0, STATIC
        LOCFRAME DOVERLAY, 0, STATIC
        ARGFRAME ISTACK, 0, STACK
        ARGFRAME PSTACK, 0, STACK
        ARGFRAME XSTACK, 14, STACK
        ARGFRAME IOVERLAY, 0, STATIC
        ARGFRAME DOVERLAY, 0, STATIC
        FUNCALL ZbNode_ProcessEvent, on_data_confirm
        LOCFRAME ISTACK, 0, STACK
        LOCFRAME PSTACK, 0, STACK
        LOCFRAME XSTACK, 14, STACK
        LOCFRAME IOVERLAY, 0, STATIC
        LOCFRAME DOVERLAY, 0, STATIC
        ARGFRAME ISTACK, 0, STACK
        ARGFRAME PSTACK, 0, STACK
        ARGFRAME XSTACK, 14, STACK
        ARGFRAME IOVERLAY, 0, STATIC
        ARGFRAME DOVERLAY, 0, STATIC
        FUNCALL ZbNode_ProcessEvent, sprintf
        LOCFRAME ISTACK, 0, STACK
        LOCFRAME PSTACK, 0, STACK
        LOCFRAME XSTACK, 16, STACK
        LOCFRAME IOVERLAY, 0, STATIC
        LOCFRAME DOVERLAY, 0, STATIC
        ARGFRAME ISTACK, 0, STACK
        ARGFRAME PSTACK, 0, STACK
        ARGFRAME XSTACK, 16, STACK
        ARGFRAME IOVERLAY, 0, STATIC
        ARGFRAME DOVERLAY, 0, STATIC
        FUNCALL ZbNode_ProcessEvent, dbg_puts
        LOCFRAME ISTACK, 0, STACK
        LOCFRAME PSTACK, 0, STACK
        LOCFRAME XSTACK, 14, STACK
        LOCFRAME IOVERLAY, 0, STATIC
        LOCFRAME DOVERLAY, 0, STATIC
        ARGFRAME ISTACK, 0, STACK
        ARGFRAME PSTACK, 0, STACK
        ARGFRAME XSTACK, 14, STACK
        ARGFRAME IOVERLAY, 0, STATIC
        ARGFRAME DOVERLAY, 0, STATIC
        FUNCALL ZbNode_ProcessEvent, dbg_line
        LOCFRAME ISTACK, 0, STACK
        LOCFRAME PSTACK, 0, STACK
        LOCFRAME XSTACK, 14, STACK
        LOCFRAME IOVERLAY, 0, STATIC
        LOCFRAME DOVERLAY, 0, STATIC
        ARGFRAME ISTACK, 0, STACK
        ARGFRAME PSTACK, 0, STACK
        ARGFRAME XSTACK, 14, STACK
        ARGFRAME IOVERLAY, 0, STATIC
        ARGFRAME DOVERLAY, 0, STATIC
        FUNCALL ZbNode_ProcessEvent, network_joined
        LOCFRAME ISTACK, 0, STACK
        LOCFRAME PSTACK, 0, STACK
        LOCFRAME XSTACK, 14, STACK
        LOCFRAME IOVERLAY, 0, STATIC
        LOCFRAME DOVERLAY, 0, STATIC
        ARGFRAME ISTACK, 0, STACK
        ARGFRAME PSTACK, 0, STACK
        ARGFRAME XSTACK, 14, STACK
        ARGFRAME IOVERLAY, 0, STATIC
        ARGFRAME DOVERLAY, 0, STATIC
        FUNCALL ZbNode_ProcessEvent, dbg_line
        LOCFRAME ISTACK, 0, STACK
        LOCFRAME PSTACK, 0, STACK
        LOCFRAME XSTACK, 14, STACK
        LOCFRAME IOVERLAY, 0, STATIC
        LOCFRAME DOVERLAY, 0, STATIC
        ARGFRAME ISTACK, 0, STACK
        ARGFRAME PSTACK, 0, STACK
        ARGFRAME XSTACK, 14, STACK
        ARGFRAME IOVERLAY, 0, STATIC
        ARGFRAME DOVERLAY, 0, STATIC
        FUNCALL ZbNode_ProcessEvent, dbg_line
        LOCFRAME ISTACK, 0, STACK
        LOCFRAME PSTACK, 0, STACK
        LOCFRAME XSTACK, 14, STACK
        LOCFRAME IOVERLAY, 0, STATIC
        LOCFRAME DOVERLAY, 0, STATIC
        ARGFRAME ISTACK, 0, STACK
        ARGFRAME PSTACK, 0, STACK
        ARGFRAME XSTACK, 14, STACK
        ARGFRAME IOVERLAY, 0, STATIC
        ARGFRAME DOVERLAY, 0, STATIC
        FUNCALL ZbNode_ProcessEvent, NLME_GetShortAddr
        LOCFRAME ISTACK, 0, STACK
        LOCFRAME PSTACK, 0, STACK
        LOCFRAME XSTACK, 14, STACK
        LOCFRAME IOVERLAY, 0, STATIC
        LOCFRAME DOVERLAY, 0, STATIC
        ARGFRAME ISTACK, 0, STACK
        ARGFRAME PSTACK, 0, STACK
        ARGFRAME XSTACK, 14, STACK
        ARGFRAME IOVERLAY, 0, STATIC
        ARGFRAME DOVERLAY, 0, STATIC
        FUNCALL ZbNode_ProcessEvent, sprintf
        LOCFRAME ISTACK, 0, STACK
        LOCFRAME PSTACK, 0, STACK
        LOCFRAME XSTACK, 20, STACK
        LOCFRAME IOVERLAY, 0, STATIC
        LOCFRAME DOVERLAY, 0, STATIC
        ARGFRAME ISTACK, 0, STACK
        ARGFRAME PSTACK, 0, STACK
        ARGFRAME XSTACK, 20, STACK
        ARGFRAME IOVERLAY, 0, STATIC
        ARGFRAME DOVERLAY, 0, STATIC
        FUNCALL ZbNode_ProcessEvent, dbg_puts
        LOCFRAME ISTACK, 0, STACK
        LOCFRAME PSTACK, 0, STACK
        LOCFRAME XSTACK, 14, STACK
        LOCFRAME IOVERLAY, 0, STATIC
        LOCFRAME DOVERLAY, 0, STATIC
        ARGFRAME ISTACK, 0, STACK
        ARGFRAME PSTACK, 0, STACK
        ARGFRAME XSTACK, 14, STACK
        ARGFRAME IOVERLAY, 0, STATIC
        ARGFRAME DOVERLAY, 0, STATIC
        FUNCALL ZbNode_ProcessEvent, do_report
        LOCFRAME ISTACK, 0, STACK
        LOCFRAME PSTACK, 0, STACK
        LOCFRAME XSTACK, 14, STACK
        LOCFRAME IOVERLAY, 0, STATIC
        LOCFRAME DOVERLAY, 0, STATIC
        ARGFRAME ISTACK, 0, STACK
        ARGFRAME PSTACK, 0, STACK
        ARGFRAME XSTACK, 14, STACK
        ARGFRAME IOVERLAY, 0, STATIC
        ARGFRAME DOVERLAY, 0, STATIC
        FUNCALL ZbNode_ProcessEvent, do_report
        LOCFRAME ISTACK, 0, STACK
        LOCFRAME PSTACK, 0, STACK
        LOCFRAME XSTACK, 14, STACK
        LOCFRAME IOVERLAY, 0, STATIC
        LOCFRAME DOVERLAY, 0, STATIC
        ARGFRAME ISTACK, 0, STACK
        ARGFRAME PSTACK, 0, STACK
        ARGFRAME XSTACK, 14, STACK
        ARGFRAME IOVERLAY, 0, STATIC
        ARGFRAME DOVERLAY, 0, STATIC
        FUNCALL ZbNode_ProcessEvent, status_led_refresh
        LOCFRAME ISTACK, 0, STACK
        LOCFRAME PSTACK, 0, STACK
        LOCFRAME XSTACK, 14, STACK
        LOCFRAME IOVERLAY, 0, STATIC
        LOCFRAME DOVERLAY, 0, STATIC
        ARGFRAME ISTACK, 0, STACK
        ARGFRAME PSTACK, 0, STACK
        ARGFRAME XSTACK, 14, STACK
        ARGFRAME IOVERLAY, 0, STATIC
        ARGFRAME DOVERLAY, 0, STATIC
        FUNCALL ZbNode_ProcessEvent, oled_publish
        LOCFRAME ISTACK, 0, STACK
        LOCFRAME PSTACK, 0, STACK
        LOCFRAME XSTACK, 14, STACK
        LOCFRAME IOVERLAY, 0, STATIC
        LOCFRAME DOVERLAY, 0, STATIC
        ARGFRAME ISTACK, 0, STACK
        ARGFRAME PSTACK, 0, STACK
        ARGFRAME XSTACK, 14, STACK
        ARGFRAME IOVERLAY, 0, STATIC
        ARGFRAME DOVERLAY, 0, STATIC
        FUNCALL ZbNode_ProcessEvent, node_oled_view_refresh
        LOCFRAME ISTACK, 0, STACK
        LOCFRAME PSTACK, 0, STACK
        LOCFRAME XSTACK, 14, STACK
        LOCFRAME IOVERLAY, 0, STATIC
        LOCFRAME DOVERLAY, 0, STATIC
        ARGFRAME ISTACK, 0, STACK
        ARGFRAME PSTACK, 0, STACK
        ARGFRAME XSTACK, 14, STACK
        ARGFRAME IOVERLAY, 0, STATIC
        ARGFRAME DOVERLAY, 0, STATIC
        MOV     A,#-0xe
        LCALL   ?BANKED_ENTER_XDATA
        CFI DPH0 load(1, XDATA, add(CFA_XSP16, literal(-1)))
        CFI DPL0 load(1, XDATA, add(CFA_XSP16, literal(-2)))
        CFI ?BRET_EXT load(1, XDATA, add(CFA_XSP16, literal(-3)))
        CFI ?RET_HIGH load(1, XDATA, add(CFA_XSP16, literal(-4)))
        CFI ?RET_LOW load(1, XDATA, add(CFA_XSP16, literal(-5)))
        CFI R7 load(1, XDATA, add(CFA_XSP16, literal(-6)))
        CFI V5 load(1, XDATA, add(CFA_XSP16, literal(-7)))
        CFI V4 load(1, XDATA, add(CFA_XSP16, literal(-8)))
        CFI V3 load(1, XDATA, add(CFA_XSP16, literal(-9)))
        CFI V2 load(1, XDATA, add(CFA_XSP16, literal(-10)))
        CFI V1 load(1, XDATA, add(CFA_XSP16, literal(-11)))
        CFI V0 load(1, XDATA, add(CFA_XSP16, literal(-12)))
        CFI VB load(1, XDATA, add(CFA_XSP16, literal(-13)))
        CFI R6 load(1, XDATA, add(CFA_XSP16, literal(-14)))
        CFI CFA_SP SP+0
        CFI CFA_XSP16 add(XSP16, 14)
        ; Saved register size: 14
        ; Auto size: 0
        MOV     A,R2
        MOV     R6,A
        MOV     A,R3
        MOV     R7,A
//  453     afIncomingMSGPacket_t *MSGpkt;
//  454 
//  455     (void)task_id;
//  456 
//  457     if (events & SYS_EVENT_MSG) {
        ANL     A,#0x80
        JNZ     ??ZbNode_ProcessEvent_0
//  458         while ((MSGpkt = (afIncomingMSGPacket_t *)osal_msg_receive(ZbNode_TaskID)) != 0) {
//  459             switch (MSGpkt->hdr.event) {
//  460             case AF_INCOMING_MSG_CMD:
//  461                 on_incoming(MSGpkt);
//  462                 break;
//  463 
//  464             case AF_DATA_CONFIRM_CMD:
//  465                 on_data_confirm((afDataConfirm_t *)MSGpkt);
//  466                 break;
//  467 
//  468             case ZDO_STATE_CHANGE:
//  469             {
//  470                 devStates_t prev_state = s_nwk_state;
//  471 
//  472                 s_nwk_state = (devStates_t)MSGpkt->hdr.status;
//  473                 (void)sprintf(s_dbg_buf, "[zdo] st=%u\r\n",
//  474                               (unsigned)s_nwk_state);
//  475                 dbg_puts(s_dbg_buf);
//  476                 if (!s_nwk_joined &&
//  477                     prev_state == DEV_INIT &&
//  478                     (s_nwk_state == DEV_NWK_DISC ||
//  479                      s_nwk_state == DEV_NWK_JOINING ||
//  480                      s_nwk_state == DEV_END_DEVICE_UNAUTH)) {
//  481                     dbg_line("[boot] restore unavailable, fall back to join flow");
//  482                 }
//  483                 if (network_joined()) {
//  484                     if (!s_nwk_joined &&
//  485                         (prev_state == DEV_NWK_DISC ||
//  486                          prev_state == DEV_NWK_JOINING ||
//  487                          prev_state == DEV_END_DEVICE_UNAUTH ||
//  488                          prev_state == DEV_NWK_REJOIN ||
//  489                          prev_state == DEV_NWK_ORPHAN)) {
//  490                         dbg_line("[zdo] FRESH-JOIN");
//  491                     } else {
//  492                         dbg_line("[zdo] RESTORED");
//  493                     }
//  494                     (void)sprintf(s_dbg_buf, "[zdo] pan=%04X sa=%04X c=%u\r\n",
//  495                                   (unsigned)_NIB.nwkPanId,
//  496                                   (unsigned)NLME_GetShortAddr(),
//  497                                   (unsigned)_NIB.nwkLogicalChannel);
//  498                     dbg_puts(s_dbg_buf);
//  499                     if (!s_nwk_joined) {
//  500                         s_nwk_joined = 1u;
//  501                         s_link_ready = 0u;
//  502                         s_wait_first_report_cfm = 1u;
//  503                         do_report();
//  504                     }
//  505                 } else {
//  506                     s_nwk_joined = 0u;
//  507                     s_link_ready = 0u;
//  508                     s_wait_first_report_cfm = 0u;
//  509                 }
//  510                 status_led_refresh();
//  511                 oled_publish();
//  512                 break;
//  513             }
//  514 
//  515             default:
//  516                 break;
//  517             }
//  518             osal_msg_deallocate((uint8 *)MSGpkt);
//  519         }
//  520         return (events ^ SYS_EVENT_MSG);
//  521     }
//  522 
//  523     if (events & ZN_EVT_REPORT) {
        MOV     A,R6
        MOV     C,0xE0 /* A   */.0
        JC      $+5
        LJMP    ??ZbNode_ProcessEvent_1 & 0xFFFF
//  524         do_report();
        ; Setup parameters for call to function do_report
        LCALL   ??do_report?relay
//  525         return (events ^ ZN_EVT_REPORT);
        MOV     A,R6
        XRL     A,#0x1
??ZbNode_ProcessEvent_2:
        MOV     R2,A
        MOV     A,R7
??ZbNode_ProcessEvent_3:
        MOV     R3,A
        LJMP    ??ZbNode_ProcessEvent_4 & 0xFFFF
//  526     }
??ZbNode_ProcessEvent_5:
        LCALL   ?Subroutine11 & 0xFFFF
??CrossCallReturnLabel_13:
        ; Setup parameters for call to function status_led_refresh
        LCALL   ??status_led_refresh?relay
        ; Setup parameters for call to function oled_publish
        LCALL   ??oled_publish?relay
??ZbNode_ProcessEvent_6:
        ; Setup parameters for call to function osal_msg_deallocate
        MOV     R2,?V0 + 0
        MOV     R3,?V0 + 1
        LCALL   ??osal_msg_deallocate?relay
??ZbNode_ProcessEvent_0:
        ; Setup parameters for call to function osal_msg_receive
        MOV     DPTR,#ZbNode_TaskID
        MOVX    A,@DPTR
        MOV     R1,A
        LCALL   ??osal_msg_receive?relay
        MOV     ?V0 + 0,R2
        MOV     ?V0 + 1,R3
        MOV     A,R2
        ORL     A,?V0 + 1
        JNZ     $+5
        LJMP    ??ZbNode_ProcessEvent_7 & 0xFFFF
        MOV     DPL,R2
        MOV     DPH,R3
        MOVX    A,@DPTR
        ADD     A,#-0x1a
        JZ      ??ZbNode_ProcessEvent_8
        ADD     A,#0x49
        JZ      ??ZbNode_ProcessEvent_9
        ADD     A,#-0x2c
        JZ      ??ZbNode_ProcessEvent_10
        SJMP    ??ZbNode_ProcessEvent_6
??ZbNode_ProcessEvent_8:
        ; Setup parameters for call to function on_incoming
        LCALL   ??on_incoming?relay
        SJMP    ??ZbNode_ProcessEvent_6
??ZbNode_ProcessEvent_10:
        ; Setup parameters for call to function on_data_confirm
        LCALL   ??on_data_confirm?relay
        SJMP    ??ZbNode_ProcessEvent_6
??ZbNode_ProcessEvent_9:
        MOV     DPTR,#s_nwk_state
        MOVX    A,@DPTR
        MOV     ?V0 + 4,A
        MOV     DPL,R2
        MOV     DPH,R3
        INC     DPTR
        MOVX    A,@DPTR
        MOV     DPTR,#s_nwk_state
        MOVX    @DPTR,A
        ; Setup parameters for call to function sprintf
        MOV     ?V0 + 2,A
        MOV     ?V0 + 3,#0x0
        MOV     R0,#?V0 + 2
        LCALL   ?PUSH_XSTACK_I_TWO
        CFI CFA_XSP16 add(XSP16, 16)
        MOV     R4,#`?<Constant "[zdo] st=%u\\r\\n">` & 0xff
        MOV     R5,#(`?<Constant "[zdo] st=%u\\r\\n">` >> 8) & 0xff
        MOV     R2,#s_dbg_buf & 0xff
        MOV     R3,#(s_dbg_buf >> 8) & 0xff
        LCALL   ??sprintf?relay
        MOV     A,#0x2
        LCALL   ?DEALLOC_XSTACK8
        CFI CFA_XSP16 add(XSP16, 14)
        ; Setup parameters for call to function dbg_puts
        MOV     R2,#s_dbg_buf & 0xff
        MOV     R3,#(s_dbg_buf >> 8) & 0xff
        LCALL   ??dbg_puts?relay
        MOV     DPTR,#s_nwk_joined
        MOVX    A,@DPTR
        JNZ     ??ZbNode_ProcessEvent_11
        MOV     A,#0x1
        XRL     A,?V0 + 4
        JNZ     ??ZbNode_ProcessEvent_11
        MOV     DPTR,#s_nwk_state
        MOVX    A,@DPTR
        XRL     A,#0x2
        JZ      ??ZbNode_ProcessEvent_12
        MOVX    A,@DPTR
        XRL     A,#0x3
        JZ      ??ZbNode_ProcessEvent_12
        MOVX    A,@DPTR
        XRL     A,#0x5
        JNZ     ??ZbNode_ProcessEvent_11
??ZbNode_ProcessEvent_12:
        ; Setup parameters for call to function dbg_line
        MOV     R2,#`?<Constant "[boot] restore unavai...">` & 0xff
        MOV     R3,#(`?<Constant "[boot] restore unavai...">` >> 8) & 0xff
        LCALL   ??dbg_line?relay
??ZbNode_ProcessEvent_11:
        ; Setup parameters for call to function network_joined
        LCALL   ??network_joined?relay
        MOV     A,R1
        MOV     DPTR,#s_nwk_joined
        JNZ     $+5
        LJMP    ??ZbNode_ProcessEvent_5 & 0xFFFF
        MOVX    A,@DPTR
        JNZ     ??ZbNode_ProcessEvent_13
        MOV     A,#0x2
        XRL     A,?V0 + 4
        JZ      ??ZbNode_ProcessEvent_14
        MOV     A,#0x3
        XRL     A,?V0 + 4
        JZ      ??ZbNode_ProcessEvent_14
        MOV     A,#0x5
        XRL     A,?V0 + 4
        JZ      ??ZbNode_ProcessEvent_14
        MOV     A,#0x4
        XRL     A,?V0 + 4
        JZ      ??ZbNode_ProcessEvent_14
        MOV     A,#0xa
        XRL     A,?V0 + 4
        JNZ     ??ZbNode_ProcessEvent_13
??ZbNode_ProcessEvent_14:
        ; Setup parameters for call to function dbg_line
        MOV     R2,#`?<Constant "[zdo] FRESH-JOIN">` & 0xff
        MOV     R3,#(`?<Constant "[zdo] FRESH-JOIN">` >> 8) & 0xff
        SJMP    ??ZbNode_ProcessEvent_15
??ZbNode_ProcessEvent_13:
        ; Setup parameters for call to function dbg_line
        MOV     R2,#`?<Constant "[zdo] RESTORED">` & 0xff
        MOV     R3,#(`?<Constant "[zdo] RESTORED">` >> 8) & 0xff
??ZbNode_ProcessEvent_15:
        LCALL   ??dbg_line?relay
        ; Setup parameters for call to function NLME_GetShortAddr
        LCALL   ??NLME_GetShortAddr?relay
        MOV     ?V0 + 2,R2
        MOV     ?V0 + 3,R3
        ; Setup parameters for call to function sprintf
        MOV     DPTR,#_NIB + 22
        MOVX    A,@DPTR
        MOV     ?V0 + 4,A
        MOV     ?V0 + 5,#0x0
        MOV     R0,#?V0 + 4
        LCALL   ?PUSH_XSTACK_I_TWO
        CFI CFA_XSP16 add(XSP16, 16)
        MOV     R0,#?V0 + 2
        LCALL   ?PUSH_XSTACK_I_TWO
        CFI CFA_XSP16 add(XSP16, 18)
        MOV     DPTR,#_NIB + 33
        LCALL   ?PUSH_XSTACK8_X_TWO
        CFI CFA_XSP16 add(XSP16, 20)
        MOV     R4,#`?<Constant "[zdo] pan=%04X sa=%04...">` & 0xff
        MOV     R5,#(`?<Constant "[zdo] pan=%04X sa=%04...">` >> 8) & 0xff
        MOV     R2,#s_dbg_buf & 0xff
        MOV     R3,#(s_dbg_buf >> 8) & 0xff
        LCALL   ??sprintf?relay
        MOV     A,#0x6
        LCALL   ?DEALLOC_XSTACK8
        CFI CFA_XSP16 add(XSP16, 14)
        ; Setup parameters for call to function dbg_puts
        MOV     R2,#s_dbg_buf & 0xff
        MOV     R3,#(s_dbg_buf >> 8) & 0xff
        LCALL   ??dbg_puts?relay
        MOV     DPTR,#s_nwk_joined
        MOVX    A,@DPTR
        JZ      $+5
        LJMP    ??CrossCallReturnLabel_13 & 0xFFFF
        MOV     A,#0x1
        MOVX    @DPTR,A
        MOV     DPTR,#s_link_ready
        CLR     A
        MOVX    @DPTR,A
        MOV     DPTR,#s_wait_first_report_cfm
        INC     A
        MOVX    @DPTR,A
        ; Setup parameters for call to function do_report
        LCALL   ??do_report?relay
        LJMP    ??CrossCallReturnLabel_13 & 0xFFFF
??ZbNode_ProcessEvent_7:
        MOV     A,R6
        MOV     R2,A
        MOV     A,R7
        XRL     A,#0x80
        LJMP    ??ZbNode_ProcessEvent_3 & 0xFFFF
//  527 
//  528     if (events & ZN_EVT_REPORT_RETRY) {
??ZbNode_ProcessEvent_1:
        ANL     A,#0x2
        JZ      ??ZbNode_ProcessEvent_16
//  529         do_report();
        ; Setup parameters for call to function do_report
        LCALL   ??do_report?relay
//  530         return (events ^ ZN_EVT_REPORT_RETRY);
        MOV     A,R6
        XRL     A,#0x2
        LJMP    ??ZbNode_ProcessEvent_2 & 0xFFFF
//  531     }
//  532 
//  533     if (events & ZN_EVT_STATUS_LED) {
??ZbNode_ProcessEvent_16:
        MOV     A,R6
        ANL     A,#0x4
        JZ      ??ZbNode_ProcessEvent_17
//  534         s_status_led_phase++;
        MOV     DPTR,#s_status_led_phase
        MOVX    A,@DPTR
        INC     A
        MOVX    @DPTR,A
//  535         status_led_refresh();
        ; Setup parameters for call to function status_led_refresh
        LCALL   ??status_led_refresh?relay
//  536         /* 100 ms 滴答顺便驱动 OLED：node_oled_view_refresh 内部 model_changed 后才真写屏，
//  537          * 不变化时只是几次比较，开销可忽略。 */
//  538         oled_publish();
        ; Setup parameters for call to function oled_publish
        LCALL   ??oled_publish?relay
//  539         node_oled_view_refresh();
        ; Setup parameters for call to function node_oled_view_refresh
        LCALL   ??node_oled_view_refresh?relay
//  540         return (events ^ ZN_EVT_STATUS_LED);
        MOV     A,R6
        XRL     A,#0x4
        LJMP    ??ZbNode_ProcessEvent_2 & 0xFFFF
//  541     }
//  542 
//  543     return 0;
??ZbNode_ProcessEvent_17:
        MOV     R2,#0x0
        MOV     R3,#0x0
??ZbNode_ProcessEvent_4:
        MOV     R7,#0x6
        LJMP    ?BANKED_LEAVE_XDATA
        CFI EndBlock cfiBlock46
//  544 }

        RSEG BANKED_CODE:CODE:NOROOT(0)
?Subroutine11:
        CFI Block cfiCond47 Using cfiCommon0
        CFI NoFunction
        CFI Conditional ??CrossCallReturnLabel_12, ??CrossCallReturnLabel_2
        CFI DPL0 Frame(CFA_SP, 4)
        CFI DPH0 Frame(CFA_SP, 5)
        CFI CFA_SP SP+-5
        CFI Block cfiCond48 Using cfiCommon0
        CFI (cfiCond48) NoFunction
        CFI (cfiCond48) Conditional ??CrossCallReturnLabel_12, ??CrossCallReturnLabel_3
        CFI (cfiCond48) R6 load(1, XDATA, add(CFA_XSP16, literal(-9)))
        CFI (cfiCond48) VB load(1, XDATA, add(CFA_XSP16, literal(-8)))
        CFI (cfiCond48) V0 load(1, XDATA, add(CFA_XSP16, literal(-7)))
        CFI (cfiCond48) R7 load(1, XDATA, add(CFA_XSP16, literal(-6)))
        CFI (cfiCond48) ?RET_LOW load(1, XDATA, add(CFA_XSP16, literal(-5)))
        CFI (cfiCond48) ?RET_HIGH load(1, XDATA, add(CFA_XSP16, literal(-4)))
        CFI (cfiCond48) ?BRET_EXT load(1, XDATA, add(CFA_XSP16, literal(-3)))
        CFI (cfiCond48) DPL0 load(1, XDATA, add(CFA_XSP16, literal(-2)))
        CFI (cfiCond48) DPH0 load(1, XDATA, add(CFA_XSP16, literal(-1)))
        CFI (cfiCond48) CFA_SP SP+0
        CFI (cfiCond48) CFA_XSP16 add(XSP16, 38)
        CFI Block cfiCond49 Using cfiCommon0
        CFI (cfiCond49) NoFunction
        CFI (cfiCond49) Conditional ??CrossCallReturnLabel_13
        CFI (cfiCond49) R6 load(1, XDATA, add(CFA_XSP16, literal(-14)))
        CFI (cfiCond49) VB load(1, XDATA, add(CFA_XSP16, literal(-13)))
        CFI (cfiCond49) V0 load(1, XDATA, add(CFA_XSP16, literal(-12)))
        CFI (cfiCond49) V1 load(1, XDATA, add(CFA_XSP16, literal(-11)))
        CFI (cfiCond49) V2 load(1, XDATA, add(CFA_XSP16, literal(-10)))
        CFI (cfiCond49) V3 load(1, XDATA, add(CFA_XSP16, literal(-9)))
        CFI (cfiCond49) V4 load(1, XDATA, add(CFA_XSP16, literal(-8)))
        CFI (cfiCond49) V5 load(1, XDATA, add(CFA_XSP16, literal(-7)))
        CFI (cfiCond49) R7 load(1, XDATA, add(CFA_XSP16, literal(-6)))
        CFI (cfiCond49) ?RET_LOW load(1, XDATA, add(CFA_XSP16, literal(-5)))
        CFI (cfiCond49) ?RET_HIGH load(1, XDATA, add(CFA_XSP16, literal(-4)))
        CFI (cfiCond49) ?BRET_EXT load(1, XDATA, add(CFA_XSP16, literal(-3)))
        CFI (cfiCond49) DPL0 load(1, XDATA, add(CFA_XSP16, literal(-2)))
        CFI (cfiCond49) DPH0 load(1, XDATA, add(CFA_XSP16, literal(-1)))
        CFI (cfiCond49) CFA_SP SP+0
        CFI (cfiCond49) CFA_XSP16 add(XSP16, 14)
        CFI Block cfiPicker50 Using cfiCommon1
        CFI (cfiPicker50) NoFunction
        CFI (cfiPicker50) Picker
        CLR     A
        MOVX    @DPTR,A
        MOV     DPTR,#s_link_ready
        MOVX    @DPTR,A
        MOV     DPTR,#s_wait_first_report_cfm
        MOVX    @DPTR,A
        RET
        CFI EndBlock cfiCond47
        CFI EndBlock cfiCond48
        CFI EndBlock cfiCond49
        CFI EndBlock cfiPicker50

        RSEG XDATA_ID:CODE:NOROOT(0)
`?<Initializer for <Constant "\\r\\n">>`:
        DB "\015\012"

        RSEG XDATA_ID:CODE:NOROOT(0)
`?<Initializer for <Constant "[boot] keep NV ne`:
        DB 5BH, 62H, 6FH, 6FH, 74H, 5DH, 20H, 6BH
        DB 65H, 65H, 70H, 20H, 4EH, 56H, 20H, 6EH
        DB 65H, 74H, 77H, 6FH, 72H, 6BH, 20H, 73H
        DB 74H, 61H, 74H, 65H, 2CH, 20H, 74H, 72H
        DB 79H, 20H, 72H, 65H, 73H, 74H, 6FH, 72H
        DB 65H, 20H, 65H, 78H, 69H, 73H, 74H, 69H
        DB 6EH, 67H, 20H, 50H, 41H, 4EH, 0

        RSEG XDATA_ID:CODE:NOROOT(0)
`?<Initializer for <Constant "\\r\\n==== Node1 (D`:
        DB "\015\012==== Node1 (DHT11) ready, period=2000ms ===="

        RSEG XDATA_ID:CODE:NOROOT(0)
`?<Initializer for <Constant "[n1] T=%s%d.%02d `:
        DB "[n1] T=%s%d.%02d H=%u.%02u\015\012"

        RSEG XDATA_ID:CODE:NOROOT(0)
`?<Initializer for <Constant "-">>`:
        DB "-"

        RSEG XDATA_ID:CODE:NOROOT(0)
`?<Initializer for <Constant "[n1] DHT rc=%d\\r\\`:
        DB "[n1] DHT rc=%d\015\012"

        RSEG XDATA_ID:CODE:NOROOT(0)
`?<Initializer for <Constant "[cfm] first repor`:
        DB "[cfm] first report CONFIRMED, link READY"

        RSEG XDATA_ID:CODE:NOROOT(0)
`?<Initializer for <Constant "[cfm] OK">>`:
        DB "[cfm] OK"

        RSEG XDATA_ID:CODE:NOROOT(0)
`?<Initializer for <Constant "[cfm] fail=0x%02X`:
        DB "[cfm] fail=0x%02X\015\012"

        RSEG XDATA_ID:CODE:NOROOT(0)
`?<Initializer for <Constant "[zdo] st=%u\\r\\n">`:
        DB "[zdo] st=%u\015\012"

        RSEG XDATA_ID:CODE:NOROOT(0)
`?<Initializer for <Constant "[boot] restore un`:
        DB 5BH, 62H, 6FH, 6FH, 74H, 5DH, 20H, 72H
        DB 65H, 73H, 74H, 6FH, 72H, 65H, 20H, 75H
        DB 6EH, 61H, 76H, 61H, 69H, 6CH, 61H, 62H
        DB 6CH, 65H, 2CH, 20H, 66H, 61H, 6CH, 6CH
        DB 20H, 62H, 61H, 63H, 6BH, 20H, 74H, 6FH
        DB 20H, 6AH, 6FH, 69H, 6EH, 20H, 66H, 6CH
        DB 6FH, 77H, 0

        RSEG XDATA_ID:CODE:NOROOT(0)
`?<Initializer for <Constant "[zdo] FRESH-JOIN"`:
        DB "[zdo] FRESH-JOIN"

        RSEG XDATA_ID:CODE:NOROOT(0)
`?<Initializer for <Constant "[zdo] RESTORED">>`:
        DB "[zdo] RESTORED"

        RSEG XDATA_ID:CODE:NOROOT(0)
`?<Initializer for <Constant "[zdo] pan=%04X sa`:
        DB "[zdo] pan=%04X sa=%04X c=%u\015\012"

        RSEG XDATA_ID:CODE:NOROOT(0)
`?<Initializer for ZbNode_TaskID>`:
        DATA8
        DB 255

        RSEG XDATA_ID:CODE:NOROOT(0)
`?<Initializer for s_in_sensor>`:
        DATA16
        DW 6

        RSEG XDATA_ID:CODE:NOROOT(0)
`?<Initializer for s_out_sensor>`:
        DATA16
        DW 1026
        DW 1029
        DW 6

        RSEG XDATA_ID:CODE:NOROOT(0)
`?<Initializer for s_in_buzzer>`:
        DATA16
        DW 6

        RSEG XDATA_ID:CODE:NOROOT(0)
`?<Initializer for s_out_buzzer>`:
        DATA16
        DW 6

        RSEG XDATA_ID:CODE:NOROOT(0)
`?<Initializer for s_nwk_state>`:
        DATA8
        DB 1

        RSEG XDATA_ID:CODE:NOROOT(0)
`?<Initializer for s_startup_leds_owned>`:
        DATA8
        DB 1

        RSEG BANK_RELAYS:CODE:REORDER:NOROOT(0)
??dbg_puts?relay:
        LCALL   ?BDISPATCH
        DATA
        DC24    dbg_puts

        RSEG BANK_RELAYS:CODE:REORDER:NOROOT(0)
??dbg_line?relay:
        LCALL   ?BDISPATCH
        DATA
        DC24    dbg_line

        RSEG BANK_RELAYS:CODE:REORDER:NOROOT(0)
??oled_publish?relay:
        LCALL   ?BDISPATCH
        DATA
        DC24    oled_publish

        RSEG BANK_RELAYS:CODE:REORDER:NOROOT(0)
??indicator_pin_init?relay:
        LCALL   ?BDISPATCH
        DATA
        DC24    indicator_pin_init

        RSEG BANK_RELAYS:CODE:REORDER:NOROOT(0)
??indicator_pin_set?relay:
        LCALL   ?BDISPATCH
        DATA
        DC24    indicator_pin_set

        RSEG BANK_RELAYS:CODE:REORDER:NOROOT(0)
??network_joined?relay:
        LCALL   ?BDISPATCH
        DATA
        DC24    network_joined

        RSEG BANK_RELAYS:CODE:REORDER:NOROOT(0)
??status_led_refresh?relay:
        LCALL   ?BDISPATCH
        DATA
        DC24    status_led_refresh

        RSEG BANK_RELAYS:CODE:REORDER:NOROOT(0)
??ZbNode_PreInit?relay:
        LCALL   ?BDISPATCH
        DATA
        DC24    ZbNode_PreInit

        RSEG BANK_RELAYS:CODE:REORDER:NOROOT(0)
??network_ready?relay:
        LCALL   ?BDISPATCH
        DATA
        DC24    network_ready

        RSEG BANK_RELAYS:CODE:REORDER:NOROOT(0)
??note_local_sample_failure?relay:
        LCALL   ?BDISPATCH
        DATA
        DC24    note_local_sample_failure

        RSEG BANK_RELAYS:CODE:REORDER:NOROOT(0)
??note_transport_failure?relay:
        LCALL   ?BDISPATCH
        DATA
        DC24    note_transport_failure

        RSEG BANK_RELAYS:CODE:REORDER:NOROOT(0)
??send_attr_report?relay:
        LCALL   ?BDISPATCH
        DATA
        DC24    send_attr_report

        RSEG BANK_RELAYS:CODE:REORDER:NOROOT(0)
??register_endpoints?relay:
        LCALL   ?BDISPATCH
        DATA
        DC24    register_endpoints

        RSEG BANK_RELAYS:CODE:REORDER:NOROOT(0)
??ZbNode_Init?relay:
        LCALL   ?BDISPATCH
        DATA
        DC24    ZbNode_Init

        RSEG BANK_RELAYS:CODE:REORDER:NOROOT(0)
??do_report?relay:
        LCALL   ?BDISPATCH
        DATA
        DC24    do_report

        RSEG BANK_RELAYS:CODE:REORDER:NOROOT(0)
??on_incoming?relay:
        LCALL   ?BDISPATCH
        DATA
        DC24    on_incoming

        RSEG BANK_RELAYS:CODE:REORDER:NOROOT(0)
??on_data_confirm?relay:
        LCALL   ?BDISPATCH
        DATA
        DC24    on_data_confirm

        RSEG BANK_RELAYS:CODE:REORDER:NOROOT(0)
??ZbNode_ProcessEvent?relay:
        LCALL   ?BDISPATCH
        DATA
        DC24    ZbNode_ProcessEvent

        END
// 
// 2 204 bytes in segment BANKED_CODE
//   108 bytes in segment BANK_RELAYS
//     3 bytes in segment SFR_AN
//   365 bytes in segment XDATA_I
//   365 bytes in segment XDATA_ID
//    93 bytes in segment XDATA_Z
// 
// 2 677 bytes of CODE  memory
//     0 bytes of DATA  memory (+ 3 bytes shared)
//   458 bytes of XDATA memory
//
//Errors: none
//Warnings: 1
